---
triple:          'arm64-apple-darwin'
binary-path:     'project/addons/sentry/bin/ios/temp/libsentry.ios.release.arm64.dylib'
relocations:
  - { offset: 0x21969, size: 0x8, addend: 0x0, symName: __ZN5godot25call_with_ptr_args_helperIN6sentry7logging17SentryGodotLoggerEJRKNS_6StringES6_iS6_S6_biRKNS_10TypedArrayINS_3RefINS_15ScriptBacktraceEEEEEEJLm0ELm1ELm2ELm3ELm4ELm5ELm6ELm7EEEEvPT_MSE_FvDpT0_EPKPKvNS_13IndexSequenceIJXspT1_EEEE, symObjAddr: 0xC498, symBinAddr: 0x10498, symSize: 0x1AC }
  - { offset: 0x3F5CA, size: 0x8, addend: 0x0, symName: __ZNSt3__127__tree_balance_after_insertB8nn190102IPNS_16__tree_node_baseIPvEEEEvT_S5_, symObjAddr: 0x32B0, symBinAddr: 0x72B0, symSize: 0x1B4 }
  - { offset: 0x40F28, size: 0x8, addend: 0x0, symName: __ZSt28__throw_bad_array_new_lengthB8nn190102v, symObjAddr: 0x2074, symBinAddr: 0x6074, symSize: 0xC }
  - { offset: 0x40F45, size: 0x8, addend: 0x0, symName: __ZNSt3__112__hash_tableINS_17__hash_value_typeIN5godot10StringNameEPK35GDExtensionInstanceBindingCallbacksEENS_22__unordered_map_hasherIS3_S7_NS_4hashIS3_EENS_8equal_toIS3_EELb1EEENS_21__unordered_map_equalIS3_S7_SC_SA_Lb1EEENS_9allocatorIS7_EEE11__do_rehashILb1EEEvm, symObjAddr: 0x2080, symBinAddr: 0x6080, symSize: 0x1A0 }
  - { offset: 0x41F18, size: 0x8, addend: 0x0, symName: __ZN5godot6Object22_gde_binding_callbacksE, symObjAddr: 0x115A0, symBinAddr: 0x181010, symSize: 0x0 }
  - { offset: 0x41F2C, size: 0x8, addend: 0x0, symName: __ZN5godot16ClassDBSingleton22_gde_binding_callbacksE, symObjAddr: 0x11630, symBinAddr: 0x1810A0, symSize: 0x0 }
  - { offset: 0x41F40, size: 0x8, addend: 0x0, symName: __ZN5godot10RefCounted22_gde_binding_callbacksE, symObjAddr: 0x11648, symBinAddr: 0x1810B8, symSize: 0x0 }
  - { offset: 0x41F54, size: 0x8, addend: 0x0, symName: __ZN5godot6Logger22_gde_binding_callbacksE, symObjAddr: 0x116A0, symBinAddr: 0x181110, symSize: 0x0 }
  - { offset: 0x41F68, size: 0x8, addend: 0x0, symName: __ZN5godot15ScriptBacktrace22_gde_binding_callbacksE, symObjAddr: 0x116B8, symBinAddr: 0x181128, symSize: 0x0 }
  - { offset: 0x41F7C, size: 0x8, addend: 0x0, symName: __ZN5godot10ConfigFile22_gde_binding_callbacksE, symObjAddr: 0x11710, symBinAddr: 0x181180, symSize: 0x0 }
  - { offset: 0x41F90, size: 0x8, addend: 0x0, symName: __ZN5godot5Mutex22_gde_binding_callbacksE, symObjAddr: 0x11768, symBinAddr: 0x1811D8, symSize: 0x0 }
  - { offset: 0x41FA4, size: 0x8, addend: 0x0, symName: __ZN5godot6Engine22_gde_binding_callbacksE, symObjAddr: 0x117C0, symBinAddr: 0x181230, symSize: 0x0 }
  - { offset: 0x41FB8, size: 0x8, addend: 0x0, symName: __ZN5godot8MainLoop22_gde_binding_callbacksE, symObjAddr: 0x117D8, symBinAddr: 0x181248, symSize: 0x0 }
  - { offset: 0x41FCC, size: 0x8, addend: 0x0, symName: __ZN5godot9SceneTree22_gde_binding_callbacksE, symObjAddr: 0x117F0, symBinAddr: 0x181260, symSize: 0x0 }
  - { offset: 0x41FE0, size: 0x8, addend: 0x0, symName: __ZN5godot13DisplayServer22_gde_binding_callbacksE, symObjAddr: 0x11868, symBinAddr: 0x1812D8, symSize: 0x0 }
  - { offset: 0x41FF4, size: 0x8, addend: 0x0, symName: __ZN5godot4Node22_gde_binding_callbacksE, symObjAddr: 0x11880, symBinAddr: 0x1812F0, symSize: 0x0 }
  - { offset: 0x42008, size: 0x8, addend: 0x0, symName: __ZN5godot8Viewport22_gde_binding_callbacksE, symObjAddr: 0x11898, symBinAddr: 0x181308, symSize: 0x0 }
  - { offset: 0x4201C, size: 0x8, addend: 0x0, symName: __ZN5godot6Window22_gde_binding_callbacksE, symObjAddr: 0x11950, symBinAddr: 0x1813C0, symSize: 0x0 }
  - { offset: 0x42030, size: 0x8, addend: 0x0, symName: __ZN6sentry18SentryLoggerLimits22_gde_binding_callbacksE, symObjAddr: 0x11968, symBinAddr: 0x1813D8, symSize: 0x0 }
  - { offset: 0x49229, size: 0x8, addend: 0x0, symName: __ZN6sentry18SentryExperimental22_gde_binding_callbacksE, symObjAddr: 0x119C0, symBinAddr: 0x181430, symSize: 0x0 }
  - { offset: 0x49567, size: 0x8, addend: 0x0, symName: __ZN6sentry13SentryOptions22_gde_binding_callbacksE, symObjAddr: 0x11A18, symBinAddr: 0x181488, symSize: 0x0 }
  - { offset: 0x4957B, size: 0x8, addend: 0x0, symName: __ZN6sentry13RuntimeConfig22_gde_binding_callbacksE, symObjAddr: 0x11A30, symBinAddr: 0x1814A0, symSize: 0x0 }
  - { offset: 0x495C1, size: 0x8, addend: 0x0, symName: __ZN6sentry10SentryUser22_gde_binding_callbacksE, symObjAddr: 0x11A48, symBinAddr: 0x1814B8, symSize: 0x0 }
  - { offset: 0x495E9, size: 0x8, addend: 0x0, symName: __ZN6sentry15SentryTimestamp22_gde_binding_callbacksE, symObjAddr: 0x11AA0, symBinAddr: 0x181510, symSize: 0x0 }
  - { offset: 0x495FD, size: 0x8, addend: 0x0, symName: __ZN6sentry12SentryLogger22_gde_binding_callbacksE, symObjAddr: 0x11AF8, symBinAddr: 0x181568, symSize: 0x0 }
  - { offset: 0x49625, size: 0x8, addend: 0x0, symName: __ZN6sentry13SentryMetrics22_gde_binding_callbacksE, symObjAddr: 0x11B10, symBinAddr: 0x181580, symSize: 0x0 }
  - { offset: 0x4964D, size: 0x8, addend: 0x0, symName: __ZN6sentry10SentryUnit22_gde_binding_callbacksE, symObjAddr: 0x11B68, symBinAddr: 0x1815D8, symSize: 0x0 }
  - { offset: 0x4967A, size: 0x8, addend: 0x0, symName: __ZN6sentry14SentryFeedback22_gde_binding_callbacksE, symObjAddr: 0x11BC0, symBinAddr: 0x181630, symSize: 0x0 }
  - { offset: 0x496A2, size: 0x8, addend: 0x0, symName: __ZN6sentry9SentrySDK22_gde_binding_callbacksE, symObjAddr: 0x11C18, symBinAddr: 0x181688, symSize: 0x0 }
  - { offset: 0x49F6D, size: 0x8, addend: 0x0, symName: __ZN6sentry16SentryAttachment22_gde_binding_callbacksE, symObjAddr: 0x11C30, symBinAddr: 0x1816A0, symSize: 0x0 }
  - { offset: 0x49F81, size: 0x8, addend: 0x0, symName: __ZN6sentry11SentryEvent22_gde_binding_callbacksE, symObjAddr: 0x11C88, symBinAddr: 0x1816F8, symSize: 0x0 }
  - { offset: 0x49F95, size: 0x8, addend: 0x0, symName: __ZN6sentry16SentryBreadcrumb22_gde_binding_callbacksE, symObjAddr: 0x11CA0, symBinAddr: 0x181710, symSize: 0x0 }
  - { offset: 0x49FBD, size: 0x8, addend: 0x0, symName: __ZN6sentry9SentryLog22_gde_binding_callbacksE, symObjAddr: 0x11CB8, symBinAddr: 0x181728, symSize: 0x0 }
  - { offset: 0x49FE5, size: 0x8, addend: 0x0, symName: __ZN6sentry12SentryMetric22_gde_binding_callbacksE, symObjAddr: 0x11CD0, symBinAddr: 0x181740, symSize: 0x0 }
  - { offset: 0x4A00D, size: 0x8, addend: 0x0, symName: __ZN6sentry13DisabledEvent22_gde_binding_callbacksE, symObjAddr: 0x11CE8, symBinAddr: 0x181758, symSize: 0x0 }
  - { offset: 0x4A035, size: 0x8, addend: 0x0, symName: __ZN6sentry20SentryEventProcessor22_gde_binding_callbacksE, symObjAddr: 0x11E28, symBinAddr: 0x181898, symSize: 0x0 }
  - { offset: 0x4A049, size: 0x8, addend: 0x0, symName: __ZN6sentry19ScreenshotProcessor22_gde_binding_callbacksE, symObjAddr: 0x11E88, symBinAddr: 0x1818F8, symSize: 0x0 }
  - { offset: 0x4A071, size: 0x8, addend: 0x0, symName: __ZN6sentry22ViewHierarchyProcessor22_gde_binding_callbacksE, symObjAddr: 0x11EA0, symBinAddr: 0x181910, symSize: 0x0 }
  - { offset: 0x4A0A8, size: 0x8, addend: 0x0, symName: __ZN6sentry7logging17SentryGodotLogger22_gde_binding_callbacksE, symObjAddr: 0x11EB8, symBinAddr: 0x181928, symSize: 0x0 }
  - { offset: 0x4A0BC, size: 0x8, addend: 0x0, symName: __ZN6sentry5cocoa10CocoaEvent22_gde_binding_callbacksE, symObjAddr: 0x11ED0, symBinAddr: 0x181940, symSize: 0x0 }
  - { offset: 0x4A104, size: 0x8, addend: 0x0, symName: __ZN6sentry5cocoa15CocoaBreadcrumb22_gde_binding_callbacksE, symObjAddr: 0x11EE8, symBinAddr: 0x181958, symSize: 0x0 }
  - { offset: 0x4A131, size: 0x8, addend: 0x0, symName: __ZN6sentry5cocoa8CocoaLog22_gde_binding_callbacksE, symObjAddr: 0x11F00, symBinAddr: 0x181970, symSize: 0x0 }
  - { offset: 0x4C4B6, size: 0x8, addend: 0x0, symName: ___cxx_global_var_init, symObjAddr: 0x10DD0, symBinAddr: 0x1189C, symSize: 0x4C }
  - { offset: 0x4C53B, size: 0x8, addend: 0x0, symName: ___cxx_global_var_init.1, symObjAddr: 0x10E1C, symBinAddr: 0x118E8, symSize: 0x4C }
  - { offset: 0x4C5C0, size: 0x8, addend: 0x0, symName: ___cxx_global_var_init.2, symObjAddr: 0x10E68, symBinAddr: 0x11934, symSize: 0x4C }
  - { offset: 0x4C645, size: 0x8, addend: 0x0, symName: ___cxx_global_var_init.3, symObjAddr: 0x10EB4, symBinAddr: 0x11980, symSize: 0x4C }
  - { offset: 0x4C6CA, size: 0x8, addend: 0x0, symName: ___cxx_global_var_init.4, symObjAddr: 0x10F00, symBinAddr: 0x119CC, symSize: 0x4C }
  - { offset: 0x4C74F, size: 0x8, addend: 0x0, symName: ___cxx_global_var_init.5, symObjAddr: 0x10F4C, symBinAddr: 0x11A18, symSize: 0x4C }
  - { offset: 0x4C7D4, size: 0x8, addend: 0x0, symName: ___cxx_global_var_init.6, symObjAddr: 0x10F98, symBinAddr: 0x11A64, symSize: 0x4C }
  - { offset: 0x4C859, size: 0x8, addend: 0x0, symName: ___cxx_global_var_init.7, symObjAddr: 0x10FE4, symBinAddr: 0x11AB0, symSize: 0x4C }
  - { offset: 0x4C8DE, size: 0x8, addend: 0x0, symName: ___cxx_global_var_init.8, symObjAddr: 0x11030, symBinAddr: 0x11AFC, symSize: 0x4C }
  - { offset: 0x4C963, size: 0x8, addend: 0x0, symName: ___cxx_global_var_init.9, symObjAddr: 0x1107C, symBinAddr: 0x11B48, symSize: 0x4C }
  - { offset: 0x4C9E8, size: 0x8, addend: 0x0, symName: ___cxx_global_var_init.10, symObjAddr: 0x110C8, symBinAddr: 0x11B94, symSize: 0x4C }
  - { offset: 0x4CA6D, size: 0x8, addend: 0x0, symName: ___cxx_global_var_init.11, symObjAddr: 0x11114, symBinAddr: 0x11BE0, symSize: 0x4C }
  - { offset: 0x4CAF2, size: 0x8, addend: 0x0, symName: ___cxx_global_var_init.12, symObjAddr: 0x11160, symBinAddr: 0x11C2C, symSize: 0x4C }
  - { offset: 0x4CB77, size: 0x8, addend: 0x0, symName: ___cxx_global_var_init.13, symObjAddr: 0x111AC, symBinAddr: 0x11C78, symSize: 0x4C }
  - { offset: 0x4CDDC, size: 0x8, addend: 0x0, symName: __Z24register_runtime_classesv, symObjAddr: 0x0, symBinAddr: 0x4000, symSize: 0x18C }
  - { offset: 0x4D30F, size: 0x8, addend: 0x0, symName: __ZN5godot7ClassDB15_register_classIN6sentry18SentryLoggerLimitsELb0EEEvbbb, symObjAddr: 0x163C, symBinAddr: 0x563C, symSize: 0x32C }
  - { offset: 0x4DBD8, size: 0x8, addend: 0x0, symName: __ZN5godot7ClassDB15_register_classIN6sentry18SentryExperimentalELb0EEEvbbb, symObjAddr: 0x4004, symBinAddr: 0x8004, symSize: 0x32C }
  - { offset: 0x4E4A1, size: 0x8, addend: 0x0, symName: __ZN5godot7ClassDB15_register_classIN6sentry13SentryOptionsELb0EEEvbbb, symObjAddr: 0x4798, symBinAddr: 0x8798, symSize: 0x32C }
  - { offset: 0x4ED6A, size: 0x8, addend: 0x0, symName: __ZN5godot7ClassDB15_register_classIN6sentry13RuntimeConfigELb0EEEvbbb, symObjAddr: 0x4D8C, symBinAddr: 0x8D8C, symSize: 0x328 }
  - { offset: 0x4F633, size: 0x8, addend: 0x0, symName: __ZN5godot7ClassDB15_register_classIN6sentry10SentryUserELb0EEEvbbb, symObjAddr: 0x537C, symBinAddr: 0x937C, symSize: 0x32C }
  - { offset: 0x4FEFC, size: 0x8, addend: 0x0, symName: __ZN5godot7ClassDB15_register_classIN6sentry15SentryTimestampELb0EEEvbbb, symObjAddr: 0x5AD4, symBinAddr: 0x9AD4, symSize: 0x32C }
  - { offset: 0x507C5, size: 0x8, addend: 0x0, symName: __ZN5godot7ClassDB15_register_classIN6sentry12SentryLoggerELb0EEEvbbb, symObjAddr: 0x6238, symBinAddr: 0xA238, symSize: 0x32C }
  - { offset: 0x5108E, size: 0x8, addend: 0x0, symName: __ZN5godot7ClassDB15_register_classIN6sentry13SentryMetricsELb0EEEvbbb, symObjAddr: 0x682C, symBinAddr: 0xA82C, symSize: 0x32C }
  - { offset: 0x51957, size: 0x8, addend: 0x0, symName: __ZN5godot7ClassDB15_register_classIN6sentry10SentryUnitELb0EEEvbbb, symObjAddr: 0x6F8C, symBinAddr: 0xAF8C, symSize: 0x32C }
  - { offset: 0x52220, size: 0x8, addend: 0x0, symName: __ZN5godot7ClassDB15_register_classIN6sentry14SentryFeedbackELb0EEEvbbb, symObjAddr: 0x76EC, symBinAddr: 0xB6EC, symSize: 0x32C }
  - { offset: 0x52AE9, size: 0x8, addend: 0x0, symName: __ZN5godot7ClassDB15_register_classIN6sentry9SentrySDKELb0EEEvbbb, symObjAddr: 0x7E44, symBinAddr: 0xBE44, symSize: 0x32C }
  - { offset: 0x533B2, size: 0x8, addend: 0x0, symName: __ZN5godot7ClassDB15_register_classIN6sentry16SentryAttachmentELb1EEEvbbb, symObjAddr: 0x8440, symBinAddr: 0xC440, symSize: 0x330 }
  - { offset: 0x53C7B, size: 0x8, addend: 0x0, symName: __ZN5godot7ClassDB15_register_classIN6sentry11SentryEventELb1EEEvbbb, symObjAddr: 0x8BAC, symBinAddr: 0xCBAC, symSize: 0x330 }
  - { offset: 0x54544, size: 0x8, addend: 0x0, symName: __ZN5godot7ClassDB15_register_classIN6sentry16SentryBreadcrumbELb1EEEvbbb, symObjAddr: 0x912C, symBinAddr: 0xD12C, symSize: 0x330 }
  - { offset: 0x54E0D, size: 0x8, addend: 0x0, symName: __ZN5godot7ClassDB15_register_classIN6sentry9SentryLogELb1EEEvbbb, symObjAddr: 0x96AC, symBinAddr: 0xD6AC, symSize: 0x330 }
  - { offset: 0x556D6, size: 0x8, addend: 0x0, symName: __ZN5godot7ClassDB15_register_classIN6sentry12SentryMetricELb1EEEvbbb, symObjAddr: 0x9C2C, symBinAddr: 0xDC2C, symSize: 0x330 }
  - { offset: 0x55F9F, size: 0x8, addend: 0x0, symName: __ZN5godot7ClassDB15_register_classIN6sentry13DisabledEventELb0EEEvbbb, symObjAddr: 0xA1AC, symBinAddr: 0xE1AC, symSize: 0x338 }
  - { offset: 0x5687E, size: 0x8, addend: 0x0, symName: __ZN5godot7ClassDB15_register_classIN6sentry20SentryEventProcessorELb0EEEvbbb, symObjAddr: 0xAA84, symBinAddr: 0xEA84, symSize: 0x32C }
  - { offset: 0x57147, size: 0x8, addend: 0x0, symName: __ZN5godot7ClassDB15_register_classIN6sentry19ScreenshotProcessorELb0EEEvbbb, symObjAddr: 0xB1FC, symBinAddr: 0xF1FC, symSize: 0x338 }
  - { offset: 0x57A26, size: 0x8, addend: 0x0, symName: __ZN5godot7ClassDB15_register_classIN6sentry22ViewHierarchyProcessorELb0EEEvbbb, symObjAddr: 0xB7CC, symBinAddr: 0xF7CC, symSize: 0x338 }
  - { offset: 0x58305, size: 0x8, addend: 0x0, symName: __ZN5godot7ClassDB15_register_classIN6sentry7logging17SentryGodotLoggerELb0EEEvbbb, symObjAddr: 0xBD9C, symBinAddr: 0xFD9C, symSize: 0x330 }
  - { offset: 0x58BDB, size: 0x8, addend: 0x0, symName: __ZN5godot7ClassDB15_register_classIN6sentry5cocoa10CocoaEventELb0EEEvbbb, symObjAddr: 0xC6D8, symBinAddr: 0x106D8, symSize: 0x338 }
  - { offset: 0x594BA, size: 0x8, addend: 0x0, symName: __ZN5godot7ClassDB15_register_classIN6sentry5cocoa15CocoaBreadcrumbELb0EEEvbbb, symObjAddr: 0xCCA8, symBinAddr: 0x10CA8, symSize: 0x338 }
  - { offset: 0x59D99, size: 0x8, addend: 0x0, symName: __ZN5godot7ClassDB15_register_classIN6sentry5cocoa8CocoaLogELb0EEEvbbb, symObjAddr: 0xD278, symBinAddr: 0x11278, symSize: 0x338 }
  - { offset: 0x5A678, size: 0x8, addend: 0x0, symName: __Z23register_editor_classesv, symObjAddr: 0x18C, symBinAddr: 0x418C, symSize: 0x4 }
  - { offset: 0x5A698, size: 0x8, addend: 0x0, symName: __Z17initialize_moduleN5godot25ModuleInitializationLevelE, symObjAddr: 0x190, symBinAddr: 0x4190, symSize: 0x34 }
  - { offset: 0x5A6E3, size: 0x8, addend: 0x0, symName: __Z19uninitialize_moduleN5godot25ModuleInitializationLevelE, symObjAddr: 0x1C4, symBinAddr: 0x41C4, symSize: 0x20 }
  - { offset: 0x5A70D, size: 0x8, addend: 0x0, symName: _sentry_gdextension_init, symObjAddr: 0x1E4, symBinAddr: 0x41E4, symSize: 0x60 }
  - { offset: 0x5A76B, size: 0x8, addend: 0x0, symName: __ZN5godot8internal23EngineClassRegistrationINS_6ObjectEE8callbackEv, symObjAddr: 0x244, symBinAddr: 0x4244, symSize: 0x48 }
  - { offset: 0x5A7B5, size: 0x8, addend: 0x0, symName: __ZN5godot8internal23EngineClassRegistrationINS_6ObjectEE8callbackEv.cold.1, symObjAddr: 0xD848, symBinAddr: 0xF8C44, symSize: 0x5C }
  - { offset: 0x5A82D, size: 0x8, addend: 0x0, symName: __ZN5godot6Object28_gde_binding_create_callbackEPvS1_, symObjAddr: 0x28C, symBinAddr: 0x428C, symSize: 0x44 }
  - { offset: 0x5A8A6, size: 0x8, addend: 0x0, symName: __ZN5godot6Object26_gde_binding_free_callbackEPvS1_S1_, symObjAddr: 0x2D0, symBinAddr: 0x42D0, symSize: 0x34 }
  - { offset: 0x5A8FB, size: 0x8, addend: 0x0, symName: __ZN5godot6Object31_gde_binding_reference_callbackEPvS1_h, symObjAddr: 0x304, symBinAddr: 0x4304, symSize: 0x8 }
  - { offset: 0x5A93B, size: 0x8, addend: 0x0, symName: __ZNK5godot7Wrapped19_is_extension_classEv, symObjAddr: 0x30C, symBinAddr: 0x430C, symSize: 0x8 }
  - { offset: 0x5AA41, size: 0x8, addend: 0x0, symName: __ZN5godot6ObjectD1Ev, symObjAddr: 0x314, symBinAddr: 0x4314, symSize: 0x8C }
  - { offset: 0x5ABB3, size: 0x8, addend: 0x0, symName: __ZN5godot4ListINS_12PropertyInfoENS_16DefaultAllocatorEE5_Data5eraseEPNS3_7ElementE, symObjAddr: 0x514, symBinAddr: 0x4514, symSize: 0xE4 }
  - { offset: 0x5ACAB, size: 0x8, addend: 0x0, symName: __ZN5godot6ObjectD1Ev.cold.1, symObjAddr: 0xD8A4, symBinAddr: 0xF8CA0, symSize: 0x1C }
  - { offset: 0x5ACC6, size: 0x8, addend: 0x0, symName: __ZN5godot6ObjectD1Ev.cold.1, symObjAddr: 0xD8A4, symBinAddr: 0xF8CA0, symSize: 0x1C }
  - { offset: 0x5ACDA, size: 0x8, addend: 0x0, symName: __ZN5godot6ObjectD1Ev.cold.1, symObjAddr: 0xD8A4, symBinAddr: 0xF8CA0, symSize: 0x1C }
  - { offset: 0x5ACEE, size: 0x8, addend: 0x0, symName: __ZN5godot6ObjectD1Ev.cold.1, symObjAddr: 0xD8A4, symBinAddr: 0xF8CA0, symSize: 0x1C }
  - { offset: 0x5AD03, size: 0x8, addend: 0x0, symName: __ZN5godot6ObjectD1Ev.cold.1, symObjAddr: 0xD8A4, symBinAddr: 0xF8CA0, symSize: 0x1C }
  - { offset: 0x5AD33, size: 0x8, addend: 0x0, symName: __ZN5godot6ObjectD0Ev, symObjAddr: 0x3A0, symBinAddr: 0x43A0, symSize: 0x74 }
  - { offset: 0x5AE50, size: 0x8, addend: 0x0, symName: __ZN5godot6ObjectD0Ev.cold.1, symObjAddr: 0xD8C0, symBinAddr: 0xF8CBC, symSize: 0x1C }
  - { offset: 0x5AE6B, size: 0x8, addend: 0x0, symName: __ZN5godot6ObjectD0Ev.cold.1, symObjAddr: 0xD8C0, symBinAddr: 0xF8CBC, symSize: 0x1C }
  - { offset: 0x5AE7F, size: 0x8, addend: 0x0, symName: __ZN5godot6ObjectD0Ev.cold.1, symObjAddr: 0xD8C0, symBinAddr: 0xF8CBC, symSize: 0x1C }
  - { offset: 0x5AE93, size: 0x8, addend: 0x0, symName: __ZN5godot6ObjectD0Ev.cold.1, symObjAddr: 0xD8C0, symBinAddr: 0xF8CBC, symSize: 0x1C }
  - { offset: 0x5AEA7, size: 0x8, addend: 0x0, symName: __ZN5godot6ObjectD0Ev.cold.1, symObjAddr: 0xD8C0, symBinAddr: 0xF8CBC, symSize: 0x1C }
  - { offset: 0x5AEBC, size: 0x8, addend: 0x0, symName: __ZN5godot6ObjectD0Ev.cold.1, symObjAddr: 0xD8C0, symBinAddr: 0xF8CBC, symSize: 0x1C }
  - { offset: 0x5AED3, size: 0x8, addend: 0x0, symName: __ZN5godot7WrappedD1Ev, symObjAddr: 0x414, symBinAddr: 0x4414, symSize: 0x8C }
  - { offset: 0x5B02F, size: 0x8, addend: 0x0, symName: __ZN5godot7WrappedD1Ev.cold.1, symObjAddr: 0xD8DC, symBinAddr: 0xF8CD8, symSize: 0x1C }
  - { offset: 0x5B04A, size: 0x8, addend: 0x0, symName: __ZN5godot7WrappedD1Ev.cold.1, symObjAddr: 0xD8DC, symBinAddr: 0xF8CD8, symSize: 0x1C }
  - { offset: 0x5B05E, size: 0x8, addend: 0x0, symName: __ZN5godot7WrappedD1Ev.cold.1, symObjAddr: 0xD8DC, symBinAddr: 0xF8CD8, symSize: 0x1C }
  - { offset: 0x5B073, size: 0x8, addend: 0x0, symName: __ZN5godot7WrappedD1Ev.cold.1, symObjAddr: 0xD8DC, symBinAddr: 0xF8CD8, symSize: 0x1C }
  - { offset: 0x5B0A2, size: 0x8, addend: 0x0, symName: __ZN5godot7WrappedD0Ev, symObjAddr: 0x4A0, symBinAddr: 0x44A0, symSize: 0x74 }
  - { offset: 0x5B1A9, size: 0x8, addend: 0x0, symName: __ZN5godot7WrappedD0Ev.cold.1, symObjAddr: 0xD8F8, symBinAddr: 0xF8CF4, symSize: 0x1C }
  - { offset: 0x5B1C4, size: 0x8, addend: 0x0, symName: __ZN5godot7WrappedD0Ev.cold.1, symObjAddr: 0xD8F8, symBinAddr: 0xF8CF4, symSize: 0x1C }
  - { offset: 0x5B1D8, size: 0x8, addend: 0x0, symName: __ZN5godot7WrappedD0Ev.cold.1, symObjAddr: 0xD8F8, symBinAddr: 0xF8CF4, symSize: 0x1C }
  - { offset: 0x5B1EC, size: 0x8, addend: 0x0, symName: __ZN5godot7WrappedD0Ev.cold.1, symObjAddr: 0xD8F8, symBinAddr: 0xF8CF4, symSize: 0x1C }
  - { offset: 0x5B201, size: 0x8, addend: 0x0, symName: __ZN5godot7WrappedD0Ev.cold.1, symObjAddr: 0xD8F8, symBinAddr: 0xF8CF4, symSize: 0x1C }
  - { offset: 0x5B287, size: 0x8, addend: 0x0, symName: __ZN5godot4ListINS_12PropertyInfoENS_16DefaultAllocatorEE5_Data5eraseEPNS3_7ElementE.cold.2, symObjAddr: 0xD934, symBinAddr: 0xF8D30, symSize: 0x20 }
  - { offset: 0x5B29F, size: 0x8, addend: 0x0, symName: __ZN5godot4ListINS_12PropertyInfoENS_16DefaultAllocatorEE5_Data5eraseEPNS3_7ElementE.cold.1, symObjAddr: 0xD914, symBinAddr: 0xF8D10, symSize: 0x20 }
  - { offset: 0x5B2BE, size: 0x8, addend: 0x0, symName: __ZN5godot8internal23EngineClassRegistrationINS_16ClassDBSingletonEE8callbackEv, symObjAddr: 0x5F8, symBinAddr: 0x45F8, symSize: 0x48 }
  - { offset: 0x5B308, size: 0x8, addend: 0x0, symName: __ZN5godot8internal23EngineClassRegistrationINS_16ClassDBSingletonEE8callbackEv.cold.1, symObjAddr: 0xD954, symBinAddr: 0xF8D50, symSize: 0x5C }
  - { offset: 0x5B380, size: 0x8, addend: 0x0, symName: __ZN5godot16ClassDBSingleton28_gde_binding_create_callbackEPvS1_, symObjAddr: 0x640, symBinAddr: 0x4640, symSize: 0x48 }
  - { offset: 0x5B41C, size: 0x8, addend: 0x0, symName: __ZN5godot16ClassDBSingleton26_gde_binding_free_callbackEPvS1_S1_, symObjAddr: 0x688, symBinAddr: 0x4688, symSize: 0x34 }
  - { offset: 0x5B471, size: 0x8, addend: 0x0, symName: __ZN5godot16ClassDBSingleton31_gde_binding_reference_callbackEPvS1_h, symObjAddr: 0x6BC, symBinAddr: 0x46BC, symSize: 0x8 }
  - { offset: 0x5B4B8, size: 0x8, addend: 0x0, symName: __ZN5godot8internal23EngineClassRegistrationINS_10RefCountedEE8callbackEv, symObjAddr: 0x6C4, symBinAddr: 0x46C4, symSize: 0x48 }
  - { offset: 0x5B502, size: 0x8, addend: 0x0, symName: __ZN5godot8internal23EngineClassRegistrationINS_10RefCountedEE8callbackEv.cold.1, symObjAddr: 0xD9B0, symBinAddr: 0xF8DAC, symSize: 0x5C }
  - { offset: 0x5B57A, size: 0x8, addend: 0x0, symName: __ZN5godot10RefCounted28_gde_binding_create_callbackEPvS1_, symObjAddr: 0x70C, symBinAddr: 0x470C, symSize: 0x44 }
  - { offset: 0x5B616, size: 0x8, addend: 0x0, symName: __ZN5godot10RefCounted26_gde_binding_free_callbackEPvS1_S1_, symObjAddr: 0x750, symBinAddr: 0x4750, symSize: 0x34 }
  - { offset: 0x5B66B, size: 0x8, addend: 0x0, symName: __ZN5godot10RefCounted31_gde_binding_reference_callbackEPvS1_h, symObjAddr: 0x784, symBinAddr: 0x4784, symSize: 0x8 }
  - { offset: 0x5B6C7, size: 0x8, addend: 0x0, symName: __ZN5godot10RefCountedD1Ev, symObjAddr: 0x78C, symBinAddr: 0x478C, symSize: 0x8C }
  - { offset: 0x5B84F, size: 0x8, addend: 0x0, symName: __ZN5godot10RefCountedD1Ev.cold.1, symObjAddr: 0xDA0C, symBinAddr: 0xF8E08, symSize: 0x1C }
  - { offset: 0x5B86A, size: 0x8, addend: 0x0, symName: __ZN5godot10RefCountedD1Ev.cold.1, symObjAddr: 0xDA0C, symBinAddr: 0xF8E08, symSize: 0x1C }
  - { offset: 0x5B87E, size: 0x8, addend: 0x0, symName: __ZN5godot10RefCountedD1Ev.cold.1, symObjAddr: 0xDA0C, symBinAddr: 0xF8E08, symSize: 0x1C }
  - { offset: 0x5B892, size: 0x8, addend: 0x0, symName: __ZN5godot10RefCountedD1Ev.cold.1, symObjAddr: 0xDA0C, symBinAddr: 0xF8E08, symSize: 0x1C }
  - { offset: 0x5B8A6, size: 0x8, addend: 0x0, symName: __ZN5godot10RefCountedD1Ev.cold.1, symObjAddr: 0xDA0C, symBinAddr: 0xF8E08, symSize: 0x1C }
  - { offset: 0x5B8BB, size: 0x8, addend: 0x0, symName: __ZN5godot10RefCountedD1Ev.cold.1, symObjAddr: 0xDA0C, symBinAddr: 0xF8E08, symSize: 0x1C }
  - { offset: 0x5B8EE, size: 0x8, addend: 0x0, symName: __ZN5godot10RefCountedD0Ev, symObjAddr: 0x818, symBinAddr: 0x4818, symSize: 0x74 }
  - { offset: 0x5BA23, size: 0x8, addend: 0x0, symName: __ZN5godot10RefCountedD0Ev.cold.1, symObjAddr: 0xDA28, symBinAddr: 0xF8E24, symSize: 0x1C }
  - { offset: 0x5BA3E, size: 0x8, addend: 0x0, symName: __ZN5godot10RefCountedD0Ev.cold.1, symObjAddr: 0xDA28, symBinAddr: 0xF8E24, symSize: 0x1C }
  - { offset: 0x5BA52, size: 0x8, addend: 0x0, symName: __ZN5godot10RefCountedD0Ev.cold.1, symObjAddr: 0xDA28, symBinAddr: 0xF8E24, symSize: 0x1C }
  - { offset: 0x5BA66, size: 0x8, addend: 0x0, symName: __ZN5godot10RefCountedD0Ev.cold.1, symObjAddr: 0xDA28, symBinAddr: 0xF8E24, symSize: 0x1C }
  - { offset: 0x5BA7A, size: 0x8, addend: 0x0, symName: __ZN5godot10RefCountedD0Ev.cold.1, symObjAddr: 0xDA28, symBinAddr: 0xF8E24, symSize: 0x1C }
  - { offset: 0x5BA8E, size: 0x8, addend: 0x0, symName: __ZN5godot10RefCountedD0Ev.cold.1, symObjAddr: 0xDA28, symBinAddr: 0xF8E24, symSize: 0x1C }
  - { offset: 0x5BAA3, size: 0x8, addend: 0x0, symName: __ZN5godot10RefCountedD0Ev.cold.1, symObjAddr: 0xDA28, symBinAddr: 0xF8E24, symSize: 0x1C }
  - { offset: 0x5BAC2, size: 0x8, addend: 0x0, symName: __ZN5godot8internal23EngineClassRegistrationINS_6LoggerEE8callbackEv, symObjAddr: 0x88C, symBinAddr: 0x488C, symSize: 0x48 }
  - { offset: 0x5BB0C, size: 0x8, addend: 0x0, symName: __ZN5godot8internal23EngineClassRegistrationINS_6LoggerEE8callbackEv.cold.1, symObjAddr: 0xDA44, symBinAddr: 0xF8E40, symSize: 0x5C }
  - { offset: 0x5BB84, size: 0x8, addend: 0x0, symName: __ZN5godot6Logger28_gde_binding_create_callbackEPvS1_, symObjAddr: 0x8D4, symBinAddr: 0x48D4, symSize: 0x48 }
  - { offset: 0x5BC43, size: 0x8, addend: 0x0, symName: __ZN5godot6Logger26_gde_binding_free_callbackEPvS1_S1_, symObjAddr: 0x91C, symBinAddr: 0x491C, symSize: 0x34 }
  - { offset: 0x5BC98, size: 0x8, addend: 0x0, symName: __ZN5godot6Logger31_gde_binding_reference_callbackEPvS1_h, symObjAddr: 0x950, symBinAddr: 0x4950, symSize: 0x8 }
  - { offset: 0x5BCDF, size: 0x8, addend: 0x0, symName: __ZN5godot8internal23EngineClassRegistrationINS_15ScriptBacktraceEE8callbackEv, symObjAddr: 0x958, symBinAddr: 0x4958, symSize: 0x48 }
  - { offset: 0x5BD29, size: 0x8, addend: 0x0, symName: __ZN5godot8internal23EngineClassRegistrationINS_15ScriptBacktraceEE8callbackEv.cold.1, symObjAddr: 0xDAA0, symBinAddr: 0xF8E9C, symSize: 0x5C }
  - { offset: 0x5BDA1, size: 0x8, addend: 0x0, symName: __ZN5godot15ScriptBacktrace28_gde_binding_create_callbackEPvS1_, symObjAddr: 0x9A0, symBinAddr: 0x49A0, symSize: 0x44 }
  - { offset: 0x5BE60, size: 0x8, addend: 0x0, symName: __ZN5godot15ScriptBacktrace26_gde_binding_free_callbackEPvS1_S1_, symObjAddr: 0x9E4, symBinAddr: 0x49E4, symSize: 0x34 }
  - { offset: 0x5BEB5, size: 0x8, addend: 0x0, symName: __ZN5godot15ScriptBacktrace31_gde_binding_reference_callbackEPvS1_h, symObjAddr: 0xA18, symBinAddr: 0x4A18, symSize: 0x8 }
  - { offset: 0x5BF11, size: 0x8, addend: 0x0, symName: __ZN5godot15ScriptBacktraceD1Ev, symObjAddr: 0xA20, symBinAddr: 0x4A20, symSize: 0x8C }
  - { offset: 0x5C0AF, size: 0x8, addend: 0x0, symName: __ZN5godot15ScriptBacktraceD1Ev.cold.1, symObjAddr: 0xDAFC, symBinAddr: 0xF8EF8, symSize: 0x1C }
  - { offset: 0x5C0CA, size: 0x8, addend: 0x0, symName: __ZN5godot15ScriptBacktraceD1Ev.cold.1, symObjAddr: 0xDAFC, symBinAddr: 0xF8EF8, symSize: 0x1C }
  - { offset: 0x5C0DE, size: 0x8, addend: 0x0, symName: __ZN5godot15ScriptBacktraceD1Ev.cold.1, symObjAddr: 0xDAFC, symBinAddr: 0xF8EF8, symSize: 0x1C }
  - { offset: 0x5C0F2, size: 0x8, addend: 0x0, symName: __ZN5godot15ScriptBacktraceD1Ev.cold.1, symObjAddr: 0xDAFC, symBinAddr: 0xF8EF8, symSize: 0x1C }
  - { offset: 0x5C106, size: 0x8, addend: 0x0, symName: __ZN5godot15ScriptBacktraceD1Ev.cold.1, symObjAddr: 0xDAFC, symBinAddr: 0xF8EF8, symSize: 0x1C }
  - { offset: 0x5C11A, size: 0x8, addend: 0x0, symName: __ZN5godot15ScriptBacktraceD1Ev.cold.1, symObjAddr: 0xDAFC, symBinAddr: 0xF8EF8, symSize: 0x1C }
  - { offset: 0x5C12F, size: 0x8, addend: 0x0, symName: __ZN5godot15ScriptBacktraceD1Ev.cold.1, symObjAddr: 0xDAFC, symBinAddr: 0xF8EF8, symSize: 0x1C }
  - { offset: 0x5C163, size: 0x8, addend: 0x0, symName: __ZN5godot15ScriptBacktraceD0Ev, symObjAddr: 0xAAC, symBinAddr: 0x4AAC, symSize: 0x74 }
  - { offset: 0x5C2AE, size: 0x8, addend: 0x0, symName: __ZN5godot15ScriptBacktraceD0Ev.cold.1, symObjAddr: 0xDB18, symBinAddr: 0xF8F14, symSize: 0x1C }
  - { offset: 0x5C2C9, size: 0x8, addend: 0x0, symName: __ZN5godot15ScriptBacktraceD0Ev.cold.1, symObjAddr: 0xDB18, symBinAddr: 0xF8F14, symSize: 0x1C }
  - { offset: 0x5C2DD, size: 0x8, addend: 0x0, symName: __ZN5godot15ScriptBacktraceD0Ev.cold.1, symObjAddr: 0xDB18, symBinAddr: 0xF8F14, symSize: 0x1C }
  - { offset: 0x5C2F1, size: 0x8, addend: 0x0, symName: __ZN5godot15ScriptBacktraceD0Ev.cold.1, symObjAddr: 0xDB18, symBinAddr: 0xF8F14, symSize: 0x1C }
  - { offset: 0x5C305, size: 0x8, addend: 0x0, symName: __ZN5godot15ScriptBacktraceD0Ev.cold.1, symObjAddr: 0xDB18, symBinAddr: 0xF8F14, symSize: 0x1C }
  - { offset: 0x5C319, size: 0x8, addend: 0x0, symName: __ZN5godot15ScriptBacktraceD0Ev.cold.1, symObjAddr: 0xDB18, symBinAddr: 0xF8F14, symSize: 0x1C }
  - { offset: 0x5C32D, size: 0x8, addend: 0x0, symName: __ZN5godot15ScriptBacktraceD0Ev.cold.1, symObjAddr: 0xDB18, symBinAddr: 0xF8F14, symSize: 0x1C }
  - { offset: 0x5C342, size: 0x8, addend: 0x0, symName: __ZN5godot15ScriptBacktraceD0Ev.cold.1, symObjAddr: 0xDB18, symBinAddr: 0xF8F14, symSize: 0x1C }
  - { offset: 0x5C362, size: 0x8, addend: 0x0, symName: __ZN5godot8internal23EngineClassRegistrationINS_10ConfigFileEE8callbackEv, symObjAddr: 0xB20, symBinAddr: 0x4B20, symSize: 0x48 }
  - { offset: 0x5C3AC, size: 0x8, addend: 0x0, symName: __ZN5godot8internal23EngineClassRegistrationINS_10ConfigFileEE8callbackEv.cold.1, symObjAddr: 0xDB34, symBinAddr: 0xF8F30, symSize: 0x5C }
  - { offset: 0x5C424, size: 0x8, addend: 0x0, symName: __ZN5godot10ConfigFile28_gde_binding_create_callbackEPvS1_, symObjAddr: 0xB68, symBinAddr: 0x4B68, symSize: 0x44 }
  - { offset: 0x5C4E3, size: 0x8, addend: 0x0, symName: __ZN5godot10ConfigFile26_gde_binding_free_callbackEPvS1_S1_, symObjAddr: 0xBAC, symBinAddr: 0x4BAC, symSize: 0x34 }
  - { offset: 0x5C538, size: 0x8, addend: 0x0, symName: __ZN5godot10ConfigFile31_gde_binding_reference_callbackEPvS1_h, symObjAddr: 0xBE0, symBinAddr: 0x4BE0, symSize: 0x8 }
  - { offset: 0x5C594, size: 0x8, addend: 0x0, symName: __ZN5godot10ConfigFileD1Ev, symObjAddr: 0xBE8, symBinAddr: 0x4BE8, symSize: 0x8C }
  - { offset: 0x5C732, size: 0x8, addend: 0x0, symName: __ZN5godot10ConfigFileD1Ev.cold.1, symObjAddr: 0xDB90, symBinAddr: 0xF8F8C, symSize: 0x1C }
  - { offset: 0x5C74D, size: 0x8, addend: 0x0, symName: __ZN5godot10ConfigFileD1Ev.cold.1, symObjAddr: 0xDB90, symBinAddr: 0xF8F8C, symSize: 0x1C }
  - { offset: 0x5C761, size: 0x8, addend: 0x0, symName: __ZN5godot10ConfigFileD1Ev.cold.1, symObjAddr: 0xDB90, symBinAddr: 0xF8F8C, symSize: 0x1C }
  - { offset: 0x5C775, size: 0x8, addend: 0x0, symName: __ZN5godot10ConfigFileD1Ev.cold.1, symObjAddr: 0xDB90, symBinAddr: 0xF8F8C, symSize: 0x1C }
  - { offset: 0x5C789, size: 0x8, addend: 0x0, symName: __ZN5godot10ConfigFileD1Ev.cold.1, symObjAddr: 0xDB90, symBinAddr: 0xF8F8C, symSize: 0x1C }
  - { offset: 0x5C79D, size: 0x8, addend: 0x0, symName: __ZN5godot10ConfigFileD1Ev.cold.1, symObjAddr: 0xDB90, symBinAddr: 0xF8F8C, symSize: 0x1C }
  - { offset: 0x5C7B2, size: 0x8, addend: 0x0, symName: __ZN5godot10ConfigFileD1Ev.cold.1, symObjAddr: 0xDB90, symBinAddr: 0xF8F8C, symSize: 0x1C }
  - { offset: 0x5C7E6, size: 0x8, addend: 0x0, symName: __ZN5godot10ConfigFileD0Ev, symObjAddr: 0xC74, symBinAddr: 0x4C74, symSize: 0x74 }
  - { offset: 0x5C931, size: 0x8, addend: 0x0, symName: __ZN5godot10ConfigFileD0Ev.cold.1, symObjAddr: 0xDBAC, symBinAddr: 0xF8FA8, symSize: 0x1C }
  - { offset: 0x5C94C, size: 0x8, addend: 0x0, symName: __ZN5godot10ConfigFileD0Ev.cold.1, symObjAddr: 0xDBAC, symBinAddr: 0xF8FA8, symSize: 0x1C }
  - { offset: 0x5C960, size: 0x8, addend: 0x0, symName: __ZN5godot10ConfigFileD0Ev.cold.1, symObjAddr: 0xDBAC, symBinAddr: 0xF8FA8, symSize: 0x1C }
  - { offset: 0x5C974, size: 0x8, addend: 0x0, symName: __ZN5godot10ConfigFileD0Ev.cold.1, symObjAddr: 0xDBAC, symBinAddr: 0xF8FA8, symSize: 0x1C }
  - { offset: 0x5C988, size: 0x8, addend: 0x0, symName: __ZN5godot10ConfigFileD0Ev.cold.1, symObjAddr: 0xDBAC, symBinAddr: 0xF8FA8, symSize: 0x1C }
  - { offset: 0x5C99C, size: 0x8, addend: 0x0, symName: __ZN5godot10ConfigFileD0Ev.cold.1, symObjAddr: 0xDBAC, symBinAddr: 0xF8FA8, symSize: 0x1C }
  - { offset: 0x5C9B0, size: 0x8, addend: 0x0, symName: __ZN5godot10ConfigFileD0Ev.cold.1, symObjAddr: 0xDBAC, symBinAddr: 0xF8FA8, symSize: 0x1C }
  - { offset: 0x5C9C5, size: 0x8, addend: 0x0, symName: __ZN5godot10ConfigFileD0Ev.cold.1, symObjAddr: 0xDBAC, symBinAddr: 0xF8FA8, symSize: 0x1C }
  - { offset: 0x5C9E5, size: 0x8, addend: 0x0, symName: __ZN5godot8internal23EngineClassRegistrationINS_5MutexEE8callbackEv, symObjAddr: 0xCE8, symBinAddr: 0x4CE8, symSize: 0x48 }
  - { offset: 0x5CA2F, size: 0x8, addend: 0x0, symName: __ZN5godot8internal23EngineClassRegistrationINS_5MutexEE8callbackEv.cold.1, symObjAddr: 0xDBC8, symBinAddr: 0xF8FC4, symSize: 0x5C }
  - { offset: 0x5CAA7, size: 0x8, addend: 0x0, symName: __ZN5godot5Mutex28_gde_binding_create_callbackEPvS1_, symObjAddr: 0xD30, symBinAddr: 0x4D30, symSize: 0x44 }
  - { offset: 0x5CB66, size: 0x8, addend: 0x0, symName: __ZN5godot5Mutex26_gde_binding_free_callbackEPvS1_S1_, symObjAddr: 0xD74, symBinAddr: 0x4D74, symSize: 0x34 }
  - { offset: 0x5CBBB, size: 0x8, addend: 0x0, symName: __ZN5godot5Mutex31_gde_binding_reference_callbackEPvS1_h, symObjAddr: 0xDA8, symBinAddr: 0x4DA8, symSize: 0x8 }
  - { offset: 0x5CC17, size: 0x8, addend: 0x0, symName: __ZN5godot5MutexD1Ev, symObjAddr: 0xDB0, symBinAddr: 0x4DB0, symSize: 0x8C }
  - { offset: 0x5CDB5, size: 0x8, addend: 0x0, symName: __ZN5godot5MutexD1Ev.cold.1, symObjAddr: 0xDC24, symBinAddr: 0xF9020, symSize: 0x1C }
  - { offset: 0x5CDD0, size: 0x8, addend: 0x0, symName: __ZN5godot5MutexD1Ev.cold.1, symObjAddr: 0xDC24, symBinAddr: 0xF9020, symSize: 0x1C }
  - { offset: 0x5CDE4, size: 0x8, addend: 0x0, symName: __ZN5godot5MutexD1Ev.cold.1, symObjAddr: 0xDC24, symBinAddr: 0xF9020, symSize: 0x1C }
  - { offset: 0x5CDF8, size: 0x8, addend: 0x0, symName: __ZN5godot5MutexD1Ev.cold.1, symObjAddr: 0xDC24, symBinAddr: 0xF9020, symSize: 0x1C }
  - { offset: 0x5CE0C, size: 0x8, addend: 0x0, symName: __ZN5godot5MutexD1Ev.cold.1, symObjAddr: 0xDC24, symBinAddr: 0xF9020, symSize: 0x1C }
  - { offset: 0x5CE20, size: 0x8, addend: 0x0, symName: __ZN5godot5MutexD1Ev.cold.1, symObjAddr: 0xDC24, symBinAddr: 0xF9020, symSize: 0x1C }
  - { offset: 0x5CE35, size: 0x8, addend: 0x0, symName: __ZN5godot5MutexD1Ev.cold.1, symObjAddr: 0xDC24, symBinAddr: 0xF9020, symSize: 0x1C }
  - { offset: 0x5CE69, size: 0x8, addend: 0x0, symName: __ZN5godot5MutexD0Ev, symObjAddr: 0xE3C, symBinAddr: 0x4E3C, symSize: 0x74 }
  - { offset: 0x5CFB4, size: 0x8, addend: 0x0, symName: __ZN5godot5MutexD0Ev.cold.1, symObjAddr: 0xDC40, symBinAddr: 0xF903C, symSize: 0x1C }
  - { offset: 0x5CFCF, size: 0x8, addend: 0x0, symName: __ZN5godot5MutexD0Ev.cold.1, symObjAddr: 0xDC40, symBinAddr: 0xF903C, symSize: 0x1C }
  - { offset: 0x5CFE3, size: 0x8, addend: 0x0, symName: __ZN5godot5MutexD0Ev.cold.1, symObjAddr: 0xDC40, symBinAddr: 0xF903C, symSize: 0x1C }
  - { offset: 0x5CFF7, size: 0x8, addend: 0x0, symName: __ZN5godot5MutexD0Ev.cold.1, symObjAddr: 0xDC40, symBinAddr: 0xF903C, symSize: 0x1C }
  - { offset: 0x5D00B, size: 0x8, addend: 0x0, symName: __ZN5godot5MutexD0Ev.cold.1, symObjAddr: 0xDC40, symBinAddr: 0xF903C, symSize: 0x1C }
  - { offset: 0x5D01F, size: 0x8, addend: 0x0, symName: __ZN5godot5MutexD0Ev.cold.1, symObjAddr: 0xDC40, symBinAddr: 0xF903C, symSize: 0x1C }
  - { offset: 0x5D033, size: 0x8, addend: 0x0, symName: __ZN5godot5MutexD0Ev.cold.1, symObjAddr: 0xDC40, symBinAddr: 0xF903C, symSize: 0x1C }
  - { offset: 0x5D048, size: 0x8, addend: 0x0, symName: __ZN5godot5MutexD0Ev.cold.1, symObjAddr: 0xDC40, symBinAddr: 0xF903C, symSize: 0x1C }
  - { offset: 0x5D068, size: 0x8, addend: 0x0, symName: __ZN5godot8internal23EngineClassRegistrationINS_6EngineEE8callbackEv, symObjAddr: 0xEB0, symBinAddr: 0x4EB0, symSize: 0x48 }
  - { offset: 0x5D0B2, size: 0x8, addend: 0x0, symName: __ZN5godot8internal23EngineClassRegistrationINS_6EngineEE8callbackEv.cold.1, symObjAddr: 0xDC5C, symBinAddr: 0xF9058, symSize: 0x5C }
  - { offset: 0x5D12A, size: 0x8, addend: 0x0, symName: __ZN5godot6Engine28_gde_binding_create_callbackEPvS1_, symObjAddr: 0xEF8, symBinAddr: 0x4EF8, symSize: 0x48 }
  - { offset: 0x5D1C6, size: 0x8, addend: 0x0, symName: __ZN5godot6Engine26_gde_binding_free_callbackEPvS1_S1_, symObjAddr: 0xF40, symBinAddr: 0x4F40, symSize: 0x34 }
  - { offset: 0x5D21B, size: 0x8, addend: 0x0, symName: __ZN5godot6Engine31_gde_binding_reference_callbackEPvS1_h, symObjAddr: 0xF74, symBinAddr: 0x4F74, symSize: 0x8 }
  - { offset: 0x5D262, size: 0x8, addend: 0x0, symName: __ZN5godot8internal23EngineClassRegistrationINS_8MainLoopEE8callbackEv, symObjAddr: 0xF7C, symBinAddr: 0x4F7C, symSize: 0x48 }
  - { offset: 0x5D2AC, size: 0x8, addend: 0x0, symName: __ZN5godot8internal23EngineClassRegistrationINS_8MainLoopEE8callbackEv.cold.1, symObjAddr: 0xDCB8, symBinAddr: 0xF90B4, symSize: 0x5C }
  - { offset: 0x5D329, size: 0x8, addend: 0x0, symName: __ZN5godot8MainLoop28_gde_binding_create_callbackEPvS1_, symObjAddr: 0xFC4, symBinAddr: 0x4FC4, symSize: 0x48 }
  - { offset: 0x5D3C5, size: 0x8, addend: 0x0, symName: __ZN5godot8MainLoop26_gde_binding_free_callbackEPvS1_S1_, symObjAddr: 0x100C, symBinAddr: 0x500C, symSize: 0x34 }
  - { offset: 0x5D41A, size: 0x8, addend: 0x0, symName: __ZN5godot8MainLoop31_gde_binding_reference_callbackEPvS1_h, symObjAddr: 0x1040, symBinAddr: 0x5040, symSize: 0x8 }
  - { offset: 0x5D461, size: 0x8, addend: 0x0, symName: __ZN5godot8internal23EngineClassRegistrationINS_9SceneTreeEE8callbackEv, symObjAddr: 0x1048, symBinAddr: 0x5048, symSize: 0x48 }
  - { offset: 0x5D4AB, size: 0x8, addend: 0x0, symName: __ZN5godot8internal23EngineClassRegistrationINS_9SceneTreeEE8callbackEv.cold.1, symObjAddr: 0xDD14, symBinAddr: 0xF9110, symSize: 0x5C }
  - { offset: 0x5D523, size: 0x8, addend: 0x0, symName: __ZN5godot9SceneTree28_gde_binding_create_callbackEPvS1_, symObjAddr: 0x1090, symBinAddr: 0x5090, symSize: 0x44 }
  - { offset: 0x5D5E2, size: 0x8, addend: 0x0, symName: __ZN5godot9SceneTree26_gde_binding_free_callbackEPvS1_S1_, symObjAddr: 0x10D4, symBinAddr: 0x50D4, symSize: 0x34 }
  - { offset: 0x5D637, size: 0x8, addend: 0x0, symName: __ZN5godot9SceneTree31_gde_binding_reference_callbackEPvS1_h, symObjAddr: 0x1108, symBinAddr: 0x5108, symSize: 0x8 }
  - { offset: 0x5D6AF, size: 0x8, addend: 0x0, symName: __ZN5godot9SceneTreeD1Ev, symObjAddr: 0x1110, symBinAddr: 0x5110, symSize: 0x8C }
  - { offset: 0x5D84D, size: 0x8, addend: 0x0, symName: __ZN5godot9SceneTreeD1Ev.cold.1, symObjAddr: 0xDD70, symBinAddr: 0xF916C, symSize: 0x1C }
  - { offset: 0x5D868, size: 0x8, addend: 0x0, symName: __ZN5godot9SceneTreeD1Ev.cold.1, symObjAddr: 0xDD70, symBinAddr: 0xF916C, symSize: 0x1C }
  - { offset: 0x5D87C, size: 0x8, addend: 0x0, symName: __ZN5godot9SceneTreeD1Ev.cold.1, symObjAddr: 0xDD70, symBinAddr: 0xF916C, symSize: 0x1C }
  - { offset: 0x5D890, size: 0x8, addend: 0x0, symName: __ZN5godot9SceneTreeD1Ev.cold.1, symObjAddr: 0xDD70, symBinAddr: 0xF916C, symSize: 0x1C }
  - { offset: 0x5D8A4, size: 0x8, addend: 0x0, symName: __ZN5godot9SceneTreeD1Ev.cold.1, symObjAddr: 0xDD70, symBinAddr: 0xF916C, symSize: 0x1C }
  - { offset: 0x5D8B8, size: 0x8, addend: 0x0, symName: __ZN5godot9SceneTreeD1Ev.cold.1, symObjAddr: 0xDD70, symBinAddr: 0xF916C, symSize: 0x1C }
  - { offset: 0x5D8CD, size: 0x8, addend: 0x0, symName: __ZN5godot9SceneTreeD1Ev.cold.1, symObjAddr: 0xDD70, symBinAddr: 0xF916C, symSize: 0x1C }
  - { offset: 0x5D901, size: 0x8, addend: 0x0, symName: __ZN5godot9SceneTreeD0Ev, symObjAddr: 0x119C, symBinAddr: 0x519C, symSize: 0x74 }
  - { offset: 0x5DA4C, size: 0x8, addend: 0x0, symName: __ZN5godot9SceneTreeD0Ev.cold.1, symObjAddr: 0xDD8C, symBinAddr: 0xF9188, symSize: 0x1C }
  - { offset: 0x5DA67, size: 0x8, addend: 0x0, symName: __ZN5godot9SceneTreeD0Ev.cold.1, symObjAddr: 0xDD8C, symBinAddr: 0xF9188, symSize: 0x1C }
  - { offset: 0x5DA7B, size: 0x8, addend: 0x0, symName: __ZN5godot9SceneTreeD0Ev.cold.1, symObjAddr: 0xDD8C, symBinAddr: 0xF9188, symSize: 0x1C }
  - { offset: 0x5DA8F, size: 0x8, addend: 0x0, symName: __ZN5godot9SceneTreeD0Ev.cold.1, symObjAddr: 0xDD8C, symBinAddr: 0xF9188, symSize: 0x1C }
  - { offset: 0x5DAA3, size: 0x8, addend: 0x0, symName: __ZN5godot9SceneTreeD0Ev.cold.1, symObjAddr: 0xDD8C, symBinAddr: 0xF9188, symSize: 0x1C }
  - { offset: 0x5DAB7, size: 0x8, addend: 0x0, symName: __ZN5godot9SceneTreeD0Ev.cold.1, symObjAddr: 0xDD8C, symBinAddr: 0xF9188, symSize: 0x1C }
  - { offset: 0x5DACB, size: 0x8, addend: 0x0, symName: __ZN5godot9SceneTreeD0Ev.cold.1, symObjAddr: 0xDD8C, symBinAddr: 0xF9188, symSize: 0x1C }
  - { offset: 0x5DAE0, size: 0x8, addend: 0x0, symName: __ZN5godot9SceneTreeD0Ev.cold.1, symObjAddr: 0xDD8C, symBinAddr: 0xF9188, symSize: 0x1C }
  - { offset: 0x5DB00, size: 0x8, addend: 0x0, symName: __ZN5godot8internal23EngineClassRegistrationINS_13DisplayServerEE8callbackEv, symObjAddr: 0x1210, symBinAddr: 0x5210, symSize: 0x48 }
  - { offset: 0x5DB4A, size: 0x8, addend: 0x0, symName: __ZN5godot8internal23EngineClassRegistrationINS_13DisplayServerEE8callbackEv.cold.1, symObjAddr: 0xDDA8, symBinAddr: 0xF91A4, symSize: 0x5C }
  - { offset: 0x5DBC2, size: 0x8, addend: 0x0, symName: __ZN5godot13DisplayServer28_gde_binding_create_callbackEPvS1_, symObjAddr: 0x1258, symBinAddr: 0x5258, symSize: 0x48 }
  - { offset: 0x5DC5E, size: 0x8, addend: 0x0, symName: __ZN5godot13DisplayServer26_gde_binding_free_callbackEPvS1_S1_, symObjAddr: 0x12A0, symBinAddr: 0x52A0, symSize: 0x34 }
  - { offset: 0x5DCB3, size: 0x8, addend: 0x0, symName: __ZN5godot13DisplayServer31_gde_binding_reference_callbackEPvS1_h, symObjAddr: 0x12D4, symBinAddr: 0x52D4, symSize: 0x8 }
  - { offset: 0x5DCFA, size: 0x8, addend: 0x0, symName: __ZN5godot8internal23EngineClassRegistrationINS_4NodeEE8callbackEv, symObjAddr: 0x12DC, symBinAddr: 0x52DC, symSize: 0x48 }
  - { offset: 0x5DD44, size: 0x8, addend: 0x0, symName: __ZN5godot8internal23EngineClassRegistrationINS_4NodeEE8callbackEv.cold.1, symObjAddr: 0xDE04, symBinAddr: 0xF9200, symSize: 0x5C }
  - { offset: 0x5DDC1, size: 0x8, addend: 0x0, symName: __ZN5godot4Node28_gde_binding_create_callbackEPvS1_, symObjAddr: 0x1324, symBinAddr: 0x5324, symSize: 0x48 }
  - { offset: 0x5DE5D, size: 0x8, addend: 0x0, symName: __ZN5godot4Node26_gde_binding_free_callbackEPvS1_S1_, symObjAddr: 0x136C, symBinAddr: 0x536C, symSize: 0x34 }
  - { offset: 0x5DEB2, size: 0x8, addend: 0x0, symName: __ZN5godot4Node31_gde_binding_reference_callbackEPvS1_h, symObjAddr: 0x13A0, symBinAddr: 0x53A0, symSize: 0x8 }
  - { offset: 0x5DEF9, size: 0x8, addend: 0x0, symName: __ZN5godot8internal23EngineClassRegistrationINS_8ViewportEE8callbackEv, symObjAddr: 0x13A8, symBinAddr: 0x53A8, symSize: 0x48 }
  - { offset: 0x5DF43, size: 0x8, addend: 0x0, symName: __ZN5godot8internal23EngineClassRegistrationINS_8ViewportEE8callbackEv.cold.1, symObjAddr: 0xDE60, symBinAddr: 0xF925C, symSize: 0x5C }
  - { offset: 0x5DFBB, size: 0x8, addend: 0x0, symName: __ZN5godot8Viewport28_gde_binding_create_callbackEPvS1_, symObjAddr: 0x13F0, symBinAddr: 0x53F0, symSize: 0x44 }
  - { offset: 0x5E07A, size: 0x8, addend: 0x0, symName: __ZN5godot8Viewport26_gde_binding_free_callbackEPvS1_S1_, symObjAddr: 0x1434, symBinAddr: 0x5434, symSize: 0x34 }
  - { offset: 0x5E0CF, size: 0x8, addend: 0x0, symName: __ZN5godot8Viewport31_gde_binding_reference_callbackEPvS1_h, symObjAddr: 0x1468, symBinAddr: 0x5468, symSize: 0x8 }
  - { offset: 0x5E147, size: 0x8, addend: 0x0, symName: __ZN5godot8ViewportD1Ev, symObjAddr: 0x1470, symBinAddr: 0x5470, symSize: 0x8C }
  - { offset: 0x5E2E5, size: 0x8, addend: 0x0, symName: __ZN5godot8ViewportD1Ev.cold.1, symObjAddr: 0xDEBC, symBinAddr: 0xF92B8, symSize: 0x1C }
  - { offset: 0x5E300, size: 0x8, addend: 0x0, symName: __ZN5godot8ViewportD1Ev.cold.1, symObjAddr: 0xDEBC, symBinAddr: 0xF92B8, symSize: 0x1C }
  - { offset: 0x5E314, size: 0x8, addend: 0x0, symName: __ZN5godot8ViewportD1Ev.cold.1, symObjAddr: 0xDEBC, symBinAddr: 0xF92B8, symSize: 0x1C }
  - { offset: 0x5E328, size: 0x8, addend: 0x0, symName: __ZN5godot8ViewportD1Ev.cold.1, symObjAddr: 0xDEBC, symBinAddr: 0xF92B8, symSize: 0x1C }
  - { offset: 0x5E33C, size: 0x8, addend: 0x0, symName: __ZN5godot8ViewportD1Ev.cold.1, symObjAddr: 0xDEBC, symBinAddr: 0xF92B8, symSize: 0x1C }
  - { offset: 0x5E350, size: 0x8, addend: 0x0, symName: __ZN5godot8ViewportD1Ev.cold.1, symObjAddr: 0xDEBC, symBinAddr: 0xF92B8, symSize: 0x1C }
  - { offset: 0x5E365, size: 0x8, addend: 0x0, symName: __ZN5godot8ViewportD1Ev.cold.1, symObjAddr: 0xDEBC, symBinAddr: 0xF92B8, symSize: 0x1C }
  - { offset: 0x5E399, size: 0x8, addend: 0x0, symName: __ZN5godot8ViewportD0Ev, symObjAddr: 0x14FC, symBinAddr: 0x54FC, symSize: 0x74 }
  - { offset: 0x5E4E4, size: 0x8, addend: 0x0, symName: __ZN5godot8ViewportD0Ev.cold.1, symObjAddr: 0xDED8, symBinAddr: 0xF92D4, symSize: 0x1C }
  - { offset: 0x5E4FF, size: 0x8, addend: 0x0, symName: __ZN5godot8ViewportD0Ev.cold.1, symObjAddr: 0xDED8, symBinAddr: 0xF92D4, symSize: 0x1C }
  - { offset: 0x5E513, size: 0x8, addend: 0x0, symName: __ZN5godot8ViewportD0Ev.cold.1, symObjAddr: 0xDED8, symBinAddr: 0xF92D4, symSize: 0x1C }
  - { offset: 0x5E527, size: 0x8, addend: 0x0, symName: __ZN5godot8ViewportD0Ev.cold.1, symObjAddr: 0xDED8, symBinAddr: 0xF92D4, symSize: 0x1C }
  - { offset: 0x5E53B, size: 0x8, addend: 0x0, symName: __ZN5godot8ViewportD0Ev.cold.1, symObjAddr: 0xDED8, symBinAddr: 0xF92D4, symSize: 0x1C }
  - { offset: 0x5E54F, size: 0x8, addend: 0x0, symName: __ZN5godot8ViewportD0Ev.cold.1, symObjAddr: 0xDED8, symBinAddr: 0xF92D4, symSize: 0x1C }
  - { offset: 0x5E563, size: 0x8, addend: 0x0, symName: __ZN5godot8ViewportD0Ev.cold.1, symObjAddr: 0xDED8, symBinAddr: 0xF92D4, symSize: 0x1C }
  - { offset: 0x5E578, size: 0x8, addend: 0x0, symName: __ZN5godot8ViewportD0Ev.cold.1, symObjAddr: 0xDED8, symBinAddr: 0xF92D4, symSize: 0x1C }
  - { offset: 0x5E598, size: 0x8, addend: 0x0, symName: __ZN5godot8internal23EngineClassRegistrationINS_6WindowEE8callbackEv, symObjAddr: 0x1570, symBinAddr: 0x5570, symSize: 0x48 }
  - { offset: 0x5E5E2, size: 0x8, addend: 0x0, symName: __ZN5godot8internal23EngineClassRegistrationINS_6WindowEE8callbackEv.cold.1, symObjAddr: 0xDEF4, symBinAddr: 0xF92F0, symSize: 0x5C }
  - { offset: 0x5E65F, size: 0x8, addend: 0x0, symName: __ZN5godot6Window28_gde_binding_create_callbackEPvS1_, symObjAddr: 0x15B8, symBinAddr: 0x55B8, symSize: 0x48 }
  - { offset: 0x5E741, size: 0x8, addend: 0x0, symName: __ZN5godot6Window26_gde_binding_free_callbackEPvS1_S1_, symObjAddr: 0x1600, symBinAddr: 0x5600, symSize: 0x34 }
  - { offset: 0x5E796, size: 0x8, addend: 0x0, symName: __ZN5godot6Window31_gde_binding_reference_callbackEPvS1_h, symObjAddr: 0x1634, symBinAddr: 0x5634, symSize: 0x8 }
  - { offset: 0x5EEA7, size: 0x8, addend: 0x0, symName: __ZNSt3__112__hash_tableINS_17__hash_value_typeIN5godot10StringNameEPK35GDExtensionInstanceBindingCallbacksEENS_22__unordered_map_hasherIS3_S7_NS_4hashIS3_EENS_8equal_toIS3_EELb1EEENS_21__unordered_map_equalIS3_S7_SC_SA_Lb1EEENS_9allocatorIS7_EEE25__emplace_unique_key_argsIS3_JRKNS_21piecewise_construct_tENS_5tupleIJRKS3_EEENSN_IJEEEEEENS_4pairINS_15__hash_iteratorIPNS_11__hash_nodeIS7_PvEEEEbEERKT_DpOT0_, symObjAddr: 0x1D4C, symBinAddr: 0x5D4C, symSize: 0x328 }
  - { offset: 0x5F531, size: 0x8, addend: 0x0, symName: __ZNSt3__112__hash_tableINS_17__hash_value_typeIN5godot10StringNameENS2_7ClassDB9ClassInfoEEENS_22__unordered_map_hasherIS3_S6_NS_4hashIS3_EENS_8equal_toIS3_EELb1EEENS_21__unordered_map_equalIS3_S6_SB_S9_Lb1EEENS_9allocatorIS6_EEE4findIS3_EENS_15__hash_iteratorIPNS_11__hash_nodeIS6_PvEEEERKT_, symObjAddr: 0x2220, symBinAddr: 0x6220, symSize: 0x138 }
  - { offset: 0x5F712, size: 0x8, addend: 0x0, symName: __ZNSt3__112__hash_tableINS_17__hash_value_typeIN5godot10StringNameENS2_7ClassDB9ClassInfoEEENS_22__unordered_map_hasherIS3_S6_NS_4hashIS3_EENS_8equal_toIS3_EELb1EEENS_21__unordered_map_equalIS3_S6_SB_S9_Lb1EEENS_9allocatorIS6_EEE25__emplace_unique_key_argsIS3_JRKNS_21piecewise_construct_tENS_5tupleIJRKS3_EEENSM_IJEEEEEENS_4pairINS_15__hash_iteratorIPNS_11__hash_nodeIS6_PvEEEEbEERKT_DpOT0_, symObjAddr: 0x2358, symBinAddr: 0x6358, symSize: 0x3B8 }
  - { offset: 0x602F8, size: 0x8, addend: 0x0, symName: __ZN5godot7ClassDB9ClassInfoaSERKS1_, symObjAddr: 0x1968, symBinAddr: 0x5968, symSize: 0xAC }
  - { offset: 0x6065D, size: 0x8, addend: 0x0, symName: __ZNSt3__16vectorIN5godot10StringNameENS_9allocatorIS2_EEE21__push_back_slow_pathIRKS2_EEPS2_OT_, symObjAddr: 0x3B70, symBinAddr: 0x7B70, symSize: 0x114 }
  - { offset: 0x60AF4, size: 0x8, addend: 0x0, symName: __ZN5godot12PropertyInfoC1EPK23GDExtensionPropertyInfo, symObjAddr: 0x3C84, symBinAddr: 0x7C84, symSize: 0xDC }
  - { offset: 0x60B08, size: 0x8, addend: 0x0, symName: __ZN5godot7ClassDB9ClassInfoD2Ev, symObjAddr: 0x3F48, symBinAddr: 0x7F48, symSize: 0xBC }
  - { offset: 0x61330, size: 0x8, addend: 0x0, symName: __ZN5godot7ClassDB15_register_classIN6sentry18SentryLoggerLimitsELb0EEEvbbb.cold.1, symObjAddr: 0xDF50, symBinAddr: 0xF934C, symSize: 0x5C }
  - { offset: 0x6135E, size: 0x8, addend: 0x0, symName: __ZN5godot7ClassDB15_register_classIN6sentry18SentryLoggerLimitsELb0EEEvbbb.cold.2, symObjAddr: 0xDFAC, symBinAddr: 0xF93A8, symSize: 0x58 }
  - { offset: 0x6138C, size: 0x8, addend: 0x0, symName: __ZN5godot7ClassDB15_register_classIN6sentry18SentryLoggerLimitsELb0EEEvbbb.cold.3, symObjAddr: 0xE004, symBinAddr: 0xF9400, symSize: 0x58 }
  - { offset: 0x613CF, size: 0x8, addend: 0x0, symName: __ZN5godot7ClassDB15_register_classIN6sentry18SentryLoggerLimitsELb0EEEvbbb.cold.4, symObjAddr: 0xE05C, symBinAddr: 0xF9458, symSize: 0x58 }
  - { offset: 0x61579, size: 0x8, addend: 0x0, symName: __ZNSt3__112__hash_tableINS_17__hash_value_typeIN5godot10StringNameEPNS2_10MethodBindEEENS_22__unordered_map_hasherIS3_S6_NS_4hashIS3_EENS_8equal_toIS3_EELb1EEENS_21__unordered_map_equalIS3_S6_SB_S9_Lb1EEENS_9allocatorIS6_EEE14__assign_multiINS_21__hash_const_iteratorIPNS_11__hash_nodeIS6_PvEEEEEEvT_SP_, symObjAddr: 0x28B0, symBinAddr: 0x68B0, symSize: 0x100 }
  - { offset: 0x61B72, size: 0x8, addend: 0x0, symName: __ZNSt3__16__treeIN5godot10StringNameENS_4lessIS2_EENS_9allocatorIS2_EEE14__assign_multiINS_21__tree_const_iteratorIS2_PNS_11__tree_nodeIS2_PvEElEEEEvT_SF_, symObjAddr: 0x2F70, symBinAddr: 0x6F70, symSize: 0x340 }
  - { offset: 0x62155, size: 0x8, addend: 0x0, symName: __ZNSt3__112__hash_tableINS_17__hash_value_typeIN5godot10StringNameENS2_7ClassDB9ClassInfo13VirtualMethodEEENS_22__unordered_map_hasherIS3_S7_NS_4hashIS3_EENS_8equal_toIS3_EELb1EEENS_21__unordered_map_equalIS3_S7_SC_SA_Lb1EEENS_9allocatorIS7_EEE14__assign_multiINS_21__hash_const_iteratorIPNS_11__hash_nodeIS7_PvEEEEEEvT_SQ_, symObjAddr: 0x34B0, symBinAddr: 0x74B0, symSize: 0x100 }
  - { offset: 0x62750, size: 0x8, addend: 0x0, symName: __ZN6sentry18SentryLoggerLimits8set_bindEPvPKvS3_, symObjAddr: 0x1A14, symBinAddr: 0x5A14, symSize: 0x8 }
  - { offset: 0x62790, size: 0x8, addend: 0x0, symName: __ZN6sentry18SentryLoggerLimits8get_bindEPvPKvS1_, symObjAddr: 0x1A1C, symBinAddr: 0x5A1C, symSize: 0x8 }
  - { offset: 0x627EB, size: 0x8, addend: 0x0, symName: __ZN6sentry18SentryLoggerLimits22get_property_list_bindEPvPj, symObjAddr: 0x1A24, symBinAddr: 0x5A24, symSize: 0x40 }
  - { offset: 0x62877, size: 0x8, addend: 0x0, symName: __ZN6sentry18SentryLoggerLimits22get_property_list_bindEPvPj.cold.1, symObjAddr: 0xE0B4, symBinAddr: 0xF94B0, symSize: 0x28 }
  - { offset: 0x6288F, size: 0x8, addend: 0x0, symName: __ZN6sentry18SentryLoggerLimits23free_property_list_bindEPvPK23GDExtensionPropertyInfoj, symObjAddr: 0x1A64, symBinAddr: 0x5A64, symSize: 0x58 }
  - { offset: 0x629A9, size: 0x8, addend: 0x0, symName: __ZN6sentry18SentryLoggerLimits24property_can_revert_bindEPvPKv, symObjAddr: 0x1ABC, symBinAddr: 0x5ABC, symSize: 0x8 }
  - { offset: 0x629DB, size: 0x8, addend: 0x0, symName: __ZN6sentry18SentryLoggerLimits24property_get_revert_bindEPvPKvS1_, symObjAddr: 0x1AC4, symBinAddr: 0x5AC4, symSize: 0x8 }
  - { offset: 0x62A3C, size: 0x8, addend: 0x0, symName: __ZN6sentry18SentryLoggerLimits22validate_property_bindEPvP23GDExtensionPropertyInfo, symObjAddr: 0x1ACC, symBinAddr: 0x5ACC, symSize: 0xB8 }
  - { offset: 0x62AFF, size: 0x8, addend: 0x0, symName: __ZN5godot12PropertyInfoC1EPK23GDExtensionPropertyInfo, symObjAddr: 0x3C84, symBinAddr: 0x7C84, symSize: 0xDC }
  - { offset: 0x62C17, size: 0x8, addend: 0x0, symName: __ZN6sentry18SentryLoggerLimits17notification_bindEPvih, symObjAddr: 0x1B84, symBinAddr: 0x5B84, symSize: 0x4 }
  - { offset: 0x62C56, size: 0x8, addend: 0x0, symName: __ZN6sentry18SentryLoggerLimits14to_string_bindEPvPhS1_, symObjAddr: 0x1B88, symBinAddr: 0x5B88, symSize: 0x7C }
  - { offset: 0x62CCC, size: 0x8, addend: 0x0, symName: __ZNK5godot6Object10_to_stringEv, symObjAddr: 0x3D60, symBinAddr: 0x7D60, symSize: 0xE0 }
  - { offset: 0x62DEF, size: 0x8, addend: 0x0, symName: __ZN5godot7ClassDB21_create_instance_funcIN6sentry18SentryLoggerLimitsEEEPvS4_h, symObjAddr: 0x1C04, symBinAddr: 0x5C04, symSize: 0xF0 }
  - { offset: 0x62F1B, size: 0x8, addend: 0x0, symName: __ZN5godot7ClassDB21_create_instance_funcIN6sentry18SentryLoggerLimitsEEEPvS4_h.cold.1, symObjAddr: 0xE0DC, symBinAddr: 0xF94D8, symSize: 0x5C }
  - { offset: 0x62F73, size: 0x8, addend: 0x0, symName: __ZN6sentry18SentryLoggerLimits4freeEPvS1_, symObjAddr: 0x1CF4, symBinAddr: 0x5CF4, symSize: 0x3C }
  - { offset: 0x62FCE, size: 0x8, addend: 0x0, symName: __ZN5godot7ClassDB23_recreate_instance_funcIN6sentry18SentryLoggerLimitsEEEPvS4_S4_, symObjAddr: 0x1D30, symBinAddr: 0x5D30, symSize: 0x8 }
  - { offset: 0x63009, size: 0x8, addend: 0x0, symName: __ZN6sentry18SentryLoggerLimits28_gde_binding_create_callbackEPvS1_, symObjAddr: 0x1D38, symBinAddr: 0x5D38, symSize: 0x8 }
  - { offset: 0x63034, size: 0x8, addend: 0x0, symName: __ZN6sentry18SentryLoggerLimits26_gde_binding_free_callbackEPvS1_S1_, symObjAddr: 0x1D40, symBinAddr: 0x5D40, symSize: 0x4 }
  - { offset: 0x63067, size: 0x8, addend: 0x0, symName: __ZN6sentry18SentryLoggerLimits31_gde_binding_reference_callbackEPvS1_h, symObjAddr: 0x1D44, symBinAddr: 0x5D44, symSize: 0x8 }
  - { offset: 0x63591, size: 0x8, addend: 0x0, symName: __ZNSt3__112__hash_tableINS_17__hash_value_typeIN5godot10StringNameEPK35GDExtensionInstanceBindingCallbacksEENS_22__unordered_map_hasherIS3_S7_NS_4hashIS3_EENS_8equal_toIS3_EELb1EEENS_21__unordered_map_equalIS3_S7_SC_SA_Lb1EEENS_9allocatorIS7_EEE11__do_rehashILb1EEEvm, symObjAddr: 0x2080, symBinAddr: 0x6080, symSize: 0x1A0 }
  - { offset: 0x63A09, size: 0x8, addend: 0x0, symName: __ZNSt3__112__hash_tableINS_17__hash_value_typeIN5godot10StringNameENS2_7ClassDB9ClassInfoEEENS_22__unordered_map_hasherIS3_S6_NS_4hashIS3_EENS_8equal_toIS3_EELb1EEENS_21__unordered_map_equalIS3_S6_SB_S9_Lb1EEENS_9allocatorIS6_EEE4findIS3_EENS_15__hash_iteratorIPNS_11__hash_nodeIS6_PvEEEERKT_, symObjAddr: 0x2220, symBinAddr: 0x6220, symSize: 0x138 }
  - { offset: 0x63FC5, size: 0x8, addend: 0x0, symName: __ZNSt3__112__hash_tableINS_17__hash_value_typeIN5godot10StringNameENS2_7ClassDB9ClassInfoEEENS_22__unordered_map_hasherIS3_S6_NS_4hashIS3_EENS_8equal_toIS3_EELb1EEENS_21__unordered_map_equalIS3_S6_SB_S9_Lb1EEENS_9allocatorIS6_EEE11__do_rehashILb1EEEvm, symObjAddr: 0x2710, symBinAddr: 0x6710, symSize: 0x1A0 }
  - { offset: 0x6443D, size: 0x8, addend: 0x0, symName: __ZNSt3__112__hash_tableINS_17__hash_value_typeIN5godot10StringNameEPNS2_10MethodBindEEENS_22__unordered_map_hasherIS3_S6_NS_4hashIS3_EENS_8equal_toIS3_EELb1EEENS_21__unordered_map_equalIS3_S6_SB_S9_Lb1EEENS_9allocatorIS6_EEE14__assign_multiINS_21__hash_const_iteratorIPNS_11__hash_nodeIS6_PvEEEEEEvT_SP_, symObjAddr: 0x28B0, symBinAddr: 0x68B0, symSize: 0x100 }
  - { offset: 0x64A0E, size: 0x8, addend: 0x0, symName: __ZNSt3__112__hash_tableINS_17__hash_value_typeIN5godot10StringNameEPNS2_10MethodBindEEENS_22__unordered_map_hasherIS3_S6_NS_4hashIS3_EENS_8equal_toIS3_EELb1EEENS_21__unordered_map_equalIS3_S6_SB_S9_Lb1EEENS_9allocatorIS6_EEE19__node_insert_multiEPNS_11__hash_nodeIS6_PvEE, symObjAddr: 0x29B0, symBinAddr: 0x69B0, symSize: 0x124 }
  - { offset: 0x64CA9, size: 0x8, addend: 0x0, symName: __ZNSt3__112__hash_tableINS_17__hash_value_typeIN5godot10StringNameEPNS2_10MethodBindEEENS_22__unordered_map_hasherIS3_S6_NS_4hashIS3_EENS_8equal_toIS3_EELb1EEENS_21__unordered_map_equalIS3_S6_SB_S9_Lb1EEENS_9allocatorIS6_EEE27__node_insert_multi_prepareEmRS6_, symObjAddr: 0x2AD4, symBinAddr: 0x6AD4, symSize: 0x27C }
  - { offset: 0x6501E, size: 0x8, addend: 0x0, symName: __ZNSt3__112__hash_tableINS_17__hash_value_typeIN5godot10StringNameEPNS2_10MethodBindEEENS_22__unordered_map_hasherIS3_S6_NS_4hashIS3_EENS_8equal_toIS3_EELb1EEENS_21__unordered_map_equalIS3_S6_SB_S9_Lb1EEENS_9allocatorIS6_EEE11__do_rehashILb0EEEvm, symObjAddr: 0x2D50, symBinAddr: 0x6D50, symSize: 0x220 }
  - { offset: 0x654DB, size: 0x8, addend: 0x0, symName: __ZNSt3__16__treeIN5godot10StringNameENS_4lessIS2_EENS_9allocatorIS2_EEE14__assign_multiINS_21__tree_const_iteratorIS2_PNS_11__tree_nodeIS2_PvEElEEEEvT_SF_, symObjAddr: 0x2F70, symBinAddr: 0x6F70, symSize: 0x340 }
  - { offset: 0x659BE, size: 0x8, addend: 0x0, symName: __ZNSt3__16__treeIN5godot10StringNameENS_4lessIS2_EENS_9allocatorIS2_EEE7destroyEPNS_11__tree_nodeIS2_PvEE, symObjAddr: 0x3464, symBinAddr: 0x7464, symSize: 0x4C }
  - { offset: 0x6609E, size: 0x8, addend: 0x0, symName: __ZNSt3__112__hash_tableINS_17__hash_value_typeIN5godot10StringNameENS2_7ClassDB9ClassInfo13VirtualMethodEEENS_22__unordered_map_hasherIS3_S7_NS_4hashIS3_EENS_8equal_toIS3_EELb1EEENS_21__unordered_map_equalIS3_S7_SC_SA_Lb1EEENS_9allocatorIS7_EEE19__node_insert_multiEPNS_11__hash_nodeIS7_PvEE, symObjAddr: 0x35B0, symBinAddr: 0x75B0, symSize: 0x124 }
  - { offset: 0x66339, size: 0x8, addend: 0x0, symName: __ZNSt3__112__hash_tableINS_17__hash_value_typeIN5godot10StringNameENS2_7ClassDB9ClassInfo13VirtualMethodEEENS_22__unordered_map_hasherIS3_S7_NS_4hashIS3_EENS_8equal_toIS3_EELb1EEENS_21__unordered_map_equalIS3_S7_SC_SA_Lb1EEENS_9allocatorIS7_EEE27__node_insert_multi_prepareEmRS7_, symObjAddr: 0x36D4, symBinAddr: 0x76D4, symSize: 0x27C }
  - { offset: 0x666AE, size: 0x8, addend: 0x0, symName: __ZNSt3__112__hash_tableINS_17__hash_value_typeIN5godot10StringNameENS2_7ClassDB9ClassInfo13VirtualMethodEEENS_22__unordered_map_hasherIS3_S7_NS_4hashIS3_EENS_8equal_toIS3_EELb1EEENS_21__unordered_map_equalIS3_S7_SC_SA_Lb1EEENS_9allocatorIS7_EEE11__do_rehashILb0EEEvm, symObjAddr: 0x3950, symBinAddr: 0x7950, symSize: 0x220 }
  - { offset: 0x66B6B, size: 0x8, addend: 0x0, symName: __ZNSt3__16vectorIN5godot10StringNameENS_9allocatorIS2_EEE21__push_back_slow_pathIRKS2_EEPS2_OT_, symObjAddr: 0x3B70, symBinAddr: 0x7B70, symSize: 0x114 }
  - { offset: 0x67072, size: 0x8, addend: 0x0, symName: __ZNK6sentry18SentryLoggerLimits19_is_extension_classEv, symObjAddr: 0x3E40, symBinAddr: 0x7E40, symSize: 0x8 }
  - { offset: 0x670B5, size: 0x8, addend: 0x0, symName: __ZN6sentry18SentryLoggerLimitsD1Ev, symObjAddr: 0x3E48, symBinAddr: 0x7E48, symSize: 0x8C }
  - { offset: 0x67253, size: 0x8, addend: 0x0, symName: __ZN6sentry18SentryLoggerLimitsD1Ev.cold.1, symObjAddr: 0xE138, symBinAddr: 0xF9534, symSize: 0x1C }
  - { offset: 0x6726E, size: 0x8, addend: 0x0, symName: __ZN6sentry18SentryLoggerLimitsD1Ev.cold.1, symObjAddr: 0xE138, symBinAddr: 0xF9534, symSize: 0x1C }
  - { offset: 0x67282, size: 0x8, addend: 0x0, symName: __ZN6sentry18SentryLoggerLimitsD1Ev.cold.1, symObjAddr: 0xE138, symBinAddr: 0xF9534, symSize: 0x1C }
  - { offset: 0x67296, size: 0x8, addend: 0x0, symName: __ZN6sentry18SentryLoggerLimitsD1Ev.cold.1, symObjAddr: 0xE138, symBinAddr: 0xF9534, symSize: 0x1C }
  - { offset: 0x672AA, size: 0x8, addend: 0x0, symName: __ZN6sentry18SentryLoggerLimitsD1Ev.cold.1, symObjAddr: 0xE138, symBinAddr: 0xF9534, symSize: 0x1C }
  - { offset: 0x672BE, size: 0x8, addend: 0x0, symName: __ZN6sentry18SentryLoggerLimitsD1Ev.cold.1, symObjAddr: 0xE138, symBinAddr: 0xF9534, symSize: 0x1C }
  - { offset: 0x672D3, size: 0x8, addend: 0x0, symName: __ZN6sentry18SentryLoggerLimitsD1Ev.cold.1, symObjAddr: 0xE138, symBinAddr: 0xF9534, symSize: 0x1C }
  - { offset: 0x67307, size: 0x8, addend: 0x0, symName: __ZN6sentry18SentryLoggerLimitsD0Ev, symObjAddr: 0x3ED4, symBinAddr: 0x7ED4, symSize: 0x74 }
  - { offset: 0x67452, size: 0x8, addend: 0x0, symName: __ZN6sentry18SentryLoggerLimitsD0Ev.cold.1, symObjAddr: 0xE154, symBinAddr: 0xF9550, symSize: 0x1C }
  - { offset: 0x6746D, size: 0x8, addend: 0x0, symName: __ZN6sentry18SentryLoggerLimitsD0Ev.cold.1, symObjAddr: 0xE154, symBinAddr: 0xF9550, symSize: 0x1C }
  - { offset: 0x67481, size: 0x8, addend: 0x0, symName: __ZN6sentry18SentryLoggerLimitsD0Ev.cold.1, symObjAddr: 0xE154, symBinAddr: 0xF9550, symSize: 0x1C }
  - { offset: 0x67495, size: 0x8, addend: 0x0, symName: __ZN6sentry18SentryLoggerLimitsD0Ev.cold.1, symObjAddr: 0xE154, symBinAddr: 0xF9550, symSize: 0x1C }
  - { offset: 0x674A9, size: 0x8, addend: 0x0, symName: __ZN6sentry18SentryLoggerLimitsD0Ev.cold.1, symObjAddr: 0xE154, symBinAddr: 0xF9550, symSize: 0x1C }
  - { offset: 0x674BD, size: 0x8, addend: 0x0, symName: __ZN6sentry18SentryLoggerLimitsD0Ev.cold.1, symObjAddr: 0xE154, symBinAddr: 0xF9550, symSize: 0x1C }
  - { offset: 0x674D1, size: 0x8, addend: 0x0, symName: __ZN6sentry18SentryLoggerLimitsD0Ev.cold.1, symObjAddr: 0xE154, symBinAddr: 0xF9550, symSize: 0x1C }
  - { offset: 0x674E6, size: 0x8, addend: 0x0, symName: __ZN6sentry18SentryLoggerLimitsD0Ev.cold.1, symObjAddr: 0xE154, symBinAddr: 0xF9550, symSize: 0x1C }
  - { offset: 0x6770C, size: 0x8, addend: 0x0, symName: __ZN5godot7ClassDB15_register_classIN6sentry18SentryExperimentalELb0EEEvbbb.cold.1, symObjAddr: 0xE170, symBinAddr: 0xF956C, symSize: 0x5C }
  - { offset: 0x6773A, size: 0x8, addend: 0x0, symName: __ZN5godot7ClassDB15_register_classIN6sentry18SentryExperimentalELb0EEEvbbb.cold.2, symObjAddr: 0xE1CC, symBinAddr: 0xF95C8, symSize: 0x58 }
  - { offset: 0x67768, size: 0x8, addend: 0x0, symName: __ZN5godot7ClassDB15_register_classIN6sentry18SentryExperimentalELb0EEEvbbb.cold.3, symObjAddr: 0xE224, symBinAddr: 0xF9620, symSize: 0x58 }
  - { offset: 0x677AB, size: 0x8, addend: 0x0, symName: __ZN5godot7ClassDB15_register_classIN6sentry18SentryExperimentalELb0EEEvbbb.cold.4, symObjAddr: 0xE27C, symBinAddr: 0xF9678, symSize: 0x58 }
  - { offset: 0x677DA, size: 0x8, addend: 0x0, symName: __ZN6sentry18SentryExperimental8set_bindEPvPKvS3_, symObjAddr: 0x4330, symBinAddr: 0x8330, symSize: 0x8 }
  - { offset: 0x6781A, size: 0x8, addend: 0x0, symName: __ZN6sentry18SentryExperimental8get_bindEPvPKvS1_, symObjAddr: 0x4338, symBinAddr: 0x8338, symSize: 0x8 }
  - { offset: 0x6785A, size: 0x8, addend: 0x0, symName: __ZN6sentry18SentryExperimental22get_property_list_bindEPvPj, symObjAddr: 0x4340, symBinAddr: 0x8340, symSize: 0x40 }
  - { offset: 0x678E6, size: 0x8, addend: 0x0, symName: __ZN6sentry18SentryExperimental22get_property_list_bindEPvPj.cold.1, symObjAddr: 0xE2D4, symBinAddr: 0xF96D0, symSize: 0x28 }
  - { offset: 0x678FE, size: 0x8, addend: 0x0, symName: __ZN6sentry18SentryExperimental23free_property_list_bindEPvPK23GDExtensionPropertyInfoj, symObjAddr: 0x4380, symBinAddr: 0x8380, symSize: 0x58 }
  - { offset: 0x67A18, size: 0x8, addend: 0x0, symName: __ZN6sentry18SentryExperimental24property_can_revert_bindEPvPKv, symObjAddr: 0x43D8, symBinAddr: 0x83D8, symSize: 0x8 }
  - { offset: 0x67A4A, size: 0x8, addend: 0x0, symName: __ZN6sentry18SentryExperimental24property_get_revert_bindEPvPKvS1_, symObjAddr: 0x43E0, symBinAddr: 0x83E0, symSize: 0x8 }
  - { offset: 0x67A8A, size: 0x8, addend: 0x0, symName: __ZN6sentry18SentryExperimental22validate_property_bindEPvP23GDExtensionPropertyInfo, symObjAddr: 0x43E8, symBinAddr: 0x83E8, symSize: 0xB8 }
  - { offset: 0x67B4D, size: 0x8, addend: 0x0, symName: __ZN6sentry18SentryExperimental17notification_bindEPvih, symObjAddr: 0x44A0, symBinAddr: 0x84A0, symSize: 0x4 }
  - { offset: 0x67B8C, size: 0x8, addend: 0x0, symName: __ZN6sentry18SentryExperimental14to_string_bindEPvPhS1_, symObjAddr: 0x44A4, symBinAddr: 0x84A4, symSize: 0x7C }
  - { offset: 0x67C5F, size: 0x8, addend: 0x0, symName: __ZN5godot7ClassDB21_create_instance_funcIN6sentry18SentryExperimentalEEEPvS4_h, symObjAddr: 0x4520, symBinAddr: 0x8520, symSize: 0xF8 }
  - { offset: 0x67D8B, size: 0x8, addend: 0x0, symName: __ZN5godot7ClassDB21_create_instance_funcIN6sentry18SentryExperimentalEEEPvS4_h.cold.1, symObjAddr: 0xE2FC, symBinAddr: 0xF96F8, symSize: 0x5C }
  - { offset: 0x67DE3, size: 0x8, addend: 0x0, symName: __ZN6sentry18SentryExperimental4freeEPvS1_, symObjAddr: 0x4618, symBinAddr: 0x8618, symSize: 0x3C }
  - { offset: 0x67E3E, size: 0x8, addend: 0x0, symName: __ZN5godot7ClassDB23_recreate_instance_funcIN6sentry18SentryExperimentalEEEPvS4_S4_, symObjAddr: 0x4654, symBinAddr: 0x8654, symSize: 0x8 }
  - { offset: 0x67E79, size: 0x8, addend: 0x0, symName: __ZN6sentry18SentryExperimental28_gde_binding_create_callbackEPvS1_, symObjAddr: 0x465C, symBinAddr: 0x865C, symSize: 0x8 }
  - { offset: 0x67EA4, size: 0x8, addend: 0x0, symName: __ZN6sentry18SentryExperimental26_gde_binding_free_callbackEPvS1_S1_, symObjAddr: 0x4664, symBinAddr: 0x8664, symSize: 0x4 }
  - { offset: 0x67ED7, size: 0x8, addend: 0x0, symName: __ZN6sentry18SentryExperimental31_gde_binding_reference_callbackEPvS1_h, symObjAddr: 0x4668, symBinAddr: 0x8668, symSize: 0x8 }
  - { offset: 0x67F0C, size: 0x8, addend: 0x0, symName: __ZNK6sentry18SentryExperimental19_is_extension_classEv, symObjAddr: 0x4670, symBinAddr: 0x8670, symSize: 0x8 }
  - { offset: 0x67F4F, size: 0x8, addend: 0x0, symName: __ZN6sentry18SentryExperimentalD1Ev, symObjAddr: 0x4678, symBinAddr: 0x8678, symSize: 0x9C }
  - { offset: 0x680ED, size: 0x8, addend: 0x0, symName: __ZN6sentry18SentryExperimentalD1Ev.cold.1, symObjAddr: 0xE358, symBinAddr: 0xF9754, symSize: 0x1C }
  - { offset: 0x68108, size: 0x8, addend: 0x0, symName: __ZN6sentry18SentryExperimentalD1Ev.cold.1, symObjAddr: 0xE358, symBinAddr: 0xF9754, symSize: 0x1C }
  - { offset: 0x6811C, size: 0x8, addend: 0x0, symName: __ZN6sentry18SentryExperimentalD1Ev.cold.1, symObjAddr: 0xE358, symBinAddr: 0xF9754, symSize: 0x1C }
  - { offset: 0x68130, size: 0x8, addend: 0x0, symName: __ZN6sentry18SentryExperimentalD1Ev.cold.1, symObjAddr: 0xE358, symBinAddr: 0xF9754, symSize: 0x1C }
  - { offset: 0x68144, size: 0x8, addend: 0x0, symName: __ZN6sentry18SentryExperimentalD1Ev.cold.1, symObjAddr: 0xE358, symBinAddr: 0xF9754, symSize: 0x1C }
  - { offset: 0x68158, size: 0x8, addend: 0x0, symName: __ZN6sentry18SentryExperimentalD1Ev.cold.1, symObjAddr: 0xE358, symBinAddr: 0xF9754, symSize: 0x1C }
  - { offset: 0x6816D, size: 0x8, addend: 0x0, symName: __ZN6sentry18SentryExperimentalD1Ev.cold.1, symObjAddr: 0xE358, symBinAddr: 0xF9754, symSize: 0x1C }
  - { offset: 0x681A1, size: 0x8, addend: 0x0, symName: __ZN6sentry18SentryExperimentalD0Ev, symObjAddr: 0x4714, symBinAddr: 0x8714, symSize: 0x84 }
  - { offset: 0x682EC, size: 0x8, addend: 0x0, symName: __ZN6sentry18SentryExperimentalD0Ev.cold.1, symObjAddr: 0xE374, symBinAddr: 0xF9770, symSize: 0x1C }
  - { offset: 0x68307, size: 0x8, addend: 0x0, symName: __ZN6sentry18SentryExperimentalD0Ev.cold.1, symObjAddr: 0xE374, symBinAddr: 0xF9770, symSize: 0x1C }
  - { offset: 0x6831B, size: 0x8, addend: 0x0, symName: __ZN6sentry18SentryExperimentalD0Ev.cold.1, symObjAddr: 0xE374, symBinAddr: 0xF9770, symSize: 0x1C }
  - { offset: 0x6832F, size: 0x8, addend: 0x0, symName: __ZN6sentry18SentryExperimentalD0Ev.cold.1, symObjAddr: 0xE374, symBinAddr: 0xF9770, symSize: 0x1C }
  - { offset: 0x68343, size: 0x8, addend: 0x0, symName: __ZN6sentry18SentryExperimentalD0Ev.cold.1, symObjAddr: 0xE374, symBinAddr: 0xF9770, symSize: 0x1C }
  - { offset: 0x68357, size: 0x8, addend: 0x0, symName: __ZN6sentry18SentryExperimentalD0Ev.cold.1, symObjAddr: 0xE374, symBinAddr: 0xF9770, symSize: 0x1C }
  - { offset: 0x6836B, size: 0x8, addend: 0x0, symName: __ZN6sentry18SentryExperimentalD0Ev.cold.1, symObjAddr: 0xE374, symBinAddr: 0xF9770, symSize: 0x1C }
  - { offset: 0x68380, size: 0x8, addend: 0x0, symName: __ZN6sentry18SentryExperimentalD0Ev.cold.1, symObjAddr: 0xE374, symBinAddr: 0xF9770, symSize: 0x1C }
  - { offset: 0x683AE, size: 0x8, addend: 0x0, symName: __ZN5godot7ClassDB15_register_classIN6sentry13SentryOptionsELb0EEEvbbb.cold.1, symObjAddr: 0xE390, symBinAddr: 0xF978C, symSize: 0x5C }
  - { offset: 0x683DC, size: 0x8, addend: 0x0, symName: __ZN5godot7ClassDB15_register_classIN6sentry13SentryOptionsELb0EEEvbbb.cold.2, symObjAddr: 0xE3EC, symBinAddr: 0xF97E8, symSize: 0x58 }
  - { offset: 0x6840A, size: 0x8, addend: 0x0, symName: __ZN5godot7ClassDB15_register_classIN6sentry13SentryOptionsELb0EEEvbbb.cold.3, symObjAddr: 0xE444, symBinAddr: 0xF9840, symSize: 0x58 }
  - { offset: 0x6844D, size: 0x8, addend: 0x0, symName: __ZN5godot7ClassDB15_register_classIN6sentry13SentryOptionsELb0EEEvbbb.cold.4, symObjAddr: 0xE49C, symBinAddr: 0xF9898, symSize: 0x58 }
  - { offset: 0x6847C, size: 0x8, addend: 0x0, symName: __ZN6sentry13SentryOptions8set_bindEPvPKvS3_, symObjAddr: 0x4AC4, symBinAddr: 0x8AC4, symSize: 0x8 }
  - { offset: 0x684BC, size: 0x8, addend: 0x0, symName: __ZN6sentry13SentryOptions8get_bindEPvPKvS1_, symObjAddr: 0x4ACC, symBinAddr: 0x8ACC, symSize: 0x8 }
  - { offset: 0x684FC, size: 0x8, addend: 0x0, symName: __ZN6sentry13SentryOptions22get_property_list_bindEPvPj, symObjAddr: 0x4AD4, symBinAddr: 0x8AD4, symSize: 0x40 }
  - { offset: 0x68588, size: 0x8, addend: 0x0, symName: __ZN6sentry13SentryOptions22get_property_list_bindEPvPj.cold.1, symObjAddr: 0xE4F4, symBinAddr: 0xF98F0, symSize: 0x28 }
  - { offset: 0x685A0, size: 0x8, addend: 0x0, symName: __ZN6sentry13SentryOptions23free_property_list_bindEPvPK23GDExtensionPropertyInfoj, symObjAddr: 0x4B14, symBinAddr: 0x8B14, symSize: 0x58 }
  - { offset: 0x686BA, size: 0x8, addend: 0x0, symName: __ZN6sentry13SentryOptions24property_can_revert_bindEPvPKv, symObjAddr: 0x4B6C, symBinAddr: 0x8B6C, symSize: 0x8 }
  - { offset: 0x686EC, size: 0x8, addend: 0x0, symName: __ZN6sentry13SentryOptions24property_get_revert_bindEPvPKvS1_, symObjAddr: 0x4B74, symBinAddr: 0x8B74, symSize: 0x8 }
  - { offset: 0x6872C, size: 0x8, addend: 0x0, symName: __ZN6sentry13SentryOptions22validate_property_bindEPvP23GDExtensionPropertyInfo, symObjAddr: 0x4B7C, symBinAddr: 0x8B7C, symSize: 0xB8 }
  - { offset: 0x687EF, size: 0x8, addend: 0x0, symName: __ZN6sentry13SentryOptions17notification_bindEPvih, symObjAddr: 0x4C34, symBinAddr: 0x8C34, symSize: 0x4 }
  - { offset: 0x6882E, size: 0x8, addend: 0x0, symName: __ZN6sentry13SentryOptions14to_string_bindEPvPhS1_, symObjAddr: 0x4C38, symBinAddr: 0x8C38, symSize: 0x7C }
  - { offset: 0x688C9, size: 0x8, addend: 0x0, symName: __ZN5godot7ClassDB21_create_instance_funcIN6sentry13SentryOptionsEEEPvS4_h, symObjAddr: 0x4CB4, symBinAddr: 0x8CB4, symSize: 0x80 }
  - { offset: 0x68957, size: 0x8, addend: 0x0, symName: __ZN5godot7ClassDB21_create_instance_funcIN6sentry13SentryOptionsEEEPvS4_h.cold.1, symObjAddr: 0xE51C, symBinAddr: 0xF9918, symSize: 0x5C }
  - { offset: 0x689AF, size: 0x8, addend: 0x0, symName: __ZN6sentry13SentryOptions4freeEPvS1_, symObjAddr: 0x4D34, symBinAddr: 0x8D34, symSize: 0x3C }
  - { offset: 0x68A0A, size: 0x8, addend: 0x0, symName: __ZN5godot7ClassDB23_recreate_instance_funcIN6sentry13SentryOptionsEEEPvS4_S4_, symObjAddr: 0x4D70, symBinAddr: 0x8D70, symSize: 0x8 }
  - { offset: 0x68A45, size: 0x8, addend: 0x0, symName: __ZN6sentry13SentryOptions28_gde_binding_create_callbackEPvS1_, symObjAddr: 0x4D78, symBinAddr: 0x8D78, symSize: 0x8 }
  - { offset: 0x68A70, size: 0x8, addend: 0x0, symName: __ZN6sentry13SentryOptions26_gde_binding_free_callbackEPvS1_S1_, symObjAddr: 0x4D80, symBinAddr: 0x8D80, symSize: 0x4 }
  - { offset: 0x68AA3, size: 0x8, addend: 0x0, symName: __ZN6sentry13SentryOptions31_gde_binding_reference_callbackEPvS1_h, symObjAddr: 0x4D84, symBinAddr: 0x8D84, symSize: 0x8 }
  - { offset: 0x68AED, size: 0x8, addend: 0x0, symName: __ZN5godot7ClassDB15_register_classIN6sentry13RuntimeConfigELb0EEEvbbb.cold.1, symObjAddr: 0xE578, symBinAddr: 0xF9974, symSize: 0x5C }
  - { offset: 0x68B1B, size: 0x8, addend: 0x0, symName: __ZN5godot7ClassDB15_register_classIN6sentry13RuntimeConfigELb0EEEvbbb.cold.2, symObjAddr: 0xE5D4, symBinAddr: 0xF99D0, symSize: 0x58 }
  - { offset: 0x68B49, size: 0x8, addend: 0x0, symName: __ZN5godot7ClassDB15_register_classIN6sentry13RuntimeConfigELb0EEEvbbb.cold.3, symObjAddr: 0xE62C, symBinAddr: 0xF9A28, symSize: 0x58 }
  - { offset: 0x68B8C, size: 0x8, addend: 0x0, symName: __ZN5godot7ClassDB15_register_classIN6sentry13RuntimeConfigELb0EEEvbbb.cold.4, symObjAddr: 0xE684, symBinAddr: 0xF9A80, symSize: 0x58 }
  - { offset: 0x68BBB, size: 0x8, addend: 0x0, symName: __ZN6sentry13RuntimeConfig8set_bindEPvPKvS3_, symObjAddr: 0x50B4, symBinAddr: 0x90B4, symSize: 0x8 }
  - { offset: 0x68BFB, size: 0x8, addend: 0x0, symName: __ZN6sentry13RuntimeConfig8get_bindEPvPKvS1_, symObjAddr: 0x50BC, symBinAddr: 0x90BC, symSize: 0x8 }
  - { offset: 0x68C3B, size: 0x8, addend: 0x0, symName: __ZN6sentry13RuntimeConfig22get_property_list_bindEPvPj, symObjAddr: 0x50C4, symBinAddr: 0x90C4, symSize: 0x40 }
  - { offset: 0x68CC7, size: 0x8, addend: 0x0, symName: __ZN6sentry13RuntimeConfig22get_property_list_bindEPvPj.cold.1, symObjAddr: 0xE6DC, symBinAddr: 0xF9AD8, symSize: 0x28 }
  - { offset: 0x68CDF, size: 0x8, addend: 0x0, symName: __ZN6sentry13RuntimeConfig23free_property_list_bindEPvPK23GDExtensionPropertyInfoj, symObjAddr: 0x5104, symBinAddr: 0x9104, symSize: 0x58 }
  - { offset: 0x68DF9, size: 0x8, addend: 0x0, symName: __ZN6sentry13RuntimeConfig24property_can_revert_bindEPvPKv, symObjAddr: 0x515C, symBinAddr: 0x915C, symSize: 0x8 }
  - { offset: 0x68E2B, size: 0x8, addend: 0x0, symName: __ZN6sentry13RuntimeConfig24property_get_revert_bindEPvPKvS1_, symObjAddr: 0x5164, symBinAddr: 0x9164, symSize: 0x8 }
  - { offset: 0x68E6B, size: 0x8, addend: 0x0, symName: __ZN6sentry13RuntimeConfig22validate_property_bindEPvP23GDExtensionPropertyInfo, symObjAddr: 0x516C, symBinAddr: 0x916C, symSize: 0xB8 }
  - { offset: 0x68F2E, size: 0x8, addend: 0x0, symName: __ZN6sentry13RuntimeConfig17notification_bindEPvih, symObjAddr: 0x5224, symBinAddr: 0x9224, symSize: 0x4 }
  - { offset: 0x68F6D, size: 0x8, addend: 0x0, symName: __ZN6sentry13RuntimeConfig14to_string_bindEPvPhS1_, symObjAddr: 0x5228, symBinAddr: 0x9228, symSize: 0x7C }
  - { offset: 0x69008, size: 0x8, addend: 0x0, symName: __ZN5godot7ClassDB21_create_instance_funcIN6sentry13RuntimeConfigEEEPvS4_h, symObjAddr: 0x52A4, symBinAddr: 0x92A4, symSize: 0x80 }
  - { offset: 0x69096, size: 0x8, addend: 0x0, symName: __ZN5godot7ClassDB21_create_instance_funcIN6sentry13RuntimeConfigEEEPvS4_h.cold.1, symObjAddr: 0xE704, symBinAddr: 0xF9B00, symSize: 0x5C }
  - { offset: 0x690EE, size: 0x8, addend: 0x0, symName: __ZN6sentry13RuntimeConfig4freeEPvS1_, symObjAddr: 0x5324, symBinAddr: 0x9324, symSize: 0x3C }
  - { offset: 0x69149, size: 0x8, addend: 0x0, symName: __ZN5godot7ClassDB23_recreate_instance_funcIN6sentry13RuntimeConfigEEEPvS4_S4_, symObjAddr: 0x5360, symBinAddr: 0x9360, symSize: 0x8 }
  - { offset: 0x69184, size: 0x8, addend: 0x0, symName: __ZN6sentry13RuntimeConfig28_gde_binding_create_callbackEPvS1_, symObjAddr: 0x5368, symBinAddr: 0x9368, symSize: 0x8 }
  - { offset: 0x691AF, size: 0x8, addend: 0x0, symName: __ZN6sentry13RuntimeConfig26_gde_binding_free_callbackEPvS1_S1_, symObjAddr: 0x5370, symBinAddr: 0x9370, symSize: 0x4 }
  - { offset: 0x691E2, size: 0x8, addend: 0x0, symName: __ZN6sentry13RuntimeConfig31_gde_binding_reference_callbackEPvS1_h, symObjAddr: 0x5374, symBinAddr: 0x9374, symSize: 0x8 }
  - { offset: 0x6922C, size: 0x8, addend: 0x0, symName: __ZN5godot7ClassDB15_register_classIN6sentry10SentryUserELb0EEEvbbb.cold.1, symObjAddr: 0xE760, symBinAddr: 0xF9B5C, symSize: 0x5C }
  - { offset: 0x6925A, size: 0x8, addend: 0x0, symName: __ZN5godot7ClassDB15_register_classIN6sentry10SentryUserELb0EEEvbbb.cold.2, symObjAddr: 0xE7BC, symBinAddr: 0xF9BB8, symSize: 0x58 }
  - { offset: 0x69288, size: 0x8, addend: 0x0, symName: __ZN5godot7ClassDB15_register_classIN6sentry10SentryUserELb0EEEvbbb.cold.3, symObjAddr: 0xE814, symBinAddr: 0xF9C10, symSize: 0x58 }
  - { offset: 0x692CB, size: 0x8, addend: 0x0, symName: __ZN5godot7ClassDB15_register_classIN6sentry10SentryUserELb0EEEvbbb.cold.4, symObjAddr: 0xE86C, symBinAddr: 0xF9C68, symSize: 0x58 }
  - { offset: 0x692FA, size: 0x8, addend: 0x0, symName: __ZN6sentry10SentryUser8set_bindEPvPKvS3_, symObjAddr: 0x56A8, symBinAddr: 0x96A8, symSize: 0x8 }
  - { offset: 0x6933A, size: 0x8, addend: 0x0, symName: __ZN6sentry10SentryUser8get_bindEPvPKvS1_, symObjAddr: 0x56B0, symBinAddr: 0x96B0, symSize: 0x8 }
  - { offset: 0x6937A, size: 0x8, addend: 0x0, symName: __ZN6sentry10SentryUser22get_property_list_bindEPvPj, symObjAddr: 0x56B8, symBinAddr: 0x96B8, symSize: 0x40 }
  - { offset: 0x69406, size: 0x8, addend: 0x0, symName: __ZN6sentry10SentryUser22get_property_list_bindEPvPj.cold.1, symObjAddr: 0xE8C4, symBinAddr: 0xF9CC0, symSize: 0x28 }
  - { offset: 0x6941E, size: 0x8, addend: 0x0, symName: __ZN6sentry10SentryUser23free_property_list_bindEPvPK23GDExtensionPropertyInfoj, symObjAddr: 0x56F8, symBinAddr: 0x96F8, symSize: 0x58 }
  - { offset: 0x69538, size: 0x8, addend: 0x0, symName: __ZN6sentry10SentryUser24property_can_revert_bindEPvPKv, symObjAddr: 0x5750, symBinAddr: 0x9750, symSize: 0x8 }
  - { offset: 0x6956A, size: 0x8, addend: 0x0, symName: __ZN6sentry10SentryUser24property_get_revert_bindEPvPKvS1_, symObjAddr: 0x5758, symBinAddr: 0x9758, symSize: 0x8 }
  - { offset: 0x695AA, size: 0x8, addend: 0x0, symName: __ZN6sentry10SentryUser22validate_property_bindEPvP23GDExtensionPropertyInfo, symObjAddr: 0x5760, symBinAddr: 0x9760, symSize: 0xB8 }
  - { offset: 0x6966D, size: 0x8, addend: 0x0, symName: __ZN6sentry10SentryUser17notification_bindEPvih, symObjAddr: 0x5818, symBinAddr: 0x9818, symSize: 0x4 }
  - { offset: 0x696AC, size: 0x8, addend: 0x0, symName: __ZN6sentry10SentryUser14to_string_bindEPvPhS1_, symObjAddr: 0x581C, symBinAddr: 0x981C, symSize: 0x7C }
  - { offset: 0x6976A, size: 0x8, addend: 0x0, symName: __ZN5godot7ClassDB21_create_instance_funcIN6sentry10SentryUserEEEPvS4_h, symObjAddr: 0x5898, symBinAddr: 0x9898, symSize: 0x110 }
  - { offset: 0x69896, size: 0x8, addend: 0x0, symName: __ZN5godot7ClassDB21_create_instance_funcIN6sentry10SentryUserEEEPvS4_h.cold.1, symObjAddr: 0xE8EC, symBinAddr: 0xF9CE8, symSize: 0x5C }
  - { offset: 0x698EE, size: 0x8, addend: 0x0, symName: __ZN6sentry10SentryUser4freeEPvS1_, symObjAddr: 0x59A8, symBinAddr: 0x99A8, symSize: 0x3C }
  - { offset: 0x69949, size: 0x8, addend: 0x0, symName: __ZN5godot7ClassDB23_recreate_instance_funcIN6sentry10SentryUserEEEPvS4_S4_, symObjAddr: 0x59E4, symBinAddr: 0x99E4, symSize: 0x8 }
  - { offset: 0x69984, size: 0x8, addend: 0x0, symName: __ZN6sentry10SentryUser28_gde_binding_create_callbackEPvS1_, symObjAddr: 0x59EC, symBinAddr: 0x99EC, symSize: 0x8 }
  - { offset: 0x699AF, size: 0x8, addend: 0x0, symName: __ZN6sentry10SentryUser26_gde_binding_free_callbackEPvS1_S1_, symObjAddr: 0x59F4, symBinAddr: 0x99F4, symSize: 0x4 }
  - { offset: 0x699E2, size: 0x8, addend: 0x0, symName: __ZN6sentry10SentryUser31_gde_binding_reference_callbackEPvS1_h, symObjAddr: 0x59F8, symBinAddr: 0x99F8, symSize: 0x8 }
  - { offset: 0x69A17, size: 0x8, addend: 0x0, symName: __ZNK6sentry10SentryUser19_is_extension_classEv, symObjAddr: 0x5A00, symBinAddr: 0x9A00, symSize: 0x8 }
  - { offset: 0x69A3E, size: 0x8, addend: 0x0, symName: __ZN6sentry10SentryUserD1Ev, symObjAddr: 0x5A08, symBinAddr: 0x9A08, symSize: 0x4 }
  - { offset: 0x69A61, size: 0x8, addend: 0x0, symName: __ZN6sentry10SentryUserD1Ev, symObjAddr: 0x5A08, symBinAddr: 0x9A08, symSize: 0x4 }
  - { offset: 0x69A74, size: 0x8, addend: 0x0, symName: __ZN6sentry10SentryUserD2Ev, symObjAddr: 0x5A20, symBinAddr: 0x9A20, symSize: 0xB4 }
  - { offset: 0x69C23, size: 0x8, addend: 0x0, symName: __ZN6sentry10SentryUserD0Ev, symObjAddr: 0x5A0C, symBinAddr: 0x9A0C, symSize: 0x14 }
  - { offset: 0x69C80, size: 0x8, addend: 0x0, symName: __ZN6sentry10SentryUserD2Ev.cold.1, symObjAddr: 0xE948, symBinAddr: 0xF9D44, symSize: 0x1C }
  - { offset: 0x69C9B, size: 0x8, addend: 0x0, symName: __ZN6sentry10SentryUserD2Ev.cold.1, symObjAddr: 0xE948, symBinAddr: 0xF9D44, symSize: 0x1C }
  - { offset: 0x69CAF, size: 0x8, addend: 0x0, symName: __ZN6sentry10SentryUserD2Ev.cold.1, symObjAddr: 0xE948, symBinAddr: 0xF9D44, symSize: 0x1C }
  - { offset: 0x69CC3, size: 0x8, addend: 0x0, symName: __ZN6sentry10SentryUserD2Ev.cold.1, symObjAddr: 0xE948, symBinAddr: 0xF9D44, symSize: 0x1C }
  - { offset: 0x69CD7, size: 0x8, addend: 0x0, symName: __ZN6sentry10SentryUserD2Ev.cold.1, symObjAddr: 0xE948, symBinAddr: 0xF9D44, symSize: 0x1C }
  - { offset: 0x69CEC, size: 0x8, addend: 0x0, symName: __ZN6sentry10SentryUserD2Ev.cold.1, symObjAddr: 0xE948, symBinAddr: 0xF9D44, symSize: 0x1C }
  - { offset: 0x69D18, size: 0x8, addend: 0x0, symName: __ZN5godot7ClassDB15_register_classIN6sentry15SentryTimestampELb0EEEvbbb.cold.1, symObjAddr: 0xE964, symBinAddr: 0xF9D60, symSize: 0x5C }
  - { offset: 0x69D46, size: 0x8, addend: 0x0, symName: __ZN5godot7ClassDB15_register_classIN6sentry15SentryTimestampELb0EEEvbbb.cold.2, symObjAddr: 0xE9C0, symBinAddr: 0xF9DBC, symSize: 0x58 }
  - { offset: 0x69D74, size: 0x8, addend: 0x0, symName: __ZN5godot7ClassDB15_register_classIN6sentry15SentryTimestampELb0EEEvbbb.cold.3, symObjAddr: 0xEA18, symBinAddr: 0xF9E14, symSize: 0x58 }
  - { offset: 0x69DB7, size: 0x8, addend: 0x0, symName: __ZN5godot7ClassDB15_register_classIN6sentry15SentryTimestampELb0EEEvbbb.cold.4, symObjAddr: 0xEA70, symBinAddr: 0xF9E6C, symSize: 0x58 }
  - { offset: 0x69DE6, size: 0x8, addend: 0x0, symName: __ZN6sentry15SentryTimestamp8set_bindEPvPKvS3_, symObjAddr: 0x5E00, symBinAddr: 0x9E00, symSize: 0x8 }
  - { offset: 0x69E26, size: 0x8, addend: 0x0, symName: __ZN6sentry15SentryTimestamp8get_bindEPvPKvS1_, symObjAddr: 0x5E08, symBinAddr: 0x9E08, symSize: 0x8 }
  - { offset: 0x69E66, size: 0x8, addend: 0x0, symName: __ZN6sentry15SentryTimestamp22get_property_list_bindEPvPj, symObjAddr: 0x5E10, symBinAddr: 0x9E10, symSize: 0x40 }
  - { offset: 0x69EF2, size: 0x8, addend: 0x0, symName: __ZN6sentry15SentryTimestamp22get_property_list_bindEPvPj.cold.1, symObjAddr: 0xEAC8, symBinAddr: 0xF9EC4, symSize: 0x28 }
  - { offset: 0x69F0A, size: 0x8, addend: 0x0, symName: __ZN6sentry15SentryTimestamp23free_property_list_bindEPvPK23GDExtensionPropertyInfoj, symObjAddr: 0x5E50, symBinAddr: 0x9E50, symSize: 0x58 }
  - { offset: 0x6A024, size: 0x8, addend: 0x0, symName: __ZN6sentry15SentryTimestamp24property_can_revert_bindEPvPKv, symObjAddr: 0x5EA8, symBinAddr: 0x9EA8, symSize: 0x8 }
  - { offset: 0x6A056, size: 0x8, addend: 0x0, symName: __ZN6sentry15SentryTimestamp24property_get_revert_bindEPvPKvS1_, symObjAddr: 0x5EB0, symBinAddr: 0x9EB0, symSize: 0x8 }
  - { offset: 0x6A096, size: 0x8, addend: 0x0, symName: __ZN6sentry15SentryTimestamp22validate_property_bindEPvP23GDExtensionPropertyInfo, symObjAddr: 0x5EB8, symBinAddr: 0x9EB8, symSize: 0xB8 }
  - { offset: 0x6A159, size: 0x8, addend: 0x0, symName: __ZN6sentry15SentryTimestamp17notification_bindEPvih, symObjAddr: 0x5F70, symBinAddr: 0x9F70, symSize: 0x4 }
  - { offset: 0x6A1AE, size: 0x8, addend: 0x0, symName: __ZN6sentry15SentryTimestamp14to_string_bindEPvPhS1_, symObjAddr: 0x5F74, symBinAddr: 0x9F74, symSize: 0x7C }
  - { offset: 0x6A288, size: 0x8, addend: 0x0, symName: __ZN5godot7ClassDB21_create_instance_funcIN6sentry15SentryTimestampEEEPvS4_h, symObjAddr: 0x5FF0, symBinAddr: 0x9FF0, symSize: 0xE8 }
  - { offset: 0x6A3B4, size: 0x8, addend: 0x0, symName: __ZN5godot7ClassDB21_create_instance_funcIN6sentry15SentryTimestampEEEPvS4_h.cold.1, symObjAddr: 0xEAF0, symBinAddr: 0xF9EEC, symSize: 0x5C }
  - { offset: 0x6A40C, size: 0x8, addend: 0x0, symName: __ZN6sentry15SentryTimestamp4freeEPvS1_, symObjAddr: 0x60D8, symBinAddr: 0xA0D8, symSize: 0x3C }
  - { offset: 0x6A467, size: 0x8, addend: 0x0, symName: __ZN5godot7ClassDB23_recreate_instance_funcIN6sentry15SentryTimestampEEEPvS4_S4_, symObjAddr: 0x6114, symBinAddr: 0xA114, symSize: 0x8 }
  - { offset: 0x6A4A2, size: 0x8, addend: 0x0, symName: __ZN6sentry15SentryTimestamp28_gde_binding_create_callbackEPvS1_, symObjAddr: 0x611C, symBinAddr: 0xA11C, symSize: 0x8 }
  - { offset: 0x6A4CD, size: 0x8, addend: 0x0, symName: __ZN6sentry15SentryTimestamp26_gde_binding_free_callbackEPvS1_S1_, symObjAddr: 0x6124, symBinAddr: 0xA124, symSize: 0x4 }
  - { offset: 0x6A500, size: 0x8, addend: 0x0, symName: __ZN6sentry15SentryTimestamp31_gde_binding_reference_callbackEPvS1_h, symObjAddr: 0x6128, symBinAddr: 0xA128, symSize: 0x8 }
  - { offset: 0x6A535, size: 0x8, addend: 0x0, symName: __ZNK6sentry15SentryTimestamp19_is_extension_classEv, symObjAddr: 0x6130, symBinAddr: 0xA130, symSize: 0x8 }
  - { offset: 0x6A578, size: 0x8, addend: 0x0, symName: __ZN6sentry15SentryTimestampD1Ev, symObjAddr: 0x6138, symBinAddr: 0xA138, symSize: 0x8C }
  - { offset: 0x6A716, size: 0x8, addend: 0x0, symName: __ZN6sentry15SentryTimestampD1Ev.cold.1, symObjAddr: 0xEB4C, symBinAddr: 0xF9F48, symSize: 0x1C }
  - { offset: 0x6A731, size: 0x8, addend: 0x0, symName: __ZN6sentry15SentryTimestampD1Ev.cold.1, symObjAddr: 0xEB4C, symBinAddr: 0xF9F48, symSize: 0x1C }
  - { offset: 0x6A745, size: 0x8, addend: 0x0, symName: __ZN6sentry15SentryTimestampD1Ev.cold.1, symObjAddr: 0xEB4C, symBinAddr: 0xF9F48, symSize: 0x1C }
  - { offset: 0x6A759, size: 0x8, addend: 0x0, symName: __ZN6sentry15SentryTimestampD1Ev.cold.1, symObjAddr: 0xEB4C, symBinAddr: 0xF9F48, symSize: 0x1C }
  - { offset: 0x6A76D, size: 0x8, addend: 0x0, symName: __ZN6sentry15SentryTimestampD1Ev.cold.1, symObjAddr: 0xEB4C, symBinAddr: 0xF9F48, symSize: 0x1C }
  - { offset: 0x6A781, size: 0x8, addend: 0x0, symName: __ZN6sentry15SentryTimestampD1Ev.cold.1, symObjAddr: 0xEB4C, symBinAddr: 0xF9F48, symSize: 0x1C }
  - { offset: 0x6A796, size: 0x8, addend: 0x0, symName: __ZN6sentry15SentryTimestampD1Ev.cold.1, symObjAddr: 0xEB4C, symBinAddr: 0xF9F48, symSize: 0x1C }
  - { offset: 0x6A7CA, size: 0x8, addend: 0x0, symName: __ZN6sentry15SentryTimestampD0Ev, symObjAddr: 0x61C4, symBinAddr: 0xA1C4, symSize: 0x74 }
  - { offset: 0x6A915, size: 0x8, addend: 0x0, symName: __ZN6sentry15SentryTimestampD0Ev.cold.1, symObjAddr: 0xEB68, symBinAddr: 0xF9F64, symSize: 0x1C }
  - { offset: 0x6A930, size: 0x8, addend: 0x0, symName: __ZN6sentry15SentryTimestampD0Ev.cold.1, symObjAddr: 0xEB68, symBinAddr: 0xF9F64, symSize: 0x1C }
  - { offset: 0x6A944, size: 0x8, addend: 0x0, symName: __ZN6sentry15SentryTimestampD0Ev.cold.1, symObjAddr: 0xEB68, symBinAddr: 0xF9F64, symSize: 0x1C }
  - { offset: 0x6A958, size: 0x8, addend: 0x0, symName: __ZN6sentry15SentryTimestampD0Ev.cold.1, symObjAddr: 0xEB68, symBinAddr: 0xF9F64, symSize: 0x1C }
  - { offset: 0x6A96C, size: 0x8, addend: 0x0, symName: __ZN6sentry15SentryTimestampD0Ev.cold.1, symObjAddr: 0xEB68, symBinAddr: 0xF9F64, symSize: 0x1C }
  - { offset: 0x6A980, size: 0x8, addend: 0x0, symName: __ZN6sentry15SentryTimestampD0Ev.cold.1, symObjAddr: 0xEB68, symBinAddr: 0xF9F64, symSize: 0x1C }
  - { offset: 0x6A994, size: 0x8, addend: 0x0, symName: __ZN6sentry15SentryTimestampD0Ev.cold.1, symObjAddr: 0xEB68, symBinAddr: 0xF9F64, symSize: 0x1C }
  - { offset: 0x6A9A9, size: 0x8, addend: 0x0, symName: __ZN6sentry15SentryTimestampD0Ev.cold.1, symObjAddr: 0xEB68, symBinAddr: 0xF9F64, symSize: 0x1C }
  - { offset: 0x6A9D7, size: 0x8, addend: 0x0, symName: __ZN5godot7ClassDB15_register_classIN6sentry12SentryLoggerELb0EEEvbbb.cold.1, symObjAddr: 0xEB84, symBinAddr: 0xF9F80, symSize: 0x5C }
  - { offset: 0x6AA05, size: 0x8, addend: 0x0, symName: __ZN5godot7ClassDB15_register_classIN6sentry12SentryLoggerELb0EEEvbbb.cold.2, symObjAddr: 0xEBE0, symBinAddr: 0xF9FDC, symSize: 0x58 }
  - { offset: 0x6AA33, size: 0x8, addend: 0x0, symName: __ZN5godot7ClassDB15_register_classIN6sentry12SentryLoggerELb0EEEvbbb.cold.3, symObjAddr: 0xEC38, symBinAddr: 0xFA034, symSize: 0x58 }
  - { offset: 0x6AA76, size: 0x8, addend: 0x0, symName: __ZN5godot7ClassDB15_register_classIN6sentry12SentryLoggerELb0EEEvbbb.cold.4, symObjAddr: 0xEC90, symBinAddr: 0xFA08C, symSize: 0x58 }
  - { offset: 0x6AAA5, size: 0x8, addend: 0x0, symName: __ZN6sentry12SentryLogger8set_bindEPvPKvS3_, symObjAddr: 0x6564, symBinAddr: 0xA564, symSize: 0x8 }
  - { offset: 0x6AAE5, size: 0x8, addend: 0x0, symName: __ZN6sentry12SentryLogger8get_bindEPvPKvS1_, symObjAddr: 0x656C, symBinAddr: 0xA56C, symSize: 0x8 }
  - { offset: 0x6AB25, size: 0x8, addend: 0x0, symName: __ZN6sentry12SentryLogger22get_property_list_bindEPvPj, symObjAddr: 0x6574, symBinAddr: 0xA574, symSize: 0x40 }
  - { offset: 0x6ABB1, size: 0x8, addend: 0x0, symName: __ZN6sentry12SentryLogger22get_property_list_bindEPvPj.cold.1, symObjAddr: 0xECE8, symBinAddr: 0xFA0E4, symSize: 0x28 }
  - { offset: 0x6ABC9, size: 0x8, addend: 0x0, symName: __ZN6sentry12SentryLogger23free_property_list_bindEPvPK23GDExtensionPropertyInfoj, symObjAddr: 0x65B4, symBinAddr: 0xA5B4, symSize: 0x58 }
  - { offset: 0x6ACE3, size: 0x8, addend: 0x0, symName: __ZN6sentry12SentryLogger24property_can_revert_bindEPvPKv, symObjAddr: 0x660C, symBinAddr: 0xA60C, symSize: 0x8 }
  - { offset: 0x6AD15, size: 0x8, addend: 0x0, symName: __ZN6sentry12SentryLogger24property_get_revert_bindEPvPKvS1_, symObjAddr: 0x6614, symBinAddr: 0xA614, symSize: 0x8 }
  - { offset: 0x6AD55, size: 0x8, addend: 0x0, symName: __ZN6sentry12SentryLogger22validate_property_bindEPvP23GDExtensionPropertyInfo, symObjAddr: 0x661C, symBinAddr: 0xA61C, symSize: 0xB8 }
  - { offset: 0x6AE18, size: 0x8, addend: 0x0, symName: __ZN6sentry12SentryLogger17notification_bindEPvih, symObjAddr: 0x66D4, symBinAddr: 0xA6D4, symSize: 0x4 }
  - { offset: 0x6AE57, size: 0x8, addend: 0x0, symName: __ZN6sentry12SentryLogger14to_string_bindEPvPhS1_, symObjAddr: 0x66D8, symBinAddr: 0xA6D8, symSize: 0x7C }
  - { offset: 0x6AEF2, size: 0x8, addend: 0x0, symName: __ZN5godot7ClassDB21_create_instance_funcIN6sentry12SentryLoggerEEEPvS4_h, symObjAddr: 0x6754, symBinAddr: 0xA754, symSize: 0x80 }
  - { offset: 0x6AF80, size: 0x8, addend: 0x0, symName: __ZN5godot7ClassDB21_create_instance_funcIN6sentry12SentryLoggerEEEPvS4_h.cold.1, symObjAddr: 0xED10, symBinAddr: 0xFA10C, symSize: 0x5C }
  - { offset: 0x6AFD8, size: 0x8, addend: 0x0, symName: __ZN6sentry12SentryLogger4freeEPvS1_, symObjAddr: 0x67D4, symBinAddr: 0xA7D4, symSize: 0x3C }
  - { offset: 0x6B033, size: 0x8, addend: 0x0, symName: __ZN5godot7ClassDB23_recreate_instance_funcIN6sentry12SentryLoggerEEEPvS4_S4_, symObjAddr: 0x6810, symBinAddr: 0xA810, symSize: 0x8 }
  - { offset: 0x6B06E, size: 0x8, addend: 0x0, symName: __ZN6sentry12SentryLogger28_gde_binding_create_callbackEPvS1_, symObjAddr: 0x6818, symBinAddr: 0xA818, symSize: 0x8 }
  - { offset: 0x6B099, size: 0x8, addend: 0x0, symName: __ZN6sentry12SentryLogger26_gde_binding_free_callbackEPvS1_S1_, symObjAddr: 0x6820, symBinAddr: 0xA820, symSize: 0x4 }
  - { offset: 0x6B0CC, size: 0x8, addend: 0x0, symName: __ZN6sentry12SentryLogger31_gde_binding_reference_callbackEPvS1_h, symObjAddr: 0x6824, symBinAddr: 0xA824, symSize: 0x8 }
  - { offset: 0x6B116, size: 0x8, addend: 0x0, symName: __ZN5godot7ClassDB15_register_classIN6sentry13SentryMetricsELb0EEEvbbb.cold.1, symObjAddr: 0xED6C, symBinAddr: 0xFA168, symSize: 0x5C }
  - { offset: 0x6B144, size: 0x8, addend: 0x0, symName: __ZN5godot7ClassDB15_register_classIN6sentry13SentryMetricsELb0EEEvbbb.cold.2, symObjAddr: 0xEDC8, symBinAddr: 0xFA1C4, symSize: 0x58 }
  - { offset: 0x6B172, size: 0x8, addend: 0x0, symName: __ZN5godot7ClassDB15_register_classIN6sentry13SentryMetricsELb0EEEvbbb.cold.3, symObjAddr: 0xEE20, symBinAddr: 0xFA21C, symSize: 0x58 }
  - { offset: 0x6B1B5, size: 0x8, addend: 0x0, symName: __ZN5godot7ClassDB15_register_classIN6sentry13SentryMetricsELb0EEEvbbb.cold.4, symObjAddr: 0xEE78, symBinAddr: 0xFA274, symSize: 0x58 }
  - { offset: 0x6B1E4, size: 0x8, addend: 0x0, symName: __ZN6sentry13SentryMetrics8set_bindEPvPKvS3_, symObjAddr: 0x6B58, symBinAddr: 0xAB58, symSize: 0x8 }
  - { offset: 0x6B224, size: 0x8, addend: 0x0, symName: __ZN6sentry13SentryMetrics8get_bindEPvPKvS1_, symObjAddr: 0x6B60, symBinAddr: 0xAB60, symSize: 0x8 }
  - { offset: 0x6B264, size: 0x8, addend: 0x0, symName: __ZN6sentry13SentryMetrics22get_property_list_bindEPvPj, symObjAddr: 0x6B68, symBinAddr: 0xAB68, symSize: 0x40 }
  - { offset: 0x6B2F0, size: 0x8, addend: 0x0, symName: __ZN6sentry13SentryMetrics22get_property_list_bindEPvPj.cold.1, symObjAddr: 0xEED0, symBinAddr: 0xFA2CC, symSize: 0x28 }
  - { offset: 0x6B308, size: 0x8, addend: 0x0, symName: __ZN6sentry13SentryMetrics23free_property_list_bindEPvPK23GDExtensionPropertyInfoj, symObjAddr: 0x6BA8, symBinAddr: 0xABA8, symSize: 0x58 }
  - { offset: 0x6B422, size: 0x8, addend: 0x0, symName: __ZN6sentry13SentryMetrics24property_can_revert_bindEPvPKv, symObjAddr: 0x6C00, symBinAddr: 0xAC00, symSize: 0x8 }
  - { offset: 0x6B454, size: 0x8, addend: 0x0, symName: __ZN6sentry13SentryMetrics24property_get_revert_bindEPvPKvS1_, symObjAddr: 0x6C08, symBinAddr: 0xAC08, symSize: 0x8 }
  - { offset: 0x6B494, size: 0x8, addend: 0x0, symName: __ZN6sentry13SentryMetrics22validate_property_bindEPvP23GDExtensionPropertyInfo, symObjAddr: 0x6C10, symBinAddr: 0xAC10, symSize: 0xB8 }
  - { offset: 0x6B557, size: 0x8, addend: 0x0, symName: __ZN6sentry13SentryMetrics17notification_bindEPvih, symObjAddr: 0x6CC8, symBinAddr: 0xACC8, symSize: 0x4 }
  - { offset: 0x6B596, size: 0x8, addend: 0x0, symName: __ZN6sentry13SentryMetrics14to_string_bindEPvPhS1_, symObjAddr: 0x6CCC, symBinAddr: 0xACCC, symSize: 0x7C }
  - { offset: 0x6B67F, size: 0x8, addend: 0x0, symName: __ZN5godot7ClassDB21_create_instance_funcIN6sentry13SentryMetricsEEEPvS4_h, symObjAddr: 0x6D48, symBinAddr: 0xAD48, symSize: 0xE4 }
  - { offset: 0x6B786, size: 0x8, addend: 0x0, symName: __ZN5godot7ClassDB21_create_instance_funcIN6sentry13SentryMetricsEEEPvS4_h.cold.1, symObjAddr: 0xEEF8, symBinAddr: 0xFA2F4, symSize: 0x5C }
  - { offset: 0x6B7DE, size: 0x8, addend: 0x0, symName: __ZN6sentry13SentryMetrics4freeEPvS1_, symObjAddr: 0x6E2C, symBinAddr: 0xAE2C, symSize: 0x3C }
  - { offset: 0x6B839, size: 0x8, addend: 0x0, symName: __ZN5godot7ClassDB23_recreate_instance_funcIN6sentry13SentryMetricsEEEPvS4_S4_, symObjAddr: 0x6E68, symBinAddr: 0xAE68, symSize: 0x8 }
  - { offset: 0x6B874, size: 0x8, addend: 0x0, symName: __ZN6sentry13SentryMetrics28_gde_binding_create_callbackEPvS1_, symObjAddr: 0x6E70, symBinAddr: 0xAE70, symSize: 0x8 }
  - { offset: 0x6B89F, size: 0x8, addend: 0x0, symName: __ZN6sentry13SentryMetrics26_gde_binding_free_callbackEPvS1_S1_, symObjAddr: 0x6E78, symBinAddr: 0xAE78, symSize: 0x4 }
  - { offset: 0x6B8D2, size: 0x8, addend: 0x0, symName: __ZN6sentry13SentryMetrics31_gde_binding_reference_callbackEPvS1_h, symObjAddr: 0x6E7C, symBinAddr: 0xAE7C, symSize: 0x8 }
  - { offset: 0x6B907, size: 0x8, addend: 0x0, symName: __ZNK6sentry13SentryMetrics19_is_extension_classEv, symObjAddr: 0x6E84, symBinAddr: 0xAE84, symSize: 0x8 }
  - { offset: 0x6B94A, size: 0x8, addend: 0x0, symName: __ZN6sentry13SentryMetricsD1Ev, symObjAddr: 0x6E8C, symBinAddr: 0xAE8C, symSize: 0x8C }
  - { offset: 0x6BAD2, size: 0x8, addend: 0x0, symName: __ZN6sentry13SentryMetricsD1Ev.cold.1, symObjAddr: 0xEF54, symBinAddr: 0xFA350, symSize: 0x1C }
  - { offset: 0x6BAED, size: 0x8, addend: 0x0, symName: __ZN6sentry13SentryMetricsD1Ev.cold.1, symObjAddr: 0xEF54, symBinAddr: 0xFA350, symSize: 0x1C }
  - { offset: 0x6BB01, size: 0x8, addend: 0x0, symName: __ZN6sentry13SentryMetricsD1Ev.cold.1, symObjAddr: 0xEF54, symBinAddr: 0xFA350, symSize: 0x1C }
  - { offset: 0x6BB15, size: 0x8, addend: 0x0, symName: __ZN6sentry13SentryMetricsD1Ev.cold.1, symObjAddr: 0xEF54, symBinAddr: 0xFA350, symSize: 0x1C }
  - { offset: 0x6BB29, size: 0x8, addend: 0x0, symName: __ZN6sentry13SentryMetricsD1Ev.cold.1, symObjAddr: 0xEF54, symBinAddr: 0xFA350, symSize: 0x1C }
  - { offset: 0x6BB3E, size: 0x8, addend: 0x0, symName: __ZN6sentry13SentryMetricsD1Ev.cold.1, symObjAddr: 0xEF54, symBinAddr: 0xFA350, symSize: 0x1C }
  - { offset: 0x6BB71, size: 0x8, addend: 0x0, symName: __ZN6sentry13SentryMetricsD0Ev, symObjAddr: 0x6F18, symBinAddr: 0xAF18, symSize: 0x74 }
  - { offset: 0x6BCA6, size: 0x8, addend: 0x0, symName: __ZN6sentry13SentryMetricsD0Ev.cold.1, symObjAddr: 0xEF70, symBinAddr: 0xFA36C, symSize: 0x1C }
  - { offset: 0x6BCC1, size: 0x8, addend: 0x0, symName: __ZN6sentry13SentryMetricsD0Ev.cold.1, symObjAddr: 0xEF70, symBinAddr: 0xFA36C, symSize: 0x1C }
  - { offset: 0x6BCD5, size: 0x8, addend: 0x0, symName: __ZN6sentry13SentryMetricsD0Ev.cold.1, symObjAddr: 0xEF70, symBinAddr: 0xFA36C, symSize: 0x1C }
  - { offset: 0x6BCE9, size: 0x8, addend: 0x0, symName: __ZN6sentry13SentryMetricsD0Ev.cold.1, symObjAddr: 0xEF70, symBinAddr: 0xFA36C, symSize: 0x1C }
  - { offset: 0x6BCFD, size: 0x8, addend: 0x0, symName: __ZN6sentry13SentryMetricsD0Ev.cold.1, symObjAddr: 0xEF70, symBinAddr: 0xFA36C, symSize: 0x1C }
  - { offset: 0x6BD11, size: 0x8, addend: 0x0, symName: __ZN6sentry13SentryMetricsD0Ev.cold.1, symObjAddr: 0xEF70, symBinAddr: 0xFA36C, symSize: 0x1C }
  - { offset: 0x6BD26, size: 0x8, addend: 0x0, symName: __ZN6sentry13SentryMetricsD0Ev.cold.1, symObjAddr: 0xEF70, symBinAddr: 0xFA36C, symSize: 0x1C }
  - { offset: 0x6BD53, size: 0x8, addend: 0x0, symName: __ZN5godot7ClassDB15_register_classIN6sentry10SentryUnitELb0EEEvbbb.cold.1, symObjAddr: 0xEF8C, symBinAddr: 0xFA388, symSize: 0x5C }
  - { offset: 0x6BD81, size: 0x8, addend: 0x0, symName: __ZN5godot7ClassDB15_register_classIN6sentry10SentryUnitELb0EEEvbbb.cold.2, symObjAddr: 0xEFE8, symBinAddr: 0xFA3E4, symSize: 0x58 }
  - { offset: 0x6BDAF, size: 0x8, addend: 0x0, symName: __ZN5godot7ClassDB15_register_classIN6sentry10SentryUnitELb0EEEvbbb.cold.3, symObjAddr: 0xF040, symBinAddr: 0xFA43C, symSize: 0x58 }
  - { offset: 0x6BDF2, size: 0x8, addend: 0x0, symName: __ZN5godot7ClassDB15_register_classIN6sentry10SentryUnitELb0EEEvbbb.cold.4, symObjAddr: 0xF098, symBinAddr: 0xFA494, symSize: 0x58 }
  - { offset: 0x6BE21, size: 0x8, addend: 0x0, symName: __ZN6sentry10SentryUnit8set_bindEPvPKvS3_, symObjAddr: 0x72B8, symBinAddr: 0xB2B8, symSize: 0x8 }
  - { offset: 0x6BE61, size: 0x8, addend: 0x0, symName: __ZN6sentry10SentryUnit8get_bindEPvPKvS1_, symObjAddr: 0x72C0, symBinAddr: 0xB2C0, symSize: 0x8 }
  - { offset: 0x6BEA1, size: 0x8, addend: 0x0, symName: __ZN6sentry10SentryUnit22get_property_list_bindEPvPj, symObjAddr: 0x72C8, symBinAddr: 0xB2C8, symSize: 0x40 }
  - { offset: 0x6BF2D, size: 0x8, addend: 0x0, symName: __ZN6sentry10SentryUnit22get_property_list_bindEPvPj.cold.1, symObjAddr: 0xF0F0, symBinAddr: 0xFA4EC, symSize: 0x28 }
  - { offset: 0x6BF45, size: 0x8, addend: 0x0, symName: __ZN6sentry10SentryUnit23free_property_list_bindEPvPK23GDExtensionPropertyInfoj, symObjAddr: 0x7308, symBinAddr: 0xB308, symSize: 0x58 }
  - { offset: 0x6C05F, size: 0x8, addend: 0x0, symName: __ZN6sentry10SentryUnit24property_can_revert_bindEPvPKv, symObjAddr: 0x7360, symBinAddr: 0xB360, symSize: 0x8 }
  - { offset: 0x6C091, size: 0x8, addend: 0x0, symName: __ZN6sentry10SentryUnit24property_get_revert_bindEPvPKvS1_, symObjAddr: 0x7368, symBinAddr: 0xB368, symSize: 0x8 }
  - { offset: 0x6C0D1, size: 0x8, addend: 0x0, symName: __ZN6sentry10SentryUnit22validate_property_bindEPvP23GDExtensionPropertyInfo, symObjAddr: 0x7370, symBinAddr: 0xB370, symSize: 0xB8 }
  - { offset: 0x6C194, size: 0x8, addend: 0x0, symName: __ZN6sentry10SentryUnit17notification_bindEPvih, symObjAddr: 0x7428, symBinAddr: 0xB428, symSize: 0x4 }
  - { offset: 0x6C1D3, size: 0x8, addend: 0x0, symName: __ZN6sentry10SentryUnit14to_string_bindEPvPhS1_, symObjAddr: 0x742C, symBinAddr: 0xB42C, symSize: 0x7C }
  - { offset: 0x6C2A2, size: 0x8, addend: 0x0, symName: __ZN5godot7ClassDB21_create_instance_funcIN6sentry10SentryUnitEEEPvS4_h, symObjAddr: 0x74A8, symBinAddr: 0xB4A8, symSize: 0xE4 }
  - { offset: 0x6C3A9, size: 0x8, addend: 0x0, symName: __ZN5godot7ClassDB21_create_instance_funcIN6sentry10SentryUnitEEEPvS4_h.cold.1, symObjAddr: 0xF118, symBinAddr: 0xFA514, symSize: 0x5C }
  - { offset: 0x6C401, size: 0x8, addend: 0x0, symName: __ZN6sentry10SentryUnit4freeEPvS1_, symObjAddr: 0x758C, symBinAddr: 0xB58C, symSize: 0x3C }
  - { offset: 0x6C45C, size: 0x8, addend: 0x0, symName: __ZN5godot7ClassDB23_recreate_instance_funcIN6sentry10SentryUnitEEEPvS4_S4_, symObjAddr: 0x75C8, symBinAddr: 0xB5C8, symSize: 0x8 }
  - { offset: 0x6C497, size: 0x8, addend: 0x0, symName: __ZN6sentry10SentryUnit28_gde_binding_create_callbackEPvS1_, symObjAddr: 0x75D0, symBinAddr: 0xB5D0, symSize: 0x8 }
  - { offset: 0x6C4C2, size: 0x8, addend: 0x0, symName: __ZN6sentry10SentryUnit26_gde_binding_free_callbackEPvS1_S1_, symObjAddr: 0x75D8, symBinAddr: 0xB5D8, symSize: 0x4 }
  - { offset: 0x6C4F5, size: 0x8, addend: 0x0, symName: __ZN6sentry10SentryUnit31_gde_binding_reference_callbackEPvS1_h, symObjAddr: 0x75DC, symBinAddr: 0xB5DC, symSize: 0x8 }
  - { offset: 0x6C52A, size: 0x8, addend: 0x0, symName: __ZNK6sentry10SentryUnit19_is_extension_classEv, symObjAddr: 0x75E4, symBinAddr: 0xB5E4, symSize: 0x8 }
  - { offset: 0x6C56D, size: 0x8, addend: 0x0, symName: __ZN6sentry10SentryUnitD1Ev, symObjAddr: 0x75EC, symBinAddr: 0xB5EC, symSize: 0x8C }
  - { offset: 0x6C6F5, size: 0x8, addend: 0x0, symName: __ZN6sentry10SentryUnitD1Ev.cold.1, symObjAddr: 0xF174, symBinAddr: 0xFA570, symSize: 0x1C }
  - { offset: 0x6C710, size: 0x8, addend: 0x0, symName: __ZN6sentry10SentryUnitD1Ev.cold.1, symObjAddr: 0xF174, symBinAddr: 0xFA570, symSize: 0x1C }
  - { offset: 0x6C724, size: 0x8, addend: 0x0, symName: __ZN6sentry10SentryUnitD1Ev.cold.1, symObjAddr: 0xF174, symBinAddr: 0xFA570, symSize: 0x1C }
  - { offset: 0x6C738, size: 0x8, addend: 0x0, symName: __ZN6sentry10SentryUnitD1Ev.cold.1, symObjAddr: 0xF174, symBinAddr: 0xFA570, symSize: 0x1C }
  - { offset: 0x6C74C, size: 0x8, addend: 0x0, symName: __ZN6sentry10SentryUnitD1Ev.cold.1, symObjAddr: 0xF174, symBinAddr: 0xFA570, symSize: 0x1C }
  - { offset: 0x6C761, size: 0x8, addend: 0x0, symName: __ZN6sentry10SentryUnitD1Ev.cold.1, symObjAddr: 0xF174, symBinAddr: 0xFA570, symSize: 0x1C }
  - { offset: 0x6C794, size: 0x8, addend: 0x0, symName: __ZN6sentry10SentryUnitD0Ev, symObjAddr: 0x7678, symBinAddr: 0xB678, symSize: 0x74 }
  - { offset: 0x6C8C9, size: 0x8, addend: 0x0, symName: __ZN6sentry10SentryUnitD0Ev.cold.1, symObjAddr: 0xF190, symBinAddr: 0xFA58C, symSize: 0x1C }
  - { offset: 0x6C8E4, size: 0x8, addend: 0x0, symName: __ZN6sentry10SentryUnitD0Ev.cold.1, symObjAddr: 0xF190, symBinAddr: 0xFA58C, symSize: 0x1C }
  - { offset: 0x6C8F8, size: 0x8, addend: 0x0, symName: __ZN6sentry10SentryUnitD0Ev.cold.1, symObjAddr: 0xF190, symBinAddr: 0xFA58C, symSize: 0x1C }
  - { offset: 0x6C90C, size: 0x8, addend: 0x0, symName: __ZN6sentry10SentryUnitD0Ev.cold.1, symObjAddr: 0xF190, symBinAddr: 0xFA58C, symSize: 0x1C }
  - { offset: 0x6C920, size: 0x8, addend: 0x0, symName: __ZN6sentry10SentryUnitD0Ev.cold.1, symObjAddr: 0xF190, symBinAddr: 0xFA58C, symSize: 0x1C }
  - { offset: 0x6C934, size: 0x8, addend: 0x0, symName: __ZN6sentry10SentryUnitD0Ev.cold.1, symObjAddr: 0xF190, symBinAddr: 0xFA58C, symSize: 0x1C }
  - { offset: 0x6C949, size: 0x8, addend: 0x0, symName: __ZN6sentry10SentryUnitD0Ev.cold.1, symObjAddr: 0xF190, symBinAddr: 0xFA58C, symSize: 0x1C }
  - { offset: 0x6C976, size: 0x8, addend: 0x0, symName: __ZN5godot7ClassDB15_register_classIN6sentry14SentryFeedbackELb0EEEvbbb.cold.1, symObjAddr: 0xF1AC, symBinAddr: 0xFA5A8, symSize: 0x5C }
  - { offset: 0x6C9A4, size: 0x8, addend: 0x0, symName: __ZN5godot7ClassDB15_register_classIN6sentry14SentryFeedbackELb0EEEvbbb.cold.2, symObjAddr: 0xF208, symBinAddr: 0xFA604, symSize: 0x58 }
  - { offset: 0x6C9D2, size: 0x8, addend: 0x0, symName: __ZN5godot7ClassDB15_register_classIN6sentry14SentryFeedbackELb0EEEvbbb.cold.3, symObjAddr: 0xF260, symBinAddr: 0xFA65C, symSize: 0x58 }
  - { offset: 0x6CA15, size: 0x8, addend: 0x0, symName: __ZN5godot7ClassDB15_register_classIN6sentry14SentryFeedbackELb0EEEvbbb.cold.4, symObjAddr: 0xF2B8, symBinAddr: 0xFA6B4, symSize: 0x58 }
  - { offset: 0x6CA44, size: 0x8, addend: 0x0, symName: __ZN6sentry14SentryFeedback8set_bindEPvPKvS3_, symObjAddr: 0x7A18, symBinAddr: 0xBA18, symSize: 0x8 }
  - { offset: 0x6CA84, size: 0x8, addend: 0x0, symName: __ZN6sentry14SentryFeedback8get_bindEPvPKvS1_, symObjAddr: 0x7A20, symBinAddr: 0xBA20, symSize: 0x8 }
  - { offset: 0x6CAC4, size: 0x8, addend: 0x0, symName: __ZN6sentry14SentryFeedback22get_property_list_bindEPvPj, symObjAddr: 0x7A28, symBinAddr: 0xBA28, symSize: 0x40 }
  - { offset: 0x6CB50, size: 0x8, addend: 0x0, symName: __ZN6sentry14SentryFeedback22get_property_list_bindEPvPj.cold.1, symObjAddr: 0xF310, symBinAddr: 0xFA70C, symSize: 0x28 }
  - { offset: 0x6CB68, size: 0x8, addend: 0x0, symName: __ZN6sentry14SentryFeedback23free_property_list_bindEPvPK23GDExtensionPropertyInfoj, symObjAddr: 0x7A68, symBinAddr: 0xBA68, symSize: 0x58 }
  - { offset: 0x6CC82, size: 0x8, addend: 0x0, symName: __ZN6sentry14SentryFeedback24property_can_revert_bindEPvPKv, symObjAddr: 0x7AC0, symBinAddr: 0xBAC0, symSize: 0x8 }
  - { offset: 0x6CCB4, size: 0x8, addend: 0x0, symName: __ZN6sentry14SentryFeedback24property_get_revert_bindEPvPKvS1_, symObjAddr: 0x7AC8, symBinAddr: 0xBAC8, symSize: 0x8 }
  - { offset: 0x6CCF4, size: 0x8, addend: 0x0, symName: __ZN6sentry14SentryFeedback22validate_property_bindEPvP23GDExtensionPropertyInfo, symObjAddr: 0x7AD0, symBinAddr: 0xBAD0, symSize: 0xB8 }
  - { offset: 0x6CDB7, size: 0x8, addend: 0x0, symName: __ZN6sentry14SentryFeedback17notification_bindEPvih, symObjAddr: 0x7B88, symBinAddr: 0xBB88, symSize: 0x4 }
  - { offset: 0x6CDF6, size: 0x8, addend: 0x0, symName: __ZN6sentry14SentryFeedback14to_string_bindEPvPhS1_, symObjAddr: 0x7B8C, symBinAddr: 0xBB8C, symSize: 0x7C }
  - { offset: 0x6CEC9, size: 0x8, addend: 0x0, symName: __ZN5godot7ClassDB21_create_instance_funcIN6sentry14SentryFeedbackEEEPvS4_h, symObjAddr: 0x7C08, symBinAddr: 0xBC08, symSize: 0x110 }
  - { offset: 0x6CFF5, size: 0x8, addend: 0x0, symName: __ZN5godot7ClassDB21_create_instance_funcIN6sentry14SentryFeedbackEEEPvS4_h.cold.1, symObjAddr: 0xF338, symBinAddr: 0xFA734, symSize: 0x5C }
  - { offset: 0x6D04D, size: 0x8, addend: 0x0, symName: __ZN6sentry14SentryFeedback4freeEPvS1_, symObjAddr: 0x7D18, symBinAddr: 0xBD18, symSize: 0x3C }
  - { offset: 0x6D0A8, size: 0x8, addend: 0x0, symName: __ZN5godot7ClassDB23_recreate_instance_funcIN6sentry14SentryFeedbackEEEPvS4_S4_, symObjAddr: 0x7D54, symBinAddr: 0xBD54, symSize: 0x8 }
  - { offset: 0x6D0E3, size: 0x8, addend: 0x0, symName: __ZN6sentry14SentryFeedback28_gde_binding_create_callbackEPvS1_, symObjAddr: 0x7D5C, symBinAddr: 0xBD5C, symSize: 0x8 }
  - { offset: 0x6D10E, size: 0x8, addend: 0x0, symName: __ZN6sentry14SentryFeedback26_gde_binding_free_callbackEPvS1_S1_, symObjAddr: 0x7D64, symBinAddr: 0xBD64, symSize: 0x4 }
  - { offset: 0x6D141, size: 0x8, addend: 0x0, symName: __ZN6sentry14SentryFeedback31_gde_binding_reference_callbackEPvS1_h, symObjAddr: 0x7D68, symBinAddr: 0xBD68, symSize: 0x8 }
  - { offset: 0x6D176, size: 0x8, addend: 0x0, symName: __ZNK6sentry14SentryFeedback19_is_extension_classEv, symObjAddr: 0x7D70, symBinAddr: 0xBD70, symSize: 0x8 }
  - { offset: 0x6D19D, size: 0x8, addend: 0x0, symName: __ZN6sentry14SentryFeedbackD1Ev, symObjAddr: 0x7D78, symBinAddr: 0xBD78, symSize: 0x4 }
  - { offset: 0x6D1C0, size: 0x8, addend: 0x0, symName: __ZN6sentry14SentryFeedbackD1Ev, symObjAddr: 0x7D78, symBinAddr: 0xBD78, symSize: 0x4 }
  - { offset: 0x6D1D3, size: 0x8, addend: 0x0, symName: __ZN6sentry14SentryFeedbackD2Ev, symObjAddr: 0x7D90, symBinAddr: 0xBD90, symSize: 0xB4 }
  - { offset: 0x6D382, size: 0x8, addend: 0x0, symName: __ZN6sentry14SentryFeedbackD0Ev, symObjAddr: 0x7D7C, symBinAddr: 0xBD7C, symSize: 0x14 }
  - { offset: 0x6D3DF, size: 0x8, addend: 0x0, symName: __ZN6sentry14SentryFeedbackD2Ev.cold.1, symObjAddr: 0xF394, symBinAddr: 0xFA790, symSize: 0x1C }
  - { offset: 0x6D3FA, size: 0x8, addend: 0x0, symName: __ZN6sentry14SentryFeedbackD2Ev.cold.1, symObjAddr: 0xF394, symBinAddr: 0xFA790, symSize: 0x1C }
  - { offset: 0x6D40E, size: 0x8, addend: 0x0, symName: __ZN6sentry14SentryFeedbackD2Ev.cold.1, symObjAddr: 0xF394, symBinAddr: 0xFA790, symSize: 0x1C }
  - { offset: 0x6D422, size: 0x8, addend: 0x0, symName: __ZN6sentry14SentryFeedbackD2Ev.cold.1, symObjAddr: 0xF394, symBinAddr: 0xFA790, symSize: 0x1C }
  - { offset: 0x6D436, size: 0x8, addend: 0x0, symName: __ZN6sentry14SentryFeedbackD2Ev.cold.1, symObjAddr: 0xF394, symBinAddr: 0xFA790, symSize: 0x1C }
  - { offset: 0x6D44B, size: 0x8, addend: 0x0, symName: __ZN6sentry14SentryFeedbackD2Ev.cold.1, symObjAddr: 0xF394, symBinAddr: 0xFA790, symSize: 0x1C }
  - { offset: 0x6D477, size: 0x8, addend: 0x0, symName: __ZN5godot7ClassDB15_register_classIN6sentry9SentrySDKELb0EEEvbbb.cold.1, symObjAddr: 0xF3B0, symBinAddr: 0xFA7AC, symSize: 0x5C }
  - { offset: 0x6D4A5, size: 0x8, addend: 0x0, symName: __ZN5godot7ClassDB15_register_classIN6sentry9SentrySDKELb0EEEvbbb.cold.2, symObjAddr: 0xF40C, symBinAddr: 0xFA808, symSize: 0x58 }
  - { offset: 0x6D4D3, size: 0x8, addend: 0x0, symName: __ZN5godot7ClassDB15_register_classIN6sentry9SentrySDKELb0EEEvbbb.cold.3, symObjAddr: 0xF464, symBinAddr: 0xFA860, symSize: 0x58 }
  - { offset: 0x6D516, size: 0x8, addend: 0x0, symName: __ZN5godot7ClassDB15_register_classIN6sentry9SentrySDKELb0EEEvbbb.cold.4, symObjAddr: 0xF4BC, symBinAddr: 0xFA8B8, symSize: 0x58 }
  - { offset: 0x6D545, size: 0x8, addend: 0x0, symName: __ZN6sentry9SentrySDK8set_bindEPvPKvS3_, symObjAddr: 0x8170, symBinAddr: 0xC170, symSize: 0x8 }
  - { offset: 0x6D585, size: 0x8, addend: 0x0, symName: __ZN6sentry9SentrySDK8get_bindEPvPKvS1_, symObjAddr: 0x8178, symBinAddr: 0xC178, symSize: 0x8 }
  - { offset: 0x6D5C5, size: 0x8, addend: 0x0, symName: __ZN6sentry9SentrySDK22get_property_list_bindEPvPj, symObjAddr: 0x8180, symBinAddr: 0xC180, symSize: 0x40 }
  - { offset: 0x6D651, size: 0x8, addend: 0x0, symName: __ZN6sentry9SentrySDK22get_property_list_bindEPvPj.cold.1, symObjAddr: 0xF514, symBinAddr: 0xFA910, symSize: 0x28 }
  - { offset: 0x6D669, size: 0x8, addend: 0x0, symName: __ZN6sentry9SentrySDK23free_property_list_bindEPvPK23GDExtensionPropertyInfoj, symObjAddr: 0x81C0, symBinAddr: 0xC1C0, symSize: 0x58 }
  - { offset: 0x6D783, size: 0x8, addend: 0x0, symName: __ZN6sentry9SentrySDK24property_can_revert_bindEPvPKv, symObjAddr: 0x8218, symBinAddr: 0xC218, symSize: 0x8 }
  - { offset: 0x6D7B5, size: 0x8, addend: 0x0, symName: __ZN6sentry9SentrySDK24property_get_revert_bindEPvPKvS1_, symObjAddr: 0x8220, symBinAddr: 0xC220, symSize: 0x8 }
  - { offset: 0x6D7F5, size: 0x8, addend: 0x0, symName: __ZN6sentry9SentrySDK22validate_property_bindEPvP23GDExtensionPropertyInfo, symObjAddr: 0x8228, symBinAddr: 0xC228, symSize: 0xB8 }
  - { offset: 0x6D8B8, size: 0x8, addend: 0x0, symName: __ZN6sentry9SentrySDK17notification_bindEPvih, symObjAddr: 0x82E0, symBinAddr: 0xC2E0, symSize: 0xC }
  - { offset: 0x6D914, size: 0x8, addend: 0x0, symName: __ZN6sentry9SentrySDK14to_string_bindEPvPhS1_, symObjAddr: 0x82EC, symBinAddr: 0xC2EC, symSize: 0x7C }
  - { offset: 0x6D9AF, size: 0x8, addend: 0x0, symName: __ZN5godot7ClassDB21_create_instance_funcIN6sentry9SentrySDKEEEPvS4_h, symObjAddr: 0x8368, symBinAddr: 0xC368, symSize: 0x80 }
  - { offset: 0x6DA3D, size: 0x8, addend: 0x0, symName: __ZN5godot7ClassDB21_create_instance_funcIN6sentry9SentrySDKEEEPvS4_h.cold.1, symObjAddr: 0xF53C, symBinAddr: 0xFA938, symSize: 0x5C }
  - { offset: 0x6DA95, size: 0x8, addend: 0x0, symName: __ZN6sentry9SentrySDK4freeEPvS1_, symObjAddr: 0x83E8, symBinAddr: 0xC3E8, symSize: 0x3C }
  - { offset: 0x6DAF0, size: 0x8, addend: 0x0, symName: __ZN5godot7ClassDB23_recreate_instance_funcIN6sentry9SentrySDKEEEPvS4_S4_, symObjAddr: 0x8424, symBinAddr: 0xC424, symSize: 0x8 }
  - { offset: 0x6DB2B, size: 0x8, addend: 0x0, symName: __ZN6sentry9SentrySDK28_gde_binding_create_callbackEPvS1_, symObjAddr: 0x842C, symBinAddr: 0xC42C, symSize: 0x8 }
  - { offset: 0x6DB56, size: 0x8, addend: 0x0, symName: __ZN6sentry9SentrySDK26_gde_binding_free_callbackEPvS1_S1_, symObjAddr: 0x8434, symBinAddr: 0xC434, symSize: 0x4 }
  - { offset: 0x6DB89, size: 0x8, addend: 0x0, symName: __ZN6sentry9SentrySDK31_gde_binding_reference_callbackEPvS1_h, symObjAddr: 0x8438, symBinAddr: 0xC438, symSize: 0x8 }
  - { offset: 0x6DBD3, size: 0x8, addend: 0x0, symName: __ZN5godot7ClassDB15_register_classIN6sentry16SentryAttachmentELb1EEEvbbb.cold.1, symObjAddr: 0xF598, symBinAddr: 0xFA994, symSize: 0x5C }
  - { offset: 0x6DC01, size: 0x8, addend: 0x0, symName: __ZN5godot7ClassDB15_register_classIN6sentry16SentryAttachmentELb1EEEvbbb.cold.2, symObjAddr: 0xF5F4, symBinAddr: 0xFA9F0, symSize: 0x58 }
  - { offset: 0x6DC2F, size: 0x8, addend: 0x0, symName: __ZN5godot7ClassDB15_register_classIN6sentry16SentryAttachmentELb1EEEvbbb.cold.3, symObjAddr: 0xF64C, symBinAddr: 0xFAA48, symSize: 0x58 }
  - { offset: 0x6DC72, size: 0x8, addend: 0x0, symName: __ZN5godot7ClassDB15_register_classIN6sentry16SentryAttachmentELb1EEEvbbb.cold.4, symObjAddr: 0xF6A4, symBinAddr: 0xFAAA0, symSize: 0x58 }
  - { offset: 0x6DCA1, size: 0x8, addend: 0x0, symName: __ZN6sentry16SentryAttachment8set_bindEPvPKvS3_, symObjAddr: 0x8770, symBinAddr: 0xC770, symSize: 0x8 }
  - { offset: 0x6DCE1, size: 0x8, addend: 0x0, symName: __ZN6sentry16SentryAttachment8get_bindEPvPKvS1_, symObjAddr: 0x8778, symBinAddr: 0xC778, symSize: 0x8 }
  - { offset: 0x6DD21, size: 0x8, addend: 0x0, symName: __ZN6sentry16SentryAttachment22get_property_list_bindEPvPj, symObjAddr: 0x8780, symBinAddr: 0xC780, symSize: 0x40 }
  - { offset: 0x6DDAD, size: 0x8, addend: 0x0, symName: __ZN6sentry16SentryAttachment22get_property_list_bindEPvPj.cold.1, symObjAddr: 0xF6FC, symBinAddr: 0xFAAF8, symSize: 0x28 }
  - { offset: 0x6DDC5, size: 0x8, addend: 0x0, symName: __ZN6sentry16SentryAttachment23free_property_list_bindEPvPK23GDExtensionPropertyInfoj, symObjAddr: 0x87C0, symBinAddr: 0xC7C0, symSize: 0x58 }
  - { offset: 0x6DEDF, size: 0x8, addend: 0x0, symName: __ZN6sentry16SentryAttachment24property_can_revert_bindEPvPKv, symObjAddr: 0x8818, symBinAddr: 0xC818, symSize: 0x8 }
  - { offset: 0x6DF11, size: 0x8, addend: 0x0, symName: __ZN6sentry16SentryAttachment24property_get_revert_bindEPvPKvS1_, symObjAddr: 0x8820, symBinAddr: 0xC820, symSize: 0x8 }
  - { offset: 0x6DF51, size: 0x8, addend: 0x0, symName: __ZN6sentry16SentryAttachment22validate_property_bindEPvP23GDExtensionPropertyInfo, symObjAddr: 0x8828, symBinAddr: 0xC828, symSize: 0xB8 }
  - { offset: 0x6E014, size: 0x8, addend: 0x0, symName: __ZN6sentry16SentryAttachment17notification_bindEPvih, symObjAddr: 0x88E0, symBinAddr: 0xC8E0, symSize: 0x4 }
  - { offset: 0x6E053, size: 0x8, addend: 0x0, symName: __ZN6sentry16SentryAttachment14to_string_bindEPvPhS1_, symObjAddr: 0x88E4, symBinAddr: 0xC8E4, symSize: 0x7C }
  - { offset: 0x6E126, size: 0x8, addend: 0x0, symName: __ZN5godot7ClassDB21_create_instance_funcIN6sentry16SentryAttachmentEEEPvS4_h, symObjAddr: 0x8960, symBinAddr: 0xC960, symSize: 0x118 }
  - { offset: 0x6E252, size: 0x8, addend: 0x0, symName: __ZN5godot7ClassDB21_create_instance_funcIN6sentry16SentryAttachmentEEEPvS4_h.cold.1, symObjAddr: 0xF724, symBinAddr: 0xFAB20, symSize: 0x5C }
  - { offset: 0x6E2AA, size: 0x8, addend: 0x0, symName: __ZN6sentry16SentryAttachment4freeEPvS1_, symObjAddr: 0x8A78, symBinAddr: 0xCA78, symSize: 0x3C }
  - { offset: 0x6E305, size: 0x8, addend: 0x0, symName: __ZN5godot7ClassDB23_recreate_instance_funcIN6sentry16SentryAttachmentEEEPvS4_S4_, symObjAddr: 0x8AB4, symBinAddr: 0xCAB4, symSize: 0x8 }
  - { offset: 0x6E340, size: 0x8, addend: 0x0, symName: __ZN6sentry16SentryAttachment28_gde_binding_create_callbackEPvS1_, symObjAddr: 0x8ABC, symBinAddr: 0xCABC, symSize: 0x8 }
  - { offset: 0x6E36B, size: 0x8, addend: 0x0, symName: __ZN6sentry16SentryAttachment26_gde_binding_free_callbackEPvS1_S1_, symObjAddr: 0x8AC4, symBinAddr: 0xCAC4, symSize: 0x4 }
  - { offset: 0x6E39E, size: 0x8, addend: 0x0, symName: __ZN6sentry16SentryAttachment31_gde_binding_reference_callbackEPvS1_h, symObjAddr: 0x8AC8, symBinAddr: 0xCAC8, symSize: 0x8 }
  - { offset: 0x6E3D3, size: 0x8, addend: 0x0, symName: __ZNK6sentry16SentryAttachment19_is_extension_classEv, symObjAddr: 0x8AD0, symBinAddr: 0xCAD0, symSize: 0x8 }
  - { offset: 0x6E3FA, size: 0x8, addend: 0x0, symName: __ZN6sentry16SentryAttachmentD1Ev, symObjAddr: 0x8AD8, symBinAddr: 0xCAD8, symSize: 0x4 }
  - { offset: 0x6E41D, size: 0x8, addend: 0x0, symName: __ZN6sentry16SentryAttachmentD1Ev, symObjAddr: 0x8AD8, symBinAddr: 0xCAD8, symSize: 0x4 }
  - { offset: 0x6E430, size: 0x8, addend: 0x0, symName: __ZN6sentry16SentryAttachmentD2Ev, symObjAddr: 0x8AF0, symBinAddr: 0xCAF0, symSize: 0xBC }
  - { offset: 0x6E5DB, size: 0x8, addend: 0x0, symName: __ZN6sentry16SentryAttachmentD0Ev, symObjAddr: 0x8ADC, symBinAddr: 0xCADC, symSize: 0x14 }
  - { offset: 0x6E636, size: 0x8, addend: 0x0, symName: __ZN6sentry16SentryAttachmentD2Ev.cold.1, symObjAddr: 0xF780, symBinAddr: 0xFAB7C, symSize: 0x1C }
  - { offset: 0x6E651, size: 0x8, addend: 0x0, symName: __ZN6sentry16SentryAttachmentD2Ev.cold.1, symObjAddr: 0xF780, symBinAddr: 0xFAB7C, symSize: 0x1C }
  - { offset: 0x6E665, size: 0x8, addend: 0x0, symName: __ZN6sentry16SentryAttachmentD2Ev.cold.1, symObjAddr: 0xF780, symBinAddr: 0xFAB7C, symSize: 0x1C }
  - { offset: 0x6E679, size: 0x8, addend: 0x0, symName: __ZN6sentry16SentryAttachmentD2Ev.cold.1, symObjAddr: 0xF780, symBinAddr: 0xFAB7C, symSize: 0x1C }
  - { offset: 0x6E68D, size: 0x8, addend: 0x0, symName: __ZN6sentry16SentryAttachmentD2Ev.cold.1, symObjAddr: 0xF780, symBinAddr: 0xFAB7C, symSize: 0x1C }
  - { offset: 0x6E6A2, size: 0x8, addend: 0x0, symName: __ZN6sentry16SentryAttachmentD2Ev.cold.1, symObjAddr: 0xF780, symBinAddr: 0xFAB7C, symSize: 0x1C }
  - { offset: 0x6E6CE, size: 0x8, addend: 0x0, symName: __ZN5godot7ClassDB15_register_classIN6sentry11SentryEventELb1EEEvbbb.cold.1, symObjAddr: 0xF79C, symBinAddr: 0xFAB98, symSize: 0x5C }
  - { offset: 0x6E6FC, size: 0x8, addend: 0x0, symName: __ZN5godot7ClassDB15_register_classIN6sentry11SentryEventELb1EEEvbbb.cold.2, symObjAddr: 0xF7F8, symBinAddr: 0xFABF4, symSize: 0x58 }
  - { offset: 0x6E72A, size: 0x8, addend: 0x0, symName: __ZN5godot7ClassDB15_register_classIN6sentry11SentryEventELb1EEEvbbb.cold.3, symObjAddr: 0xF850, symBinAddr: 0xFAC4C, symSize: 0x58 }
  - { offset: 0x6E76D, size: 0x8, addend: 0x0, symName: __ZN5godot7ClassDB15_register_classIN6sentry11SentryEventELb1EEEvbbb.cold.4, symObjAddr: 0xF8A8, symBinAddr: 0xFACA4, symSize: 0x58 }
  - { offset: 0x6E79C, size: 0x8, addend: 0x0, symName: __ZN6sentry11SentryEvent8set_bindEPvPKvS3_, symObjAddr: 0x8EDC, symBinAddr: 0xCEDC, symSize: 0x8 }
  - { offset: 0x6E7DC, size: 0x8, addend: 0x0, symName: __ZN6sentry11SentryEvent8get_bindEPvPKvS1_, symObjAddr: 0x8EE4, symBinAddr: 0xCEE4, symSize: 0x8 }
  - { offset: 0x6E81C, size: 0x8, addend: 0x0, symName: __ZN6sentry11SentryEvent22get_property_list_bindEPvPj, symObjAddr: 0x8EEC, symBinAddr: 0xCEEC, symSize: 0x40 }
  - { offset: 0x6E8A8, size: 0x8, addend: 0x0, symName: __ZN6sentry11SentryEvent22get_property_list_bindEPvPj.cold.1, symObjAddr: 0xF900, symBinAddr: 0xFACFC, symSize: 0x28 }
  - { offset: 0x6E8C0, size: 0x8, addend: 0x0, symName: __ZN6sentry11SentryEvent23free_property_list_bindEPvPK23GDExtensionPropertyInfoj, symObjAddr: 0x8F2C, symBinAddr: 0xCF2C, symSize: 0x58 }
  - { offset: 0x6E9DA, size: 0x8, addend: 0x0, symName: __ZN6sentry11SentryEvent24property_can_revert_bindEPvPKv, symObjAddr: 0x8F84, symBinAddr: 0xCF84, symSize: 0x8 }
  - { offset: 0x6EA0C, size: 0x8, addend: 0x0, symName: __ZN6sentry11SentryEvent24property_get_revert_bindEPvPKvS1_, symObjAddr: 0x8F8C, symBinAddr: 0xCF8C, symSize: 0x8 }
  - { offset: 0x6EA4C, size: 0x8, addend: 0x0, symName: __ZN6sentry11SentryEvent22validate_property_bindEPvP23GDExtensionPropertyInfo, symObjAddr: 0x8F94, symBinAddr: 0xCF94, symSize: 0xB8 }
  - { offset: 0x6EAF1, size: 0x8, addend: 0x0, symName: __ZN6sentry11SentryEvent17notification_bindEPvih, symObjAddr: 0x904C, symBinAddr: 0xD04C, symSize: 0x4 }
  - { offset: 0x6EB30, size: 0x8, addend: 0x0, symName: __ZN6sentry11SentryEvent14to_string_bindEPvPhS1_, symObjAddr: 0x9050, symBinAddr: 0xD050, symSize: 0x7C }
  - { offset: 0x6EB8E, size: 0x8, addend: 0x0, symName: __ZN5godot7ClassDB21_create_instance_funcIN6sentry11SentryEventEEEPvS4_h, symObjAddr: 0x90CC, symBinAddr: 0xD0CC, symSize: 0x8 }
  - { offset: 0x6EBC9, size: 0x8, addend: 0x0, symName: __ZN6sentry11SentryEvent4freeEPvS1_, symObjAddr: 0x90D4, symBinAddr: 0xD0D4, symSize: 0x3C }
  - { offset: 0x6EC24, size: 0x8, addend: 0x0, symName: __ZN5godot7ClassDB23_recreate_instance_funcIN6sentry11SentryEventEEEPvS4_S4_, symObjAddr: 0x9110, symBinAddr: 0xD110, symSize: 0x8 }
  - { offset: 0x6EC5F, size: 0x8, addend: 0x0, symName: __ZN6sentry11SentryEvent28_gde_binding_create_callbackEPvS1_, symObjAddr: 0x9118, symBinAddr: 0xD118, symSize: 0x8 }
  - { offset: 0x6EC8A, size: 0x8, addend: 0x0, symName: __ZN6sentry11SentryEvent26_gde_binding_free_callbackEPvS1_S1_, symObjAddr: 0x9120, symBinAddr: 0xD120, symSize: 0x4 }
  - { offset: 0x6ECBD, size: 0x8, addend: 0x0, symName: __ZN6sentry11SentryEvent31_gde_binding_reference_callbackEPvS1_h, symObjAddr: 0x9124, symBinAddr: 0xD124, symSize: 0x8 }
  - { offset: 0x6ED07, size: 0x8, addend: 0x0, symName: __ZN5godot7ClassDB15_register_classIN6sentry16SentryBreadcrumbELb1EEEvbbb.cold.1, symObjAddr: 0xF928, symBinAddr: 0xFAD24, symSize: 0x5C }
  - { offset: 0x6ED35, size: 0x8, addend: 0x0, symName: __ZN5godot7ClassDB15_register_classIN6sentry16SentryBreadcrumbELb1EEEvbbb.cold.2, symObjAddr: 0xF984, symBinAddr: 0xFAD80, symSize: 0x58 }
  - { offset: 0x6ED63, size: 0x8, addend: 0x0, symName: __ZN5godot7ClassDB15_register_classIN6sentry16SentryBreadcrumbELb1EEEvbbb.cold.3, symObjAddr: 0xF9DC, symBinAddr: 0xFADD8, symSize: 0x58 }
  - { offset: 0x6EDA6, size: 0x8, addend: 0x0, symName: __ZN5godot7ClassDB15_register_classIN6sentry16SentryBreadcrumbELb1EEEvbbb.cold.4, symObjAddr: 0xFA34, symBinAddr: 0xFAE30, symSize: 0x58 }
  - { offset: 0x6EDD5, size: 0x8, addend: 0x0, symName: __ZN6sentry16SentryBreadcrumb8set_bindEPvPKvS3_, symObjAddr: 0x945C, symBinAddr: 0xD45C, symSize: 0x8 }
  - { offset: 0x6EE15, size: 0x8, addend: 0x0, symName: __ZN6sentry16SentryBreadcrumb8get_bindEPvPKvS1_, symObjAddr: 0x9464, symBinAddr: 0xD464, symSize: 0x8 }
  - { offset: 0x6EE55, size: 0x8, addend: 0x0, symName: __ZN6sentry16SentryBreadcrumb22get_property_list_bindEPvPj, symObjAddr: 0x946C, symBinAddr: 0xD46C, symSize: 0x40 }
  - { offset: 0x6EEE1, size: 0x8, addend: 0x0, symName: __ZN6sentry16SentryBreadcrumb22get_property_list_bindEPvPj.cold.1, symObjAddr: 0xFA8C, symBinAddr: 0xFAE88, symSize: 0x28 }
  - { offset: 0x6EEF9, size: 0x8, addend: 0x0, symName: __ZN6sentry16SentryBreadcrumb23free_property_list_bindEPvPK23GDExtensionPropertyInfoj, symObjAddr: 0x94AC, symBinAddr: 0xD4AC, symSize: 0x58 }
  - { offset: 0x6F013, size: 0x8, addend: 0x0, symName: __ZN6sentry16SentryBreadcrumb24property_can_revert_bindEPvPKv, symObjAddr: 0x9504, symBinAddr: 0xD504, symSize: 0x8 }
  - { offset: 0x6F045, size: 0x8, addend: 0x0, symName: __ZN6sentry16SentryBreadcrumb24property_get_revert_bindEPvPKvS1_, symObjAddr: 0x950C, symBinAddr: 0xD50C, symSize: 0x8 }
  - { offset: 0x6F085, size: 0x8, addend: 0x0, symName: __ZN6sentry16SentryBreadcrumb22validate_property_bindEPvP23GDExtensionPropertyInfo, symObjAddr: 0x9514, symBinAddr: 0xD514, symSize: 0xB8 }
  - { offset: 0x6F12A, size: 0x8, addend: 0x0, symName: __ZN6sentry16SentryBreadcrumb17notification_bindEPvih, symObjAddr: 0x95CC, symBinAddr: 0xD5CC, symSize: 0x4 }
  - { offset: 0x6F169, size: 0x8, addend: 0x0, symName: __ZN6sentry16SentryBreadcrumb14to_string_bindEPvPhS1_, symObjAddr: 0x95D0, symBinAddr: 0xD5D0, symSize: 0x7C }
  - { offset: 0x6F1C7, size: 0x8, addend: 0x0, symName: __ZN5godot7ClassDB21_create_instance_funcIN6sentry16SentryBreadcrumbEEEPvS4_h, symObjAddr: 0x964C, symBinAddr: 0xD64C, symSize: 0x8 }
  - { offset: 0x6F202, size: 0x8, addend: 0x0, symName: __ZN6sentry16SentryBreadcrumb4freeEPvS1_, symObjAddr: 0x9654, symBinAddr: 0xD654, symSize: 0x3C }
  - { offset: 0x6F25D, size: 0x8, addend: 0x0, symName: __ZN5godot7ClassDB23_recreate_instance_funcIN6sentry16SentryBreadcrumbEEEPvS4_S4_, symObjAddr: 0x9690, symBinAddr: 0xD690, symSize: 0x8 }
  - { offset: 0x6F298, size: 0x8, addend: 0x0, symName: __ZN6sentry16SentryBreadcrumb28_gde_binding_create_callbackEPvS1_, symObjAddr: 0x9698, symBinAddr: 0xD698, symSize: 0x8 }
  - { offset: 0x6F2C3, size: 0x8, addend: 0x0, symName: __ZN6sentry16SentryBreadcrumb26_gde_binding_free_callbackEPvS1_S1_, symObjAddr: 0x96A0, symBinAddr: 0xD6A0, symSize: 0x4 }
  - { offset: 0x6F2F6, size: 0x8, addend: 0x0, symName: __ZN6sentry16SentryBreadcrumb31_gde_binding_reference_callbackEPvS1_h, symObjAddr: 0x96A4, symBinAddr: 0xD6A4, symSize: 0x8 }
  - { offset: 0x6F340, size: 0x8, addend: 0x0, symName: __ZN5godot7ClassDB15_register_classIN6sentry9SentryLogELb1EEEvbbb.cold.1, symObjAddr: 0xFAB4, symBinAddr: 0xFAEB0, symSize: 0x5C }
  - { offset: 0x6F36E, size: 0x8, addend: 0x0, symName: __ZN5godot7ClassDB15_register_classIN6sentry9SentryLogELb1EEEvbbb.cold.2, symObjAddr: 0xFB10, symBinAddr: 0xFAF0C, symSize: 0x58 }
  - { offset: 0x6F39C, size: 0x8, addend: 0x0, symName: __ZN5godot7ClassDB15_register_classIN6sentry9SentryLogELb1EEEvbbb.cold.3, symObjAddr: 0xFB68, symBinAddr: 0xFAF64, symSize: 0x58 }
  - { offset: 0x6F3DF, size: 0x8, addend: 0x0, symName: __ZN5godot7ClassDB15_register_classIN6sentry9SentryLogELb1EEEvbbb.cold.4, symObjAddr: 0xFBC0, symBinAddr: 0xFAFBC, symSize: 0x58 }
  - { offset: 0x6F40E, size: 0x8, addend: 0x0, symName: __ZN6sentry9SentryLog8set_bindEPvPKvS3_, symObjAddr: 0x99DC, symBinAddr: 0xD9DC, symSize: 0x8 }
  - { offset: 0x6F44E, size: 0x8, addend: 0x0, symName: __ZN6sentry9SentryLog8get_bindEPvPKvS1_, symObjAddr: 0x99E4, symBinAddr: 0xD9E4, symSize: 0x8 }
  - { offset: 0x6F48E, size: 0x8, addend: 0x0, symName: __ZN6sentry9SentryLog22get_property_list_bindEPvPj, symObjAddr: 0x99EC, symBinAddr: 0xD9EC, symSize: 0x40 }
  - { offset: 0x6F51A, size: 0x8, addend: 0x0, symName: __ZN6sentry9SentryLog22get_property_list_bindEPvPj.cold.1, symObjAddr: 0xFC18, symBinAddr: 0xFB014, symSize: 0x28 }
  - { offset: 0x6F532, size: 0x8, addend: 0x0, symName: __ZN6sentry9SentryLog23free_property_list_bindEPvPK23GDExtensionPropertyInfoj, symObjAddr: 0x9A2C, symBinAddr: 0xDA2C, symSize: 0x58 }
  - { offset: 0x6F64C, size: 0x8, addend: 0x0, symName: __ZN6sentry9SentryLog24property_can_revert_bindEPvPKv, symObjAddr: 0x9A84, symBinAddr: 0xDA84, symSize: 0x8 }
  - { offset: 0x6F67E, size: 0x8, addend: 0x0, symName: __ZN6sentry9SentryLog24property_get_revert_bindEPvPKvS1_, symObjAddr: 0x9A8C, symBinAddr: 0xDA8C, symSize: 0x8 }
  - { offset: 0x6F6BE, size: 0x8, addend: 0x0, symName: __ZN6sentry9SentryLog22validate_property_bindEPvP23GDExtensionPropertyInfo, symObjAddr: 0x9A94, symBinAddr: 0xDA94, symSize: 0xB8 }
  - { offset: 0x6F763, size: 0x8, addend: 0x0, symName: __ZN6sentry9SentryLog17notification_bindEPvih, symObjAddr: 0x9B4C, symBinAddr: 0xDB4C, symSize: 0x4 }
  - { offset: 0x6F7A2, size: 0x8, addend: 0x0, symName: __ZN6sentry9SentryLog14to_string_bindEPvPhS1_, symObjAddr: 0x9B50, symBinAddr: 0xDB50, symSize: 0x7C }
  - { offset: 0x6F800, size: 0x8, addend: 0x0, symName: __ZN5godot7ClassDB21_create_instance_funcIN6sentry9SentryLogEEEPvS4_h, symObjAddr: 0x9BCC, symBinAddr: 0xDBCC, symSize: 0x8 }
  - { offset: 0x6F83B, size: 0x8, addend: 0x0, symName: __ZN6sentry9SentryLog4freeEPvS1_, symObjAddr: 0x9BD4, symBinAddr: 0xDBD4, symSize: 0x3C }
  - { offset: 0x6F896, size: 0x8, addend: 0x0, symName: __ZN5godot7ClassDB23_recreate_instance_funcIN6sentry9SentryLogEEEPvS4_S4_, symObjAddr: 0x9C10, symBinAddr: 0xDC10, symSize: 0x8 }
  - { offset: 0x6F8D1, size: 0x8, addend: 0x0, symName: __ZN6sentry9SentryLog28_gde_binding_create_callbackEPvS1_, symObjAddr: 0x9C18, symBinAddr: 0xDC18, symSize: 0x8 }
  - { offset: 0x6F8FC, size: 0x8, addend: 0x0, symName: __ZN6sentry9SentryLog26_gde_binding_free_callbackEPvS1_S1_, symObjAddr: 0x9C20, symBinAddr: 0xDC20, symSize: 0x4 }
  - { offset: 0x6F92F, size: 0x8, addend: 0x0, symName: __ZN6sentry9SentryLog31_gde_binding_reference_callbackEPvS1_h, symObjAddr: 0x9C24, symBinAddr: 0xDC24, symSize: 0x8 }
  - { offset: 0x6F979, size: 0x8, addend: 0x0, symName: __ZN5godot7ClassDB15_register_classIN6sentry12SentryMetricELb1EEEvbbb.cold.1, symObjAddr: 0xFC40, symBinAddr: 0xFB03C, symSize: 0x5C }
  - { offset: 0x6F9A7, size: 0x8, addend: 0x0, symName: __ZN5godot7ClassDB15_register_classIN6sentry12SentryMetricELb1EEEvbbb.cold.2, symObjAddr: 0xFC9C, symBinAddr: 0xFB098, symSize: 0x58 }
  - { offset: 0x6F9D5, size: 0x8, addend: 0x0, symName: __ZN5godot7ClassDB15_register_classIN6sentry12SentryMetricELb1EEEvbbb.cold.3, symObjAddr: 0xFCF4, symBinAddr: 0xFB0F0, symSize: 0x58 }
  - { offset: 0x6FA18, size: 0x8, addend: 0x0, symName: __ZN5godot7ClassDB15_register_classIN6sentry12SentryMetricELb1EEEvbbb.cold.4, symObjAddr: 0xFD4C, symBinAddr: 0xFB148, symSize: 0x58 }
  - { offset: 0x6FA47, size: 0x8, addend: 0x0, symName: __ZN6sentry12SentryMetric8set_bindEPvPKvS3_, symObjAddr: 0x9F5C, symBinAddr: 0xDF5C, symSize: 0x8 }
  - { offset: 0x6FA87, size: 0x8, addend: 0x0, symName: __ZN6sentry12SentryMetric8get_bindEPvPKvS1_, symObjAddr: 0x9F64, symBinAddr: 0xDF64, symSize: 0x8 }
  - { offset: 0x6FAC7, size: 0x8, addend: 0x0, symName: __ZN6sentry12SentryMetric22get_property_list_bindEPvPj, symObjAddr: 0x9F6C, symBinAddr: 0xDF6C, symSize: 0x40 }
  - { offset: 0x6FB53, size: 0x8, addend: 0x0, symName: __ZN6sentry12SentryMetric22get_property_list_bindEPvPj.cold.1, symObjAddr: 0xFDA4, symBinAddr: 0xFB1A0, symSize: 0x28 }
  - { offset: 0x6FB6B, size: 0x8, addend: 0x0, symName: __ZN6sentry12SentryMetric23free_property_list_bindEPvPK23GDExtensionPropertyInfoj, symObjAddr: 0x9FAC, symBinAddr: 0xDFAC, symSize: 0x58 }
  - { offset: 0x6FC85, size: 0x8, addend: 0x0, symName: __ZN6sentry12SentryMetric24property_can_revert_bindEPvPKv, symObjAddr: 0xA004, symBinAddr: 0xE004, symSize: 0x8 }
  - { offset: 0x6FCB7, size: 0x8, addend: 0x0, symName: __ZN6sentry12SentryMetric24property_get_revert_bindEPvPKvS1_, symObjAddr: 0xA00C, symBinAddr: 0xE00C, symSize: 0x8 }
  - { offset: 0x6FCF7, size: 0x8, addend: 0x0, symName: __ZN6sentry12SentryMetric22validate_property_bindEPvP23GDExtensionPropertyInfo, symObjAddr: 0xA014, symBinAddr: 0xE014, symSize: 0xB8 }
  - { offset: 0x6FDBA, size: 0x8, addend: 0x0, symName: __ZN6sentry12SentryMetric17notification_bindEPvih, symObjAddr: 0xA0CC, symBinAddr: 0xE0CC, symSize: 0x4 }
  - { offset: 0x6FDF9, size: 0x8, addend: 0x0, symName: __ZN6sentry12SentryMetric14to_string_bindEPvPhS1_, symObjAddr: 0xA0D0, symBinAddr: 0xE0D0, symSize: 0x7C }
  - { offset: 0x6FE6F, size: 0x8, addend: 0x0, symName: __ZN5godot7ClassDB21_create_instance_funcIN6sentry12SentryMetricEEEPvS4_h, symObjAddr: 0xA14C, symBinAddr: 0xE14C, symSize: 0x8 }
  - { offset: 0x6FEAA, size: 0x8, addend: 0x0, symName: __ZN6sentry12SentryMetric4freeEPvS1_, symObjAddr: 0xA154, symBinAddr: 0xE154, symSize: 0x3C }
  - { offset: 0x6FF05, size: 0x8, addend: 0x0, symName: __ZN5godot7ClassDB23_recreate_instance_funcIN6sentry12SentryMetricEEEPvS4_S4_, symObjAddr: 0xA190, symBinAddr: 0xE190, symSize: 0x8 }
  - { offset: 0x6FF40, size: 0x8, addend: 0x0, symName: __ZN6sentry12SentryMetric28_gde_binding_create_callbackEPvS1_, symObjAddr: 0xA198, symBinAddr: 0xE198, symSize: 0x8 }
  - { offset: 0x6FF6B, size: 0x8, addend: 0x0, symName: __ZN6sentry12SentryMetric26_gde_binding_free_callbackEPvS1_S1_, symObjAddr: 0xA1A0, symBinAddr: 0xE1A0, symSize: 0x4 }
  - { offset: 0x6FF9E, size: 0x8, addend: 0x0, symName: __ZN6sentry12SentryMetric31_gde_binding_reference_callbackEPvS1_h, symObjAddr: 0xA1A4, symBinAddr: 0xE1A4, symSize: 0x8 }
  - { offset: 0x6FFE8, size: 0x8, addend: 0x0, symName: __ZN5godot7ClassDB15_register_classIN6sentry13DisabledEventELb0EEEvbbb.cold.1, symObjAddr: 0xFDCC, symBinAddr: 0xFB1C8, symSize: 0x5C }
  - { offset: 0x70016, size: 0x8, addend: 0x0, symName: __ZN5godot7ClassDB15_register_classIN6sentry13DisabledEventELb0EEEvbbb.cold.2, symObjAddr: 0xFE28, symBinAddr: 0xFB224, symSize: 0x58 }
  - { offset: 0x70044, size: 0x8, addend: 0x0, symName: __ZN5godot7ClassDB15_register_classIN6sentry13DisabledEventELb0EEEvbbb.cold.3, symObjAddr: 0xFE80, symBinAddr: 0xFB27C, symSize: 0x58 }
  - { offset: 0x70087, size: 0x8, addend: 0x0, symName: __ZN5godot7ClassDB15_register_classIN6sentry13DisabledEventELb0EEEvbbb.cold.4, symObjAddr: 0xFED8, symBinAddr: 0xFB2D4, symSize: 0x58 }
  - { offset: 0x700B6, size: 0x8, addend: 0x0, symName: __ZN6sentry13DisabledEvent8set_bindEPvPKvS3_, symObjAddr: 0xA4E4, symBinAddr: 0xE4E4, symSize: 0x8 }
  - { offset: 0x700F6, size: 0x8, addend: 0x0, symName: __ZN6sentry13DisabledEvent8get_bindEPvPKvS1_, symObjAddr: 0xA4EC, symBinAddr: 0xE4EC, symSize: 0x8 }
  - { offset: 0x70136, size: 0x8, addend: 0x0, symName: __ZN6sentry13DisabledEvent23free_property_list_bindEPvPK23GDExtensionPropertyInfoj, symObjAddr: 0xA4F4, symBinAddr: 0xE4F4, symSize: 0x58 }
  - { offset: 0x70250, size: 0x8, addend: 0x0, symName: __ZN6sentry13DisabledEvent24property_can_revert_bindEPvPKv, symObjAddr: 0xA54C, symBinAddr: 0xE54C, symSize: 0x8 }
  - { offset: 0x70282, size: 0x8, addend: 0x0, symName: __ZN6sentry13DisabledEvent24property_get_revert_bindEPvPKvS1_, symObjAddr: 0xA554, symBinAddr: 0xE554, symSize: 0x8 }
  - { offset: 0x70307, size: 0x8, addend: 0x0, symName: __ZN6sentry13DisabledEvent22validate_property_bindEPvP23GDExtensionPropertyInfo, symObjAddr: 0xA55C, symBinAddr: 0xE55C, symSize: 0xC8 }
  - { offset: 0x703EE, size: 0x8, addend: 0x0, symName: __ZN6sentry13DisabledEvent17notification_bindEPvih, symObjAddr: 0xA624, symBinAddr: 0xE624, symSize: 0x4 }
  - { offset: 0x70465, size: 0x8, addend: 0x0, symName: __ZN6sentry13DisabledEvent14to_string_bindEPvPhS1_, symObjAddr: 0xA628, symBinAddr: 0xE628, symSize: 0x7C }
  - { offset: 0x705B3, size: 0x8, addend: 0x0, symName: __ZN5godot7ClassDB21_create_instance_funcIN6sentry13DisabledEventEEEPvS4_h, symObjAddr: 0xA6A4, symBinAddr: 0xE6A4, symSize: 0x118 }
  - { offset: 0x70737, size: 0x8, addend: 0x0, symName: __ZN5godot7ClassDB21_create_instance_funcIN6sentry13DisabledEventEEEPvS4_h.cold.1, symObjAddr: 0xFF30, symBinAddr: 0xFB32C, symSize: 0x5C }
  - { offset: 0x7078F, size: 0x8, addend: 0x0, symName: __ZN6sentry13DisabledEvent4freeEPvS1_, symObjAddr: 0xA7BC, symBinAddr: 0xE7BC, symSize: 0x3C }
  - { offset: 0x707EA, size: 0x8, addend: 0x0, symName: __ZN5godot7ClassDB23_recreate_instance_funcIN6sentry13DisabledEventEEEPvS4_S4_, symObjAddr: 0xA7F8, symBinAddr: 0xE7F8, symSize: 0x8 }
  - { offset: 0x70825, size: 0x8, addend: 0x0, symName: __ZN6sentry13DisabledEvent28_gde_binding_create_callbackEPvS1_, symObjAddr: 0xA800, symBinAddr: 0xE800, symSize: 0x8 }
  - { offset: 0x70850, size: 0x8, addend: 0x0, symName: __ZN6sentry13DisabledEvent26_gde_binding_free_callbackEPvS1_S1_, symObjAddr: 0xA808, symBinAddr: 0xE808, symSize: 0x4 }
  - { offset: 0x70883, size: 0x8, addend: 0x0, symName: __ZN6sentry13DisabledEvent31_gde_binding_reference_callbackEPvS1_h, symObjAddr: 0xA80C, symBinAddr: 0xE80C, symSize: 0x8 }
  - { offset: 0x708B8, size: 0x8, addend: 0x0, symName: __ZNK6sentry13DisabledEvent19_is_extension_classEv, symObjAddr: 0xA814, symBinAddr: 0xE814, symSize: 0x8 }
  - { offset: 0x708DF, size: 0x8, addend: 0x0, symName: __ZN6sentry13DisabledEventD1Ev, symObjAddr: 0xA81C, symBinAddr: 0xE81C, symSize: 0x4 }
  - { offset: 0x70902, size: 0x8, addend: 0x0, symName: __ZN6sentry13DisabledEventD1Ev, symObjAddr: 0xA81C, symBinAddr: 0xE81C, symSize: 0x4 }
  - { offset: 0x70915, size: 0x8, addend: 0x0, symName: __ZN6sentry13DisabledEventD2Ev, symObjAddr: 0xA99C, symBinAddr: 0xE99C, symSize: 0xE8 }
  - { offset: 0x70B5C, size: 0x8, addend: 0x0, symName: __ZN6sentry13DisabledEventD0Ev, symObjAddr: 0xA820, symBinAddr: 0xE820, symSize: 0x14 }
  - { offset: 0x70BB9, size: 0x8, addend: 0x0, symName: __ZNK6sentry13DisabledEvent6get_idEv, symObjAddr: 0xA834, symBinAddr: 0xE834, symSize: 0x10 }
  - { offset: 0x70BE0, size: 0x8, addend: 0x0, symName: __ZN6sentry13DisabledEvent11set_messageERKN5godot6StringE, symObjAddr: 0xA844, symBinAddr: 0xE844, symSize: 0x8 }
  - { offset: 0x70C15, size: 0x8, addend: 0x0, symName: __ZNK6sentry13DisabledEvent11get_messageEv, symObjAddr: 0xA84C, symBinAddr: 0xE84C, symSize: 0xC }
  - { offset: 0x70C94, size: 0x8, addend: 0x0, symName: __ZN6sentry13DisabledEvent13set_timestampERKN5godot3RefINS_15SentryTimestampEEE, symObjAddr: 0xA858, symBinAddr: 0xE858, symSize: 0x70 }
  - { offset: 0x70DA8, size: 0x8, addend: 0x0, symName: __ZNK6sentry13DisabledEvent13get_timestampEv, symObjAddr: 0xA8C8, symBinAddr: 0xE8C8, symSize: 0x18 }
  - { offset: 0x70DD1, size: 0x8, addend: 0x0, symName: __ZNK6sentry13DisabledEvent13get_timestampEv, symObjAddr: 0xA8C8, symBinAddr: 0xE8C8, symSize: 0x18 }
  - { offset: 0x70DF5, size: 0x8, addend: 0x0, symName: __ZNK6sentry13DisabledEvent13get_timestampEv, symObjAddr: 0xA8C8, symBinAddr: 0xE8C8, symSize: 0x18 }
  - { offset: 0x70E3E, size: 0x8, addend: 0x0, symName: __ZNK6sentry13DisabledEvent12get_platformEv, symObjAddr: 0xA8E0, symBinAddr: 0xE8E0, symSize: 0x10 }
  - { offset: 0x70E65, size: 0x8, addend: 0x0, symName: __ZN6sentry13DisabledEvent9set_levelENS_5LevelE, symObjAddr: 0xA8F0, symBinAddr: 0xE8F0, symSize: 0x8 }
  - { offset: 0x70E98, size: 0x8, addend: 0x0, symName: __ZNK6sentry13DisabledEvent9get_levelEv, symObjAddr: 0xA8F8, symBinAddr: 0xE8F8, symSize: 0x8 }
  - { offset: 0x70EBF, size: 0x8, addend: 0x0, symName: __ZN6sentry13DisabledEvent10set_loggerERKN5godot6StringE, symObjAddr: 0xA900, symBinAddr: 0xE900, symSize: 0x8 }
  - { offset: 0x70EF4, size: 0x8, addend: 0x0, symName: __ZNK6sentry13DisabledEvent10get_loggerEv, symObjAddr: 0xA908, symBinAddr: 0xE908, symSize: 0xC }
  - { offset: 0x70F1B, size: 0x8, addend: 0x0, symName: __ZN6sentry13DisabledEvent11set_releaseERKN5godot6StringE, symObjAddr: 0xA914, symBinAddr: 0xE914, symSize: 0x8 }
  - { offset: 0x70F50, size: 0x8, addend: 0x0, symName: __ZNK6sentry13DisabledEvent11get_releaseEv, symObjAddr: 0xA91C, symBinAddr: 0xE91C, symSize: 0xC }
  - { offset: 0x70F77, size: 0x8, addend: 0x0, symName: __ZN6sentry13DisabledEvent8set_distERKN5godot6StringE, symObjAddr: 0xA928, symBinAddr: 0xE928, symSize: 0x8 }
  - { offset: 0x70FAC, size: 0x8, addend: 0x0, symName: __ZNK6sentry13DisabledEvent8get_distEv, symObjAddr: 0xA930, symBinAddr: 0xE930, symSize: 0xC }
  - { offset: 0x70FD3, size: 0x8, addend: 0x0, symName: __ZN6sentry13DisabledEvent15set_environmentERKN5godot6StringE, symObjAddr: 0xA93C, symBinAddr: 0xE93C, symSize: 0x8 }
  - { offset: 0x71008, size: 0x8, addend: 0x0, symName: __ZNK6sentry13DisabledEvent15get_environmentEv, symObjAddr: 0xA944, symBinAddr: 0xE944, symSize: 0xC }
  - { offset: 0x7102F, size: 0x8, addend: 0x0, symName: __ZN6sentry13DisabledEvent7set_tagERKN5godot6StringES4_, symObjAddr: 0xA950, symBinAddr: 0xE950, symSize: 0x4 }
  - { offset: 0x71070, size: 0x8, addend: 0x0, symName: __ZN6sentry13DisabledEvent10remove_tagERKN5godot6StringE, symObjAddr: 0xA954, symBinAddr: 0xE954, symSize: 0x4 }
  - { offset: 0x710A3, size: 0x8, addend: 0x0, symName: __ZN6sentry13DisabledEvent7get_tagERKN5godot6StringE, symObjAddr: 0xA958, symBinAddr: 0xE958, symSize: 0x10 }
  - { offset: 0x710D9, size: 0x8, addend: 0x0, symName: __ZN6sentry13DisabledEvent13merge_contextERKN5godot6StringERKNS1_10DictionaryE, symObjAddr: 0xA968, symBinAddr: 0xE968, symSize: 0x4 }
  - { offset: 0x7111A, size: 0x8, addend: 0x0, symName: __ZN6sentry13DisabledEvent13add_exceptionERKNS_11SentryEvent9ExceptionE, symObjAddr: 0xA96C, symBinAddr: 0xE96C, symSize: 0x4 }
  - { offset: 0x7114D, size: 0x8, addend: 0x0, symName: __ZNK6sentry13DisabledEvent19get_exception_countEv, symObjAddr: 0xA970, symBinAddr: 0xE970, symSize: 0x8 }
  - { offset: 0x71174, size: 0x8, addend: 0x0, symName: __ZN6sentry13DisabledEvent19set_exception_valueEiRKN5godot6StringE, symObjAddr: 0xA978, symBinAddr: 0xE978, symSize: 0x4 }
  - { offset: 0x711B5, size: 0x8, addend: 0x0, symName: __ZNK6sentry13DisabledEvent19get_exception_valueEi, symObjAddr: 0xA97C, symBinAddr: 0xE97C, symSize: 0x8 }
  - { offset: 0x711EA, size: 0x8, addend: 0x0, symName: __ZNK6sentry13DisabledEvent8is_crashEv, symObjAddr: 0xA984, symBinAddr: 0xE984, symSize: 0x8 }
  - { offset: 0x71211, size: 0x8, addend: 0x0, symName: __ZNK6sentry13DisabledEvent7to_jsonEv, symObjAddr: 0xA98C, symBinAddr: 0xE98C, symSize: 0x10 }
  - { offset: 0x71286, size: 0x8, addend: 0x0, symName: __ZN6sentry13DisabledEventD2Ev.cold.1, symObjAddr: 0xFF8C, symBinAddr: 0xFB388, symSize: 0x1C }
  - { offset: 0x712A1, size: 0x8, addend: 0x0, symName: __ZN6sentry13DisabledEventD2Ev.cold.1, symObjAddr: 0xFF8C, symBinAddr: 0xFB388, symSize: 0x1C }
  - { offset: 0x712B5, size: 0x8, addend: 0x0, symName: __ZN6sentry13DisabledEventD2Ev.cold.1, symObjAddr: 0xFF8C, symBinAddr: 0xFB388, symSize: 0x1C }
  - { offset: 0x712C9, size: 0x8, addend: 0x0, symName: __ZN6sentry13DisabledEventD2Ev.cold.1, symObjAddr: 0xFF8C, symBinAddr: 0xFB388, symSize: 0x1C }
  - { offset: 0x712DD, size: 0x8, addend: 0x0, symName: __ZN6sentry13DisabledEventD2Ev.cold.1, symObjAddr: 0xFF8C, symBinAddr: 0xFB388, symSize: 0x1C }
  - { offset: 0x712F1, size: 0x8, addend: 0x0, symName: __ZN6sentry13DisabledEventD2Ev.cold.1, symObjAddr: 0xFF8C, symBinAddr: 0xFB388, symSize: 0x1C }
  - { offset: 0x71306, size: 0x8, addend: 0x0, symName: __ZN6sentry13DisabledEventD2Ev.cold.1, symObjAddr: 0xFF8C, symBinAddr: 0xFB388, symSize: 0x1C }
  - { offset: 0x71333, size: 0x8, addend: 0x0, symName: __ZN5godot7ClassDB15_register_classIN6sentry20SentryEventProcessorELb0EEEvbbb.cold.1, symObjAddr: 0xFFA8, symBinAddr: 0xFB3A4, symSize: 0x5C }
  - { offset: 0x71361, size: 0x8, addend: 0x0, symName: __ZN5godot7ClassDB15_register_classIN6sentry20SentryEventProcessorELb0EEEvbbb.cold.2, symObjAddr: 0x10004, symBinAddr: 0xFB400, symSize: 0x58 }
  - { offset: 0x7138F, size: 0x8, addend: 0x0, symName: __ZN5godot7ClassDB15_register_classIN6sentry20SentryEventProcessorELb0EEEvbbb.cold.3, symObjAddr: 0x1005C, symBinAddr: 0xFB458, symSize: 0x58 }
  - { offset: 0x713D2, size: 0x8, addend: 0x0, symName: __ZN5godot7ClassDB15_register_classIN6sentry20SentryEventProcessorELb0EEEvbbb.cold.4, symObjAddr: 0x100B4, symBinAddr: 0xFB4B0, symSize: 0x58 }
  - { offset: 0x71401, size: 0x8, addend: 0x0, symName: __ZN6sentry20SentryEventProcessor8set_bindEPvPKvS3_, symObjAddr: 0xADB0, symBinAddr: 0xEDB0, symSize: 0x8 }
  - { offset: 0x71441, size: 0x8, addend: 0x0, symName: __ZN6sentry20SentryEventProcessor8get_bindEPvPKvS1_, symObjAddr: 0xADB8, symBinAddr: 0xEDB8, symSize: 0x8 }
  - { offset: 0x71481, size: 0x8, addend: 0x0, symName: __ZN6sentry20SentryEventProcessor22get_property_list_bindEPvPj, symObjAddr: 0xADC0, symBinAddr: 0xEDC0, symSize: 0x40 }
  - { offset: 0x7150D, size: 0x8, addend: 0x0, symName: __ZN6sentry20SentryEventProcessor22get_property_list_bindEPvPj.cold.1, symObjAddr: 0x1010C, symBinAddr: 0xFB508, symSize: 0x28 }
  - { offset: 0x71525, size: 0x8, addend: 0x0, symName: __ZN6sentry20SentryEventProcessor23free_property_list_bindEPvPK23GDExtensionPropertyInfoj, symObjAddr: 0xAE00, symBinAddr: 0xEE00, symSize: 0x58 }
  - { offset: 0x7163F, size: 0x8, addend: 0x0, symName: __ZN6sentry20SentryEventProcessor24property_can_revert_bindEPvPKv, symObjAddr: 0xAE58, symBinAddr: 0xEE58, symSize: 0x8 }
  - { offset: 0x71671, size: 0x8, addend: 0x0, symName: __ZN6sentry20SentryEventProcessor24property_get_revert_bindEPvPKvS1_, symObjAddr: 0xAE60, symBinAddr: 0xEE60, symSize: 0x8 }
  - { offset: 0x716B1, size: 0x8, addend: 0x0, symName: __ZN6sentry20SentryEventProcessor22validate_property_bindEPvP23GDExtensionPropertyInfo, symObjAddr: 0xAE68, symBinAddr: 0xEE68, symSize: 0xB8 }
  - { offset: 0x71756, size: 0x8, addend: 0x0, symName: __ZN6sentry20SentryEventProcessor17notification_bindEPvih, symObjAddr: 0xAF20, symBinAddr: 0xEF20, symSize: 0x4 }
  - { offset: 0x71795, size: 0x8, addend: 0x0, symName: __ZN6sentry20SentryEventProcessor14to_string_bindEPvPhS1_, symObjAddr: 0xAF24, symBinAddr: 0xEF24, symSize: 0x7C }
  - { offset: 0x71850, size: 0x8, addend: 0x0, symName: __ZN5godot7ClassDB21_create_instance_funcIN6sentry20SentryEventProcessorEEEPvS4_h, symObjAddr: 0xAFA0, symBinAddr: 0xEFA0, symSize: 0xE4 }
  - { offset: 0x7197C, size: 0x8, addend: 0x0, symName: __ZN5godot7ClassDB21_create_instance_funcIN6sentry20SentryEventProcessorEEEPvS4_h.cold.1, symObjAddr: 0x10134, symBinAddr: 0xFB530, symSize: 0x5C }
  - { offset: 0x719D4, size: 0x8, addend: 0x0, symName: __ZN6sentry20SentryEventProcessor4freeEPvS1_, symObjAddr: 0xB084, symBinAddr: 0xF084, symSize: 0x3C }
  - { offset: 0x71A2F, size: 0x8, addend: 0x0, symName: __ZN5godot7ClassDB23_recreate_instance_funcIN6sentry20SentryEventProcessorEEEPvS4_S4_, symObjAddr: 0xB0C0, symBinAddr: 0xF0C0, symSize: 0x8 }
  - { offset: 0x71A6A, size: 0x8, addend: 0x0, symName: __ZN6sentry20SentryEventProcessor28_gde_binding_create_callbackEPvS1_, symObjAddr: 0xB0C8, symBinAddr: 0xF0C8, symSize: 0x8 }
  - { offset: 0x71A95, size: 0x8, addend: 0x0, symName: __ZN6sentry20SentryEventProcessor26_gde_binding_free_callbackEPvS1_S1_, symObjAddr: 0xB0D0, symBinAddr: 0xF0D0, symSize: 0x4 }
  - { offset: 0x71AC8, size: 0x8, addend: 0x0, symName: __ZN6sentry20SentryEventProcessor31_gde_binding_reference_callbackEPvS1_h, symObjAddr: 0xB0D4, symBinAddr: 0xF0D4, symSize: 0x8 }
  - { offset: 0x71AFD, size: 0x8, addend: 0x0, symName: __ZNK6sentry20SentryEventProcessor19_is_extension_classEv, symObjAddr: 0xB0DC, symBinAddr: 0xF0DC, symSize: 0x8 }
  - { offset: 0x71B3E, size: 0x8, addend: 0x0, symName: __ZN6sentry20SentryEventProcessorD1Ev, symObjAddr: 0xB0E4, symBinAddr: 0xF0E4, symSize: 0x8C }
  - { offset: 0x71CDC, size: 0x8, addend: 0x0, symName: __ZN6sentry20SentryEventProcessorD1Ev.cold.1, symObjAddr: 0x10190, symBinAddr: 0xFB58C, symSize: 0x1C }
  - { offset: 0x71CF7, size: 0x8, addend: 0x0, symName: __ZN6sentry20SentryEventProcessorD1Ev.cold.1, symObjAddr: 0x10190, symBinAddr: 0xFB58C, symSize: 0x1C }
  - { offset: 0x71D0B, size: 0x8, addend: 0x0, symName: __ZN6sentry20SentryEventProcessorD1Ev.cold.1, symObjAddr: 0x10190, symBinAddr: 0xFB58C, symSize: 0x1C }
  - { offset: 0x71D1F, size: 0x8, addend: 0x0, symName: __ZN6sentry20SentryEventProcessorD1Ev.cold.1, symObjAddr: 0x10190, symBinAddr: 0xFB58C, symSize: 0x1C }
  - { offset: 0x71D33, size: 0x8, addend: 0x0, symName: __ZN6sentry20SentryEventProcessorD1Ev.cold.1, symObjAddr: 0x10190, symBinAddr: 0xFB58C, symSize: 0x1C }
  - { offset: 0x71D47, size: 0x8, addend: 0x0, symName: __ZN6sentry20SentryEventProcessorD1Ev.cold.1, symObjAddr: 0x10190, symBinAddr: 0xFB58C, symSize: 0x1C }
  - { offset: 0x71D5C, size: 0x8, addend: 0x0, symName: __ZN6sentry20SentryEventProcessorD1Ev.cold.1, symObjAddr: 0x10190, symBinAddr: 0xFB58C, symSize: 0x1C }
  - { offset: 0x71D8E, size: 0x8, addend: 0x0, symName: __ZN6sentry20SentryEventProcessorD0Ev, symObjAddr: 0xB170, symBinAddr: 0xF170, symSize: 0x74 }
  - { offset: 0x71ED7, size: 0x8, addend: 0x0, symName: __ZN6sentry20SentryEventProcessorD0Ev.cold.1, symObjAddr: 0x101AC, symBinAddr: 0xFB5A8, symSize: 0x1C }
  - { offset: 0x71EF2, size: 0x8, addend: 0x0, symName: __ZN6sentry20SentryEventProcessorD0Ev.cold.1, symObjAddr: 0x101AC, symBinAddr: 0xFB5A8, symSize: 0x1C }
  - { offset: 0x71F06, size: 0x8, addend: 0x0, symName: __ZN6sentry20SentryEventProcessorD0Ev.cold.1, symObjAddr: 0x101AC, symBinAddr: 0xFB5A8, symSize: 0x1C }
  - { offset: 0x71F1A, size: 0x8, addend: 0x0, symName: __ZN6sentry20SentryEventProcessorD0Ev.cold.1, symObjAddr: 0x101AC, symBinAddr: 0xFB5A8, symSize: 0x1C }
  - { offset: 0x71F2E, size: 0x8, addend: 0x0, symName: __ZN6sentry20SentryEventProcessorD0Ev.cold.1, symObjAddr: 0x101AC, symBinAddr: 0xFB5A8, symSize: 0x1C }
  - { offset: 0x71F42, size: 0x8, addend: 0x0, symName: __ZN6sentry20SentryEventProcessorD0Ev.cold.1, symObjAddr: 0x101AC, symBinAddr: 0xFB5A8, symSize: 0x1C }
  - { offset: 0x71F56, size: 0x8, addend: 0x0, symName: __ZN6sentry20SentryEventProcessorD0Ev.cold.1, symObjAddr: 0x101AC, symBinAddr: 0xFB5A8, symSize: 0x1C }
  - { offset: 0x71F6B, size: 0x8, addend: 0x0, symName: __ZN6sentry20SentryEventProcessorD0Ev.cold.1, symObjAddr: 0x101AC, symBinAddr: 0xFB5A8, symSize: 0x1C }
  - { offset: 0x71FF4, size: 0x8, addend: 0x0, symName: __ZN6sentry20SentryEventProcessor13process_eventERKN5godot3RefINS_11SentryEventEEE, symObjAddr: 0xB1E4, symBinAddr: 0xF1E4, symSize: 0x18 }
  - { offset: 0x7202B, size: 0x8, addend: 0x0, symName: __ZN6sentry20SentryEventProcessor13process_eventERKN5godot3RefINS_11SentryEventEEE, symObjAddr: 0xB1E4, symBinAddr: 0xF1E4, symSize: 0x18 }
  - { offset: 0x7204D, size: 0x8, addend: 0x0, symName: __ZN6sentry20SentryEventProcessor13process_eventERKN5godot3RefINS_11SentryEventEEE, symObjAddr: 0xB1E4, symBinAddr: 0xF1E4, symSize: 0x18 }
  - { offset: 0x720A7, size: 0x8, addend: 0x0, symName: __ZN5godot7ClassDB15_register_classIN6sentry19ScreenshotProcessorELb0EEEvbbb.cold.1, symObjAddr: 0x101C8, symBinAddr: 0xFB5C4, symSize: 0x5C }
  - { offset: 0x720D5, size: 0x8, addend: 0x0, symName: __ZN5godot7ClassDB15_register_classIN6sentry19ScreenshotProcessorELb0EEEvbbb.cold.2, symObjAddr: 0x10224, symBinAddr: 0xFB620, symSize: 0x58 }
  - { offset: 0x72103, size: 0x8, addend: 0x0, symName: __ZN5godot7ClassDB15_register_classIN6sentry19ScreenshotProcessorELb0EEEvbbb.cold.3, symObjAddr: 0x1027C, symBinAddr: 0xFB678, symSize: 0x58 }
  - { offset: 0x72146, size: 0x8, addend: 0x0, symName: __ZN5godot7ClassDB15_register_classIN6sentry19ScreenshotProcessorELb0EEEvbbb.cold.4, symObjAddr: 0x102D4, symBinAddr: 0xFB6D0, symSize: 0x58 }
  - { offset: 0x72175, size: 0x8, addend: 0x0, symName: __ZN6sentry19ScreenshotProcessor8set_bindEPvPKvS3_, symObjAddr: 0xB534, symBinAddr: 0xF534, symSize: 0x8 }
  - { offset: 0x721B5, size: 0x8, addend: 0x0, symName: __ZN6sentry19ScreenshotProcessor8get_bindEPvPKvS1_, symObjAddr: 0xB53C, symBinAddr: 0xF53C, symSize: 0x8 }
  - { offset: 0x721F5, size: 0x8, addend: 0x0, symName: __ZN6sentry19ScreenshotProcessor23free_property_list_bindEPvPK23GDExtensionPropertyInfoj, symObjAddr: 0xB544, symBinAddr: 0xF544, symSize: 0x58 }
  - { offset: 0x7230F, size: 0x8, addend: 0x0, symName: __ZN6sentry19ScreenshotProcessor24property_can_revert_bindEPvPKv, symObjAddr: 0xB59C, symBinAddr: 0xF59C, symSize: 0x8 }
  - { offset: 0x72341, size: 0x8, addend: 0x0, symName: __ZN6sentry19ScreenshotProcessor24property_get_revert_bindEPvPKvS1_, symObjAddr: 0xB5A4, symBinAddr: 0xF5A4, symSize: 0x8 }
  - { offset: 0x723C6, size: 0x8, addend: 0x0, symName: __ZN6sentry19ScreenshotProcessor22validate_property_bindEPvP23GDExtensionPropertyInfo, symObjAddr: 0xB5AC, symBinAddr: 0xF5AC, symSize: 0xC8 }
  - { offset: 0x724AD, size: 0x8, addend: 0x0, symName: __ZN6sentry19ScreenshotProcessor17notification_bindEPvih, symObjAddr: 0xB674, symBinAddr: 0xF674, symSize: 0x4 }
  - { offset: 0x72524, size: 0x8, addend: 0x0, symName: __ZN6sentry19ScreenshotProcessor14to_string_bindEPvPhS1_, symObjAddr: 0xB678, symBinAddr: 0xF678, symSize: 0x7C }
  - { offset: 0x725E5, size: 0x8, addend: 0x0, symName: __ZN5godot7ClassDB21_create_instance_funcIN6sentry19ScreenshotProcessorEEEPvS4_h, symObjAddr: 0xB6F4, symBinAddr: 0xF6F4, symSize: 0x80 }
  - { offset: 0x72673, size: 0x8, addend: 0x0, symName: __ZN5godot7ClassDB21_create_instance_funcIN6sentry19ScreenshotProcessorEEEPvS4_h.cold.1, symObjAddr: 0x1032C, symBinAddr: 0xFB728, symSize: 0x5C }
  - { offset: 0x726CB, size: 0x8, addend: 0x0, symName: __ZN6sentry19ScreenshotProcessor4freeEPvS1_, symObjAddr: 0xB774, symBinAddr: 0xF774, symSize: 0x3C }
  - { offset: 0x72726, size: 0x8, addend: 0x0, symName: __ZN5godot7ClassDB23_recreate_instance_funcIN6sentry19ScreenshotProcessorEEEPvS4_S4_, symObjAddr: 0xB7B0, symBinAddr: 0xF7B0, symSize: 0x8 }
  - { offset: 0x72761, size: 0x8, addend: 0x0, symName: __ZN6sentry19ScreenshotProcessor28_gde_binding_create_callbackEPvS1_, symObjAddr: 0xB7B8, symBinAddr: 0xF7B8, symSize: 0x8 }
  - { offset: 0x7278C, size: 0x8, addend: 0x0, symName: __ZN6sentry19ScreenshotProcessor26_gde_binding_free_callbackEPvS1_S1_, symObjAddr: 0xB7C0, symBinAddr: 0xF7C0, symSize: 0x4 }
  - { offset: 0x727BF, size: 0x8, addend: 0x0, symName: __ZN6sentry19ScreenshotProcessor31_gde_binding_reference_callbackEPvS1_h, symObjAddr: 0xB7C4, symBinAddr: 0xF7C4, symSize: 0x8 }
  - { offset: 0x72809, size: 0x8, addend: 0x0, symName: __ZN5godot7ClassDB15_register_classIN6sentry22ViewHierarchyProcessorELb0EEEvbbb.cold.1, symObjAddr: 0x10388, symBinAddr: 0xFB784, symSize: 0x5C }
  - { offset: 0x72837, size: 0x8, addend: 0x0, symName: __ZN5godot7ClassDB15_register_classIN6sentry22ViewHierarchyProcessorELb0EEEvbbb.cold.2, symObjAddr: 0x103E4, symBinAddr: 0xFB7E0, symSize: 0x58 }
  - { offset: 0x72865, size: 0x8, addend: 0x0, symName: __ZN5godot7ClassDB15_register_classIN6sentry22ViewHierarchyProcessorELb0EEEvbbb.cold.3, symObjAddr: 0x1043C, symBinAddr: 0xFB838, symSize: 0x58 }
  - { offset: 0x728A8, size: 0x8, addend: 0x0, symName: __ZN5godot7ClassDB15_register_classIN6sentry22ViewHierarchyProcessorELb0EEEvbbb.cold.4, symObjAddr: 0x10494, symBinAddr: 0xFB890, symSize: 0x58 }
  - { offset: 0x728D7, size: 0x8, addend: 0x0, symName: __ZN6sentry22ViewHierarchyProcessor8set_bindEPvPKvS3_, symObjAddr: 0xBB04, symBinAddr: 0xFB04, symSize: 0x8 }
  - { offset: 0x72917, size: 0x8, addend: 0x0, symName: __ZN6sentry22ViewHierarchyProcessor8get_bindEPvPKvS1_, symObjAddr: 0xBB0C, symBinAddr: 0xFB0C, symSize: 0x8 }
  - { offset: 0x72957, size: 0x8, addend: 0x0, symName: __ZN6sentry22ViewHierarchyProcessor23free_property_list_bindEPvPK23GDExtensionPropertyInfoj, symObjAddr: 0xBB14, symBinAddr: 0xFB14, symSize: 0x58 }
  - { offset: 0x72A71, size: 0x8, addend: 0x0, symName: __ZN6sentry22ViewHierarchyProcessor24property_can_revert_bindEPvPKv, symObjAddr: 0xBB6C, symBinAddr: 0xFB6C, symSize: 0x8 }
  - { offset: 0x72AA3, size: 0x8, addend: 0x0, symName: __ZN6sentry22ViewHierarchyProcessor24property_get_revert_bindEPvPKvS1_, symObjAddr: 0xBB74, symBinAddr: 0xFB74, symSize: 0x8 }
  - { offset: 0x72AE3, size: 0x8, addend: 0x0, symName: __ZN6sentry22ViewHierarchyProcessor22validate_property_bindEPvP23GDExtensionPropertyInfo, symObjAddr: 0xBB7C, symBinAddr: 0xFB7C, symSize: 0xC8 }
  - { offset: 0x72BCA, size: 0x8, addend: 0x0, symName: __ZN6sentry22ViewHierarchyProcessor17notification_bindEPvih, symObjAddr: 0xBC44, symBinAddr: 0xFC44, symSize: 0x4 }
  - { offset: 0x72C09, size: 0x8, addend: 0x0, symName: __ZN6sentry22ViewHierarchyProcessor14to_string_bindEPvPhS1_, symObjAddr: 0xBC48, symBinAddr: 0xFC48, symSize: 0x7C }
  - { offset: 0x72CCA, size: 0x8, addend: 0x0, symName: __ZN5godot7ClassDB21_create_instance_funcIN6sentry22ViewHierarchyProcessorEEEPvS4_h, symObjAddr: 0xBCC4, symBinAddr: 0xFCC4, symSize: 0x80 }
  - { offset: 0x72D58, size: 0x8, addend: 0x0, symName: __ZN5godot7ClassDB21_create_instance_funcIN6sentry22ViewHierarchyProcessorEEEPvS4_h.cold.1, symObjAddr: 0x104EC, symBinAddr: 0xFB8E8, symSize: 0x5C }
  - { offset: 0x72DB0, size: 0x8, addend: 0x0, symName: __ZN6sentry22ViewHierarchyProcessor4freeEPvS1_, symObjAddr: 0xBD44, symBinAddr: 0xFD44, symSize: 0x3C }
  - { offset: 0x72E0B, size: 0x8, addend: 0x0, symName: __ZN5godot7ClassDB23_recreate_instance_funcIN6sentry22ViewHierarchyProcessorEEEPvS4_S4_, symObjAddr: 0xBD80, symBinAddr: 0xFD80, symSize: 0x8 }
  - { offset: 0x72E46, size: 0x8, addend: 0x0, symName: __ZN6sentry22ViewHierarchyProcessor28_gde_binding_create_callbackEPvS1_, symObjAddr: 0xBD88, symBinAddr: 0xFD88, symSize: 0x8 }
  - { offset: 0x72E71, size: 0x8, addend: 0x0, symName: __ZN6sentry22ViewHierarchyProcessor26_gde_binding_free_callbackEPvS1_S1_, symObjAddr: 0xBD90, symBinAddr: 0xFD90, symSize: 0x4 }
  - { offset: 0x72EA4, size: 0x8, addend: 0x0, symName: __ZN6sentry22ViewHierarchyProcessor31_gde_binding_reference_callbackEPvS1_h, symObjAddr: 0xBD94, symBinAddr: 0xFD94, symSize: 0x8 }
  - { offset: 0x72EEE, size: 0x8, addend: 0x0, symName: __ZN5godot6Logger17register_virtualsIN6sentry7logging17SentryGodotLoggerES0_EEvv, symObjAddr: 0xC39C, symBinAddr: 0x1039C, symSize: 0xEC }
  - { offset: 0x72FDF, size: 0x8, addend: 0x0, symName: __ZN5godot7ClassDB15_register_classIN6sentry7logging17SentryGodotLoggerELb0EEEvbbb.cold.1, symObjAddr: 0x10548, symBinAddr: 0xFB944, symSize: 0x5C }
  - { offset: 0x7300D, size: 0x8, addend: 0x0, symName: __ZN5godot7ClassDB15_register_classIN6sentry7logging17SentryGodotLoggerELb0EEEvbbb.cold.2, symObjAddr: 0x105A4, symBinAddr: 0xFB9A0, symSize: 0x58 }
  - { offset: 0x7303B, size: 0x8, addend: 0x0, symName: __ZN5godot7ClassDB15_register_classIN6sentry7logging17SentryGodotLoggerELb0EEEvbbb.cold.3, symObjAddr: 0x105FC, symBinAddr: 0xFB9F8, symSize: 0x58 }
  - { offset: 0x7307E, size: 0x8, addend: 0x0, symName: __ZN5godot7ClassDB15_register_classIN6sentry7logging17SentryGodotLoggerELb0EEEvbbb.cold.4, symObjAddr: 0x10654, symBinAddr: 0xFBA50, symSize: 0x58 }
  - { offset: 0x730AD, size: 0x8, addend: 0x0, symName: __ZN6sentry7logging17SentryGodotLogger8set_bindEPvPKvS4_, symObjAddr: 0xC0CC, symBinAddr: 0x100CC, symSize: 0x8 }
  - { offset: 0x730ED, size: 0x8, addend: 0x0, symName: __ZN6sentry7logging17SentryGodotLogger8get_bindEPvPKvS2_, symObjAddr: 0xC0D4, symBinAddr: 0x100D4, symSize: 0x8 }
  - { offset: 0x7312D, size: 0x8, addend: 0x0, symName: __ZN6sentry7logging17SentryGodotLogger22get_property_list_bindEPvPj, symObjAddr: 0xC0DC, symBinAddr: 0x100DC, symSize: 0x40 }
  - { offset: 0x731B9, size: 0x8, addend: 0x0, symName: __ZN6sentry7logging17SentryGodotLogger22get_property_list_bindEPvPj.cold.1, symObjAddr: 0x106AC, symBinAddr: 0xFBAA8, symSize: 0x28 }
  - { offset: 0x731D1, size: 0x8, addend: 0x0, symName: __ZN6sentry7logging17SentryGodotLogger23free_property_list_bindEPvPK23GDExtensionPropertyInfoj, symObjAddr: 0xC11C, symBinAddr: 0x1011C, symSize: 0x58 }
  - { offset: 0x732EB, size: 0x8, addend: 0x0, symName: __ZN6sentry7logging17SentryGodotLogger24property_can_revert_bindEPvPKv, symObjAddr: 0xC174, symBinAddr: 0x10174, symSize: 0x8 }
  - { offset: 0x7331D, size: 0x8, addend: 0x0, symName: __ZN6sentry7logging17SentryGodotLogger24property_get_revert_bindEPvPKvS2_, symObjAddr: 0xC17C, symBinAddr: 0x1017C, symSize: 0x8 }
  - { offset: 0x7335D, size: 0x8, addend: 0x0, symName: __ZN6sentry7logging17SentryGodotLogger22validate_property_bindEPvP23GDExtensionPropertyInfo, symObjAddr: 0xC184, symBinAddr: 0x10184, symSize: 0xB8 }
  - { offset: 0x73420, size: 0x8, addend: 0x0, symName: __ZN6sentry7logging17SentryGodotLogger17notification_bindEPvih, symObjAddr: 0xC23C, symBinAddr: 0x1023C, symSize: 0xC }
  - { offset: 0x7347C, size: 0x8, addend: 0x0, symName: __ZN6sentry7logging17SentryGodotLogger14to_string_bindEPvPhS2_, symObjAddr: 0xC248, symBinAddr: 0x10248, symSize: 0x7C }
  - { offset: 0x73517, size: 0x8, addend: 0x0, symName: __ZN5godot7ClassDB21_create_instance_funcIN6sentry7logging17SentryGodotLoggerEEEPvS5_h, symObjAddr: 0xC2C4, symBinAddr: 0x102C4, symSize: 0x80 }
  - { offset: 0x735A5, size: 0x8, addend: 0x0, symName: __ZN5godot7ClassDB21_create_instance_funcIN6sentry7logging17SentryGodotLoggerEEEPvS5_h.cold.1, symObjAddr: 0x106D4, symBinAddr: 0xFBAD0, symSize: 0x5C }
  - { offset: 0x735FD, size: 0x8, addend: 0x0, symName: __ZN6sentry7logging17SentryGodotLogger4freeEPvS2_, symObjAddr: 0xC344, symBinAddr: 0x10344, symSize: 0x3C }
  - { offset: 0x73658, size: 0x8, addend: 0x0, symName: __ZN5godot7ClassDB23_recreate_instance_funcIN6sentry7logging17SentryGodotLoggerEEEPvS5_S5_, symObjAddr: 0xC380, symBinAddr: 0x10380, symSize: 0x8 }
  - { offset: 0x73693, size: 0x8, addend: 0x0, symName: __ZN6sentry7logging17SentryGodotLogger28_gde_binding_create_callbackEPvS2_, symObjAddr: 0xC388, symBinAddr: 0x10388, symSize: 0x8 }
  - { offset: 0x736BE, size: 0x8, addend: 0x0, symName: __ZN6sentry7logging17SentryGodotLogger26_gde_binding_free_callbackEPvS2_S2_, symObjAddr: 0xC390, symBinAddr: 0x10390, symSize: 0x4 }
  - { offset: 0x736F1, size: 0x8, addend: 0x0, symName: __ZN6sentry7logging17SentryGodotLogger31_gde_binding_reference_callbackEPvS2_h, symObjAddr: 0xC394, symBinAddr: 0x10394, symSize: 0x8 }
  - { offset: 0x73726, size: 0x8, addend: 0x0, symName: __ZN5godot6Logger17register_virtualsIN6sentry7logging17SentryGodotLoggerES0_EEvv.cold.1, symObjAddr: 0x10730, symBinAddr: 0xFBB2C, symSize: 0x5C }
  - { offset: 0x73754, size: 0x8, addend: 0x0, symName: __ZN5godot6Logger17register_virtualsIN6sentry7logging17SentryGodotLoggerES0_EEvv.cold.2, symObjAddr: 0x1078C, symBinAddr: 0xFBB88, symSize: 0x58 }
  - { offset: 0x73805, size: 0x8, addend: 0x0, symName: __ZZN5godot6Logger17register_virtualsIN6sentry7logging17SentryGodotLoggerES0_EEvvENUlPvPKPKvS5_E_8__invokeES5_S9_S5_, symObjAddr: 0xC488, symBinAddr: 0x10488, symSize: 0x10 }
  - { offset: 0x739A3, size: 0x8, addend: 0x0, symName: __ZN5godot25call_with_ptr_args_helperIN6sentry7logging17SentryGodotLoggerEJRKNS_6StringES6_iS6_S6_biRKNS_10TypedArrayINS_3RefINS_15ScriptBacktraceEEEEEEJLm0ELm1ELm2ELm3ELm4ELm5ELm6ELm7EEEEvPT_MSE_FvDpT0_EPKPKvNS_13IndexSequenceIJXspT1_EEEE.cold.1, symObjAddr: 0x107E4, symBinAddr: 0xFBBE0, symSize: 0x58 }
  - { offset: 0x73A8C, size: 0x8, addend: 0x0, symName: __ZZN5godot6Logger17register_virtualsIN6sentry7logging17SentryGodotLoggerES0_EEvvENUlPvPKPKvS5_E0_8__invokeES5_S9_S5_, symObjAddr: 0xC644, symBinAddr: 0x10644, symSize: 0x94 }
  - { offset: 0x73BAA, size: 0x8, addend: 0x0, symName: __ZN5godot7ClassDB15_register_classIN6sentry5cocoa10CocoaEventELb0EEEvbbb.cold.1, symObjAddr: 0x1083C, symBinAddr: 0xFBC38, symSize: 0x5C }
  - { offset: 0x73BD8, size: 0x8, addend: 0x0, symName: __ZN5godot7ClassDB15_register_classIN6sentry5cocoa10CocoaEventELb0EEEvbbb.cold.2, symObjAddr: 0x10898, symBinAddr: 0xFBC94, symSize: 0x58 }
  - { offset: 0x73C06, size: 0x8, addend: 0x0, symName: __ZN5godot7ClassDB15_register_classIN6sentry5cocoa10CocoaEventELb0EEEvbbb.cold.3, symObjAddr: 0x108F0, symBinAddr: 0xFBCEC, symSize: 0x58 }
  - { offset: 0x73C49, size: 0x8, addend: 0x0, symName: __ZN5godot7ClassDB15_register_classIN6sentry5cocoa10CocoaEventELb0EEEvbbb.cold.4, symObjAddr: 0x10948, symBinAddr: 0xFBD44, symSize: 0x58 }
  - { offset: 0x73C78, size: 0x8, addend: 0x0, symName: __ZN6sentry5cocoa10CocoaEvent8set_bindEPvPKvS4_, symObjAddr: 0xCA10, symBinAddr: 0x10A10, symSize: 0x8 }
  - { offset: 0x73CB8, size: 0x8, addend: 0x0, symName: __ZN6sentry5cocoa10CocoaEvent8get_bindEPvPKvS2_, symObjAddr: 0xCA18, symBinAddr: 0x10A18, symSize: 0x8 }
  - { offset: 0x73CF8, size: 0x8, addend: 0x0, symName: __ZN6sentry5cocoa10CocoaEvent23free_property_list_bindEPvPK23GDExtensionPropertyInfoj, symObjAddr: 0xCA20, symBinAddr: 0x10A20, symSize: 0x58 }
  - { offset: 0x73E12, size: 0x8, addend: 0x0, symName: __ZN6sentry5cocoa10CocoaEvent24property_can_revert_bindEPvPKv, symObjAddr: 0xCA78, symBinAddr: 0x10A78, symSize: 0x8 }
  - { offset: 0x73E44, size: 0x8, addend: 0x0, symName: __ZN6sentry5cocoa10CocoaEvent24property_get_revert_bindEPvPKvS2_, symObjAddr: 0xCA80, symBinAddr: 0x10A80, symSize: 0x8 }
  - { offset: 0x73E84, size: 0x8, addend: 0x0, symName: __ZN6sentry5cocoa10CocoaEvent22validate_property_bindEPvP23GDExtensionPropertyInfo, symObjAddr: 0xCA88, symBinAddr: 0x10A88, symSize: 0xC8 }
  - { offset: 0x73F6B, size: 0x8, addend: 0x0, symName: __ZN6sentry5cocoa10CocoaEvent17notification_bindEPvih, symObjAddr: 0xCB50, symBinAddr: 0x10B50, symSize: 0x4 }
  - { offset: 0x73FAA, size: 0x8, addend: 0x0, symName: __ZN6sentry5cocoa10CocoaEvent14to_string_bindEPvPhS2_, symObjAddr: 0xCB54, symBinAddr: 0x10B54, symSize: 0x7C }
  - { offset: 0x7406B, size: 0x8, addend: 0x0, symName: __ZN5godot7ClassDB21_create_instance_funcIN6sentry5cocoa10CocoaEventEEEPvS5_h, symObjAddr: 0xCBD0, symBinAddr: 0x10BD0, symSize: 0x80 }
  - { offset: 0x740F9, size: 0x8, addend: 0x0, symName: __ZN5godot7ClassDB21_create_instance_funcIN6sentry5cocoa10CocoaEventEEEPvS5_h.cold.1, symObjAddr: 0x109A0, symBinAddr: 0xFBD9C, symSize: 0x5C }
  - { offset: 0x74151, size: 0x8, addend: 0x0, symName: __ZN6sentry5cocoa10CocoaEvent4freeEPvS2_, symObjAddr: 0xCC50, symBinAddr: 0x10C50, symSize: 0x3C }
  - { offset: 0x741AC, size: 0x8, addend: 0x0, symName: __ZN5godot7ClassDB23_recreate_instance_funcIN6sentry5cocoa10CocoaEventEEEPvS5_S5_, symObjAddr: 0xCC8C, symBinAddr: 0x10C8C, symSize: 0x8 }
  - { offset: 0x741E7, size: 0x8, addend: 0x0, symName: __ZN6sentry5cocoa10CocoaEvent28_gde_binding_create_callbackEPvS2_, symObjAddr: 0xCC94, symBinAddr: 0x10C94, symSize: 0x8 }
  - { offset: 0x74212, size: 0x8, addend: 0x0, symName: __ZN6sentry5cocoa10CocoaEvent26_gde_binding_free_callbackEPvS2_S2_, symObjAddr: 0xCC9C, symBinAddr: 0x10C9C, symSize: 0x4 }
  - { offset: 0x74245, size: 0x8, addend: 0x0, symName: __ZN6sentry5cocoa10CocoaEvent31_gde_binding_reference_callbackEPvS2_h, symObjAddr: 0xCCA0, symBinAddr: 0x10CA0, symSize: 0x8 }
  - { offset: 0x7428F, size: 0x8, addend: 0x0, symName: __ZN5godot7ClassDB15_register_classIN6sentry5cocoa15CocoaBreadcrumbELb0EEEvbbb.cold.1, symObjAddr: 0x109FC, symBinAddr: 0xFBDF8, symSize: 0x5C }
  - { offset: 0x742BD, size: 0x8, addend: 0x0, symName: __ZN5godot7ClassDB15_register_classIN6sentry5cocoa15CocoaBreadcrumbELb0EEEvbbb.cold.2, symObjAddr: 0x10A58, symBinAddr: 0xFBE54, symSize: 0x58 }
  - { offset: 0x742EB, size: 0x8, addend: 0x0, symName: __ZN5godot7ClassDB15_register_classIN6sentry5cocoa15CocoaBreadcrumbELb0EEEvbbb.cold.3, symObjAddr: 0x10AB0, symBinAddr: 0xFBEAC, symSize: 0x58 }
  - { offset: 0x7432E, size: 0x8, addend: 0x0, symName: __ZN5godot7ClassDB15_register_classIN6sentry5cocoa15CocoaBreadcrumbELb0EEEvbbb.cold.4, symObjAddr: 0x10B08, symBinAddr: 0xFBF04, symSize: 0x58 }
  - { offset: 0x7435D, size: 0x8, addend: 0x0, symName: __ZN6sentry5cocoa15CocoaBreadcrumb8set_bindEPvPKvS4_, symObjAddr: 0xCFE0, symBinAddr: 0x10FE0, symSize: 0x8 }
  - { offset: 0x7439D, size: 0x8, addend: 0x0, symName: __ZN6sentry5cocoa15CocoaBreadcrumb8get_bindEPvPKvS2_, symObjAddr: 0xCFE8, symBinAddr: 0x10FE8, symSize: 0x8 }
  - { offset: 0x743DD, size: 0x8, addend: 0x0, symName: __ZN6sentry5cocoa15CocoaBreadcrumb23free_property_list_bindEPvPK23GDExtensionPropertyInfoj, symObjAddr: 0xCFF0, symBinAddr: 0x10FF0, symSize: 0x58 }
  - { offset: 0x744F7, size: 0x8, addend: 0x0, symName: __ZN6sentry5cocoa15CocoaBreadcrumb24property_can_revert_bindEPvPKv, symObjAddr: 0xD048, symBinAddr: 0x11048, symSize: 0x8 }
  - { offset: 0x74529, size: 0x8, addend: 0x0, symName: __ZN6sentry5cocoa15CocoaBreadcrumb24property_get_revert_bindEPvPKvS2_, symObjAddr: 0xD050, symBinAddr: 0x11050, symSize: 0x8 }
  - { offset: 0x745AE, size: 0x8, addend: 0x0, symName: __ZN6sentry5cocoa15CocoaBreadcrumb22validate_property_bindEPvP23GDExtensionPropertyInfo, symObjAddr: 0xD058, symBinAddr: 0x11058, symSize: 0xC8 }
  - { offset: 0x74695, size: 0x8, addend: 0x0, symName: __ZN6sentry5cocoa15CocoaBreadcrumb17notification_bindEPvih, symObjAddr: 0xD120, symBinAddr: 0x11120, symSize: 0x4 }
  - { offset: 0x7470C, size: 0x8, addend: 0x0, symName: __ZN6sentry5cocoa15CocoaBreadcrumb14to_string_bindEPvPhS2_, symObjAddr: 0xD124, symBinAddr: 0x11124, symSize: 0x7C }
  - { offset: 0x747CD, size: 0x8, addend: 0x0, symName: __ZN5godot7ClassDB21_create_instance_funcIN6sentry5cocoa15CocoaBreadcrumbEEEPvS5_h, symObjAddr: 0xD1A0, symBinAddr: 0x111A0, symSize: 0x80 }
  - { offset: 0x7485B, size: 0x8, addend: 0x0, symName: __ZN5godot7ClassDB21_create_instance_funcIN6sentry5cocoa15CocoaBreadcrumbEEEPvS5_h.cold.1, symObjAddr: 0x10B60, symBinAddr: 0xFBF5C, symSize: 0x5C }
  - { offset: 0x748B3, size: 0x8, addend: 0x0, symName: __ZN6sentry5cocoa15CocoaBreadcrumb4freeEPvS2_, symObjAddr: 0xD220, symBinAddr: 0x11220, symSize: 0x3C }
  - { offset: 0x7490E, size: 0x8, addend: 0x0, symName: __ZN5godot7ClassDB23_recreate_instance_funcIN6sentry5cocoa15CocoaBreadcrumbEEEPvS5_S5_, symObjAddr: 0xD25C, symBinAddr: 0x1125C, symSize: 0x8 }
  - { offset: 0x74949, size: 0x8, addend: 0x0, symName: __ZN6sentry5cocoa15CocoaBreadcrumb28_gde_binding_create_callbackEPvS2_, symObjAddr: 0xD264, symBinAddr: 0x11264, symSize: 0x8 }
  - { offset: 0x74974, size: 0x8, addend: 0x0, symName: __ZN6sentry5cocoa15CocoaBreadcrumb26_gde_binding_free_callbackEPvS2_S2_, symObjAddr: 0xD26C, symBinAddr: 0x1126C, symSize: 0x4 }
  - { offset: 0x749A7, size: 0x8, addend: 0x0, symName: __ZN6sentry5cocoa15CocoaBreadcrumb31_gde_binding_reference_callbackEPvS2_h, symObjAddr: 0xD270, symBinAddr: 0x11270, symSize: 0x8 }
  - { offset: 0x749F1, size: 0x8, addend: 0x0, symName: __ZN5godot7ClassDB15_register_classIN6sentry5cocoa8CocoaLogELb0EEEvbbb.cold.1, symObjAddr: 0x10BBC, symBinAddr: 0xFBFB8, symSize: 0x5C }
  - { offset: 0x74A1F, size: 0x8, addend: 0x0, symName: __ZN5godot7ClassDB15_register_classIN6sentry5cocoa8CocoaLogELb0EEEvbbb.cold.2, symObjAddr: 0x10C18, symBinAddr: 0xFC014, symSize: 0x58 }
  - { offset: 0x74A4D, size: 0x8, addend: 0x0, symName: __ZN5godot7ClassDB15_register_classIN6sentry5cocoa8CocoaLogELb0EEEvbbb.cold.3, symObjAddr: 0x10C70, symBinAddr: 0xFC06C, symSize: 0x58 }
  - { offset: 0x74A90, size: 0x8, addend: 0x0, symName: __ZN5godot7ClassDB15_register_classIN6sentry5cocoa8CocoaLogELb0EEEvbbb.cold.4, symObjAddr: 0x10CC8, symBinAddr: 0xFC0C4, symSize: 0x58 }
  - { offset: 0x74ABF, size: 0x8, addend: 0x0, symName: __ZN6sentry5cocoa8CocoaLog8set_bindEPvPKvS4_, symObjAddr: 0xD5B0, symBinAddr: 0x115B0, symSize: 0x8 }
  - { offset: 0x74AFF, size: 0x8, addend: 0x0, symName: __ZN6sentry5cocoa8CocoaLog8get_bindEPvPKvS2_, symObjAddr: 0xD5B8, symBinAddr: 0x115B8, symSize: 0x8 }
  - { offset: 0x74B3F, size: 0x8, addend: 0x0, symName: __ZN6sentry5cocoa8CocoaLog23free_property_list_bindEPvPK23GDExtensionPropertyInfoj, symObjAddr: 0xD5C0, symBinAddr: 0x115C0, symSize: 0x58 }
  - { offset: 0x74C59, size: 0x8, addend: 0x0, symName: __ZN6sentry5cocoa8CocoaLog24property_can_revert_bindEPvPKv, symObjAddr: 0xD618, symBinAddr: 0x11618, symSize: 0x8 }
  - { offset: 0x74C8B, size: 0x8, addend: 0x0, symName: __ZN6sentry5cocoa8CocoaLog24property_get_revert_bindEPvPKvS2_, symObjAddr: 0xD620, symBinAddr: 0x11620, symSize: 0x8 }
  - { offset: 0x74D10, size: 0x8, addend: 0x0, symName: __ZN6sentry5cocoa8CocoaLog22validate_property_bindEPvP23GDExtensionPropertyInfo, symObjAddr: 0xD628, symBinAddr: 0x11628, symSize: 0xC8 }
  - { offset: 0x74DF7, size: 0x8, addend: 0x0, symName: __ZN6sentry5cocoa8CocoaLog17notification_bindEPvih, symObjAddr: 0xD6F0, symBinAddr: 0x116F0, symSize: 0x4 }
  - { offset: 0x74E6E, size: 0x8, addend: 0x0, symName: __ZN6sentry5cocoa8CocoaLog14to_string_bindEPvPhS2_, symObjAddr: 0xD6F4, symBinAddr: 0x116F4, symSize: 0x7C }
  - { offset: 0x74F2F, size: 0x8, addend: 0x0, symName: __ZN5godot7ClassDB21_create_instance_funcIN6sentry5cocoa8CocoaLogEEEPvS5_h, symObjAddr: 0xD770, symBinAddr: 0x11770, symSize: 0x80 }
  - { offset: 0x74FBD, size: 0x8, addend: 0x0, symName: __ZN5godot7ClassDB21_create_instance_funcIN6sentry5cocoa8CocoaLogEEEPvS5_h.cold.1, symObjAddr: 0x10D20, symBinAddr: 0xFC11C, symSize: 0x5C }
  - { offset: 0x75015, size: 0x8, addend: 0x0, symName: __ZN6sentry5cocoa8CocoaLog4freeEPvS2_, symObjAddr: 0xD7F0, symBinAddr: 0x117F0, symSize: 0x3C }
  - { offset: 0x75070, size: 0x8, addend: 0x0, symName: __ZN5godot7ClassDB23_recreate_instance_funcIN6sentry5cocoa8CocoaLogEEEPvS5_S5_, symObjAddr: 0xD82C, symBinAddr: 0x1182C, symSize: 0x8 }
  - { offset: 0x750AB, size: 0x8, addend: 0x0, symName: __ZN6sentry5cocoa8CocoaLog28_gde_binding_create_callbackEPvS2_, symObjAddr: 0xD834, symBinAddr: 0x11834, symSize: 0x8 }
  - { offset: 0x750D6, size: 0x8, addend: 0x0, symName: __ZN6sentry5cocoa8CocoaLog26_gde_binding_free_callbackEPvS2_S2_, symObjAddr: 0xD83C, symBinAddr: 0x1183C, symSize: 0x4 }
  - { offset: 0x75109, size: 0x8, addend: 0x0, symName: __ZN6sentry5cocoa8CocoaLog31_gde_binding_reference_callbackEPvS2_h, symObjAddr: 0xD840, symBinAddr: 0x11840, symSize: 0x8 }
  - { offset: 0x7513E, size: 0x8, addend: 0x0, symName: _OUTLINED_FUNCTION_0, symObjAddr: 0x10D7C, symBinAddr: 0x11848, symSize: 0x10 }
  - { offset: 0x75156, size: 0x8, addend: 0x0, symName: _OUTLINED_FUNCTION_1, symObjAddr: 0x10D8C, symBinAddr: 0x11858, symSize: 0xC }
  - { offset: 0x7516E, size: 0x8, addend: 0x0, symName: _OUTLINED_FUNCTION_2, symObjAddr: 0x10D98, symBinAddr: 0x11864, symSize: 0xC }
  - { offset: 0x75186, size: 0x8, addend: 0x0, symName: _OUTLINED_FUNCTION_3, symObjAddr: 0x10DA4, symBinAddr: 0x11870, symSize: 0xC }
  - { offset: 0x7519E, size: 0x8, addend: 0x0, symName: _OUTLINED_FUNCTION_4, symObjAddr: 0x10DB0, symBinAddr: 0x1187C, symSize: 0x8 }
  - { offset: 0x751B6, size: 0x8, addend: 0x0, symName: _OUTLINED_FUNCTION_5, symObjAddr: 0x10DB8, symBinAddr: 0x11884, symSize: 0x8 }
  - { offset: 0x751CE, size: 0x8, addend: 0x0, symName: _OUTLINED_FUNCTION_6, symObjAddr: 0x10DC0, symBinAddr: 0x1188C, symSize: 0x8 }
  - { offset: 0x751E6, size: 0x8, addend: 0x0, symName: _OUTLINED_FUNCTION_7, symObjAddr: 0x10DC8, symBinAddr: 0x11894, symSize: 0x8 }
  - { offset: 0x83C3C, size: 0x8, addend: 0x0, symName: __ZN5godot22hash_table_size_primesE, symObjAddr: 0x64DC, symBinAddr: 0x16443C, symSize: 0x0 }
  - { offset: 0x83C57, size: 0x8, addend: 0x0, symName: __ZN5godot26hash_table_size_primes_invE, symObjAddr: 0x6550, symBinAddr: 0x1644B0, symSize: 0x0 }
  - { offset: 0x86A09, size: 0x8, addend: 0x0, symName: __ZN5godot9DirAccess22_gde_binding_callbacksE, symObjAddr: 0x6160, symBinAddr: 0x181988, symSize: 0x0 }
  - { offset: 0x86A1D, size: 0x8, addend: 0x0, symName: __ZN5godot2OS22_gde_binding_callbacksE, symObjAddr: 0x61E8, symBinAddr: 0x1819E0, symSize: 0x0 }
  - { offset: 0x86A31, size: 0x8, addend: 0x0, symName: __ZN5godot11Performance22_gde_binding_callbacksE, symObjAddr: 0x6200, symBinAddr: 0x1819F8, symSize: 0x0 }
  - { offset: 0x86A45, size: 0x8, addend: 0x0, symName: __ZN5godot15ProjectSettings22_gde_binding_callbacksE, symObjAddr: 0x6218, symBinAddr: 0x181A10, symSize: 0x0 }
  - { offset: 0x86A59, size: 0x8, addend: 0x0, symName: __ZN5godot8Resource22_gde_binding_callbacksE, symObjAddr: 0x6230, symBinAddr: 0x181A28, symSize: 0x0 }
  - { offset: 0x86A6D, size: 0x8, addend: 0x0, symName: __ZN5godot5Image22_gde_binding_callbacksE, symObjAddr: 0x6248, symBinAddr: 0x181A40, symSize: 0x0 }
  - { offset: 0x86A81, size: 0x8, addend: 0x0, symName: __ZN5godot32RDPipelineSpecializationConstant22_gde_binding_callbacksE, symObjAddr: 0x62C0, symBinAddr: 0x181AB8, symSize: 0x0 }
  - { offset: 0x86A95, size: 0x8, addend: 0x0, symName: __ZN5godot15RenderingDevice22_gde_binding_callbacksE, symObjAddr: 0x6318, symBinAddr: 0x181B10, symSize: 0x0 }
  - { offset: 0x86AA9, size: 0x8, addend: 0x0, symName: __ZN5godot15RenderingServer22_gde_binding_callbacksE, symObjAddr: 0x6370, symBinAddr: 0x181B68, symSize: 0x0 }
  - { offset: 0x86ABD, size: 0x8, addend: 0x0, symName: __ZN5godot4Time22_gde_binding_callbacksE, symObjAddr: 0x6388, symBinAddr: 0x181B80, symSize: 0x0 }
  - { offset: 0x875F4, size: 0x8, addend: 0x0, symName: __ZN6sentry8contexts19make_device_contextERKN5godot3RefINS_13RuntimeConfigEEE, symObjAddr: 0x0, symBinAddr: 0x11CC4, symSize: 0x63C }
  - { offset: 0x87B70, size: 0x8, addend: 0x0, symName: __ZN6sentry8contexts26make_device_context_updateEv, symObjAddr: 0x6BC, symBinAddr: 0x12380, symSize: 0x194 }
  - { offset: 0x87D00, size: 0x8, addend: 0x0, symName: __ZN6sentry8contexts16make_app_contextEv, symObjAddr: 0x850, symBinAddr: 0x12514, symSize: 0x338 }
  - { offset: 0x87E7D, size: 0x8, addend: 0x0, symName: __ZN6sentry8contexts16make_gpu_contextEv, symObjAddr: 0xB88, symBinAddr: 0x1284C, symSize: 0x380 }
  - { offset: 0x8801B, size: 0x8, addend: 0x0, symName: __ZN6sentry8contexts20make_culture_contextEv, symObjAddr: 0xF08, symBinAddr: 0x12BCC, symSize: 0x248 }
  - { offset: 0x8815D, size: 0x8, addend: 0x0, symName: __ZN6sentry8contexts20make_display_contextEv, symObjAddr: 0x1150, symBinAddr: 0x12E14, symSize: 0x570 }
  - { offset: 0x8849A, size: 0x8, addend: 0x0, symName: __ZN6sentry8contexts25make_godot_engine_contextEv, symObjAddr: 0x16C0, symBinAddr: 0x13384, symSize: 0x400 }
  - { offset: 0x886CB, size: 0x8, addend: 0x0, symName: __ZN6sentry8contexts24make_environment_contextEv, symObjAddr: 0x1AC0, symBinAddr: 0x13784, symSize: 0x19C }
  - { offset: 0x88784, size: 0x8, addend: 0x0, symName: __ZN6sentry8contexts24make_performance_contextEv, symObjAddr: 0x1C5C, symBinAddr: 0x13920, symSize: 0x54C }
  - { offset: 0x88A7A, size: 0x8, addend: 0x0, symName: __ZN6sentry8contexts19make_event_contextsEv, symObjAddr: 0x21A8, symBinAddr: 0x13E6C, symSize: 0xAC }
  - { offset: 0x88D22, size: 0x8, addend: 0x0, symName: ___cxx_global_var_init, symObjAddr: 0x4EB4, symBinAddr: 0x150BC, symSize: 0x4C }
  - { offset: 0x88DA7, size: 0x8, addend: 0x0, symName: ___cxx_global_var_init.1, symObjAddr: 0x4F00, symBinAddr: 0x15108, symSize: 0x4C }
  - { offset: 0x88E2C, size: 0x8, addend: 0x0, symName: ___cxx_global_var_init.2, symObjAddr: 0x4F4C, symBinAddr: 0x15154, symSize: 0x4C }
  - { offset: 0x88EB1, size: 0x8, addend: 0x0, symName: ___cxx_global_var_init.3, symObjAddr: 0x4F98, symBinAddr: 0x151A0, symSize: 0x4C }
  - { offset: 0x88F36, size: 0x8, addend: 0x0, symName: ___cxx_global_var_init.4, symObjAddr: 0x4FE4, symBinAddr: 0x151EC, symSize: 0x4C }
  - { offset: 0x88FBB, size: 0x8, addend: 0x0, symName: ___cxx_global_var_init.5, symObjAddr: 0x5030, symBinAddr: 0x15238, symSize: 0x4C }
  - { offset: 0x89040, size: 0x8, addend: 0x0, symName: ___cxx_global_var_init.6, symObjAddr: 0x507C, symBinAddr: 0x15284, symSize: 0x4C }
  - { offset: 0x890C5, size: 0x8, addend: 0x0, symName: ___cxx_global_var_init.7, symObjAddr: 0x50C8, symBinAddr: 0x152D0, symSize: 0x4C }
  - { offset: 0x8914A, size: 0x8, addend: 0x0, symName: ___cxx_global_var_init.8, symObjAddr: 0x5114, symBinAddr: 0x1531C, symSize: 0x4C }
  - { offset: 0x891CF, size: 0x8, addend: 0x0, symName: ___cxx_global_var_init.9, symObjAddr: 0x5160, symBinAddr: 0x15368, symSize: 0x4C }
  - { offset: 0x89254, size: 0x8, addend: 0x0, symName: ___cxx_global_var_init.10, symObjAddr: 0x51AC, symBinAddr: 0x153B4, symSize: 0x4C }
  - { offset: 0x892D9, size: 0x8, addend: 0x0, symName: ___cxx_global_var_init.11, symObjAddr: 0x51F8, symBinAddr: 0x15400, symSize: 0x4C }
  - { offset: 0x8935E, size: 0x8, addend: 0x0, symName: ___cxx_global_var_init.12, symObjAddr: 0x5244, symBinAddr: 0x1544C, symSize: 0x4C }
  - { offset: 0x893E3, size: 0x8, addend: 0x0, symName: ___cxx_global_var_init.13, symObjAddr: 0x5290, symBinAddr: 0x15498, symSize: 0x4C }
  - { offset: 0x89468, size: 0x8, addend: 0x0, symName: ___cxx_global_var_init.14, symObjAddr: 0x52DC, symBinAddr: 0x154E4, symSize: 0x4C }
  - { offset: 0x894ED, size: 0x8, addend: 0x0, symName: ___cxx_global_var_init.15, symObjAddr: 0x5328, symBinAddr: 0x15530, symSize: 0x4C }
  - { offset: 0x89572, size: 0x8, addend: 0x0, symName: ___cxx_global_var_init.16, symObjAddr: 0x5374, symBinAddr: 0x1557C, symSize: 0x4C }
  - { offset: 0x895F7, size: 0x8, addend: 0x0, symName: ___cxx_global_var_init.17, symObjAddr: 0x53C0, symBinAddr: 0x155C8, symSize: 0x4C }
  - { offset: 0x8967C, size: 0x8, addend: 0x0, symName: ___cxx_global_var_init.18, symObjAddr: 0x540C, symBinAddr: 0x15614, symSize: 0x4C }
  - { offset: 0x8980B, size: 0x8, addend: 0x0, symName: __ZN12_GLOBAL__N_129_screen_orientation_as_stringEi, symObjAddr: 0x63C, symBinAddr: 0x12300, symSize: 0x80 }
  - { offset: 0x8992C, size: 0x8, addend: 0x0, symName: __ZN6sentry8contexts19make_device_contextERKN5godot3RefINS_13RuntimeConfigEEE.cold.3, symObjAddr: 0x41E4, symBinAddr: 0xFC1B8, symSize: 0x20 }
  - { offset: 0x89944, size: 0x8, addend: 0x0, symName: __ZN6sentry8contexts19make_device_contextERKN5godot3RefINS_13RuntimeConfigEEE.cold.2, symObjAddr: 0x41C4, symBinAddr: 0xFC198, symSize: 0x20 }
  - { offset: 0x8995C, size: 0x8, addend: 0x0, symName: __ZN6sentry8contexts19make_device_contextERKN5godot3RefINS_13RuntimeConfigEEE.cold.1, symObjAddr: 0x41A4, symBinAddr: 0xFC178, symSize: 0x20 }
  - { offset: 0x89974, size: 0x8, addend: 0x0, symName: __ZN12_GLOBAL__N_129_screen_orientation_as_stringEi.cold.1, symObjAddr: 0x4204, symBinAddr: 0xFC1D8, symSize: 0x20 }
  - { offset: 0x8998C, size: 0x8, addend: 0x0, symName: __ZN6sentry8contexts26make_device_context_updateEv.cold.2, symObjAddr: 0x4244, symBinAddr: 0xFC218, symSize: 0x20 }
  - { offset: 0x899A4, size: 0x8, addend: 0x0, symName: __ZN6sentry8contexts26make_device_context_updateEv.cold.1, symObjAddr: 0x4224, symBinAddr: 0xFC1F8, symSize: 0x20 }
  - { offset: 0x899BC, size: 0x8, addend: 0x0, symName: __ZN6sentry8contexts16make_app_contextEv.cold.3, symObjAddr: 0x42A4, symBinAddr: 0xFC278, symSize: 0x20 }
  - { offset: 0x899D4, size: 0x8, addend: 0x0, symName: __ZN6sentry8contexts16make_app_contextEv.cold.2, symObjAddr: 0x4284, symBinAddr: 0xFC258, symSize: 0x20 }
  - { offset: 0x899EC, size: 0x8, addend: 0x0, symName: __ZN6sentry8contexts16make_app_contextEv.cold.1, symObjAddr: 0x4264, symBinAddr: 0xFC238, symSize: 0x20 }
  - { offset: 0x89A04, size: 0x8, addend: 0x0, symName: __ZN6sentry8contexts16make_gpu_contextEv.cold.2, symObjAddr: 0x4304, symBinAddr: 0xFC2D8, symSize: 0x40 }
  - { offset: 0x89A1C, size: 0x8, addend: 0x0, symName: __ZN6sentry8contexts16make_gpu_contextEv.cold.1, symObjAddr: 0x42C4, symBinAddr: 0xFC298, symSize: 0x40 }
  - { offset: 0x89A34, size: 0x8, addend: 0x0, symName: __ZN6sentry8contexts20make_culture_contextEv.cold.1, symObjAddr: 0x4344, symBinAddr: 0xFC318, symSize: 0x20 }
  - { offset: 0x89A71, size: 0x8, addend: 0x0, symName: __ZN6sentry8contexts20make_display_contextEv.cold.1, symObjAddr: 0x4364, symBinAddr: 0xFC338, symSize: 0x20 }
  - { offset: 0x89A89, size: 0x8, addend: 0x0, symName: __ZN6sentry8contexts25make_godot_engine_contextEv.cold.2, symObjAddr: 0x43A4, symBinAddr: 0xFC378, symSize: 0x20 }
  - { offset: 0x89AA1, size: 0x8, addend: 0x0, symName: __ZN6sentry8contexts25make_godot_engine_contextEv.cold.1, symObjAddr: 0x4384, symBinAddr: 0xFC358, symSize: 0x20 }
  - { offset: 0x89AB9, size: 0x8, addend: 0x0, symName: __ZN6sentry8contexts24make_environment_contextEv.cold.1, symObjAddr: 0x43C4, symBinAddr: 0xFC398, symSize: 0x20 }
  - { offset: 0x89AD1, size: 0x8, addend: 0x0, symName: __ZN6sentry8contexts24make_performance_contextEv.cold.4, symObjAddr: 0x4444, symBinAddr: 0xFC418, symSize: 0x20 }
  - { offset: 0x89AE9, size: 0x8, addend: 0x0, symName: __ZN6sentry8contexts24make_performance_contextEv.cold.3, symObjAddr: 0x4424, symBinAddr: 0xFC3F8, symSize: 0x20 }
  - { offset: 0x89B01, size: 0x8, addend: 0x0, symName: __ZN6sentry8contexts24make_performance_contextEv.cold.2, symObjAddr: 0x4404, symBinAddr: 0xFC3D8, symSize: 0x20 }
  - { offset: 0x89B19, size: 0x8, addend: 0x0, symName: __ZN6sentry8contexts24make_performance_contextEv.cold.1, symObjAddr: 0x43E4, symBinAddr: 0xFC3B8, symSize: 0x20 }
  - { offset: 0x89B6A, size: 0x8, addend: 0x0, symName: __ZN5godot7HashMapINS_6StringENS_10DictionaryENS_20HashMapHasherDefaultENS_24HashMapComparatorDefaultIS1_EENS_21DefaultTypedAllocatorINS_14HashMapElementIS1_S2_EEEEEixERKS1_, symObjAddr: 0x2254, symBinAddr: 0x13F18, symSize: 0x2B0 }
  - { offset: 0x8A388, size: 0x8, addend: 0x0, symName: __ZNK5godot7HashMapINS_6StringENS_10DictionaryENS_20HashMapHasherDefaultENS_24HashMapComparatorDefaultIS1_EENS_21DefaultTypedAllocatorINS_14HashMapElementIS1_S2_EEEEE11_lookup_posERKS1_Rj, symObjAddr: 0x3EF0, symBinAddr: 0x14DB0, symSize: 0x128 }
  - { offset: 0x8A58A, size: 0x8, addend: 0x0, symName: __ZN5godot7HashMapINS_6StringENS_10DictionaryENS_20HashMapHasherDefaultENS_24HashMapComparatorDefaultIS1_EENS_21DefaultTypedAllocatorINS_14HashMapElementIS1_S2_EEEEEixERKS1_.cold.1, symObjAddr: 0x4464, symBinAddr: 0xFC438, symSize: 0x74 }
  - { offset: 0x8A5D3, size: 0x8, addend: 0x0, symName: __ZN5godot7HashMapINS_6StringENS_10DictionaryENS_20HashMapHasherDefaultENS_24HashMapComparatorDefaultIS1_EENS_21DefaultTypedAllocatorINS_14HashMapElementIS1_S2_EEEEE18_resize_and_rehashEj, symObjAddr: 0x4018, symBinAddr: 0x14ED8, symSize: 0x18C }
  - { offset: 0x8A850, size: 0x8, addend: 0x0, symName: __ZN5godot7HashMapINS_6StringENS_10DictionaryENS_20HashMapHasherDefaultENS_24HashMapComparatorDefaultIS1_EENS_21DefaultTypedAllocatorINS_14HashMapElementIS1_S2_EEEEEixERKS1_.cold.2, symObjAddr: 0x44D8, symBinAddr: 0xFC4AC, symSize: 0x40 }
  - { offset: 0x8A886, size: 0x8, addend: 0x0, symName: __ZN5godot8internal23EngineClassRegistrationINS_6ObjectEE8callbackEv.cold.1, symObjAddr: 0x4518, symBinAddr: 0xFC4EC, symSize: 0x5C }
  - { offset: 0x8AA52, size: 0x8, addend: 0x0, symName: __ZN5godot6ObjectD1Ev.cold.1, symObjAddr: 0x4574, symBinAddr: 0xFC548, symSize: 0x1C }
  - { offset: 0x8AA6D, size: 0x8, addend: 0x0, symName: __ZN5godot6ObjectD1Ev.cold.1, symObjAddr: 0x4574, symBinAddr: 0xFC548, symSize: 0x1C }
  - { offset: 0x8AA81, size: 0x8, addend: 0x0, symName: __ZN5godot6ObjectD1Ev.cold.1, symObjAddr: 0x4574, symBinAddr: 0xFC548, symSize: 0x1C }
  - { offset: 0x8AA95, size: 0x8, addend: 0x0, symName: __ZN5godot6ObjectD1Ev.cold.1, symObjAddr: 0x4574, symBinAddr: 0xFC548, symSize: 0x1C }
  - { offset: 0x8AAAA, size: 0x8, addend: 0x0, symName: __ZN5godot6ObjectD1Ev.cold.1, symObjAddr: 0x4574, symBinAddr: 0xFC548, symSize: 0x1C }
  - { offset: 0x8AADA, size: 0x8, addend: 0x0, symName: __ZN5godot6ObjectD0Ev.cold.1, symObjAddr: 0x4590, symBinAddr: 0xFC564, symSize: 0x1C }
  - { offset: 0x8AAF5, size: 0x8, addend: 0x0, symName: __ZN5godot6ObjectD0Ev.cold.1, symObjAddr: 0x4590, symBinAddr: 0xFC564, symSize: 0x1C }
  - { offset: 0x8AB09, size: 0x8, addend: 0x0, symName: __ZN5godot6ObjectD0Ev.cold.1, symObjAddr: 0x4590, symBinAddr: 0xFC564, symSize: 0x1C }
  - { offset: 0x8AB1D, size: 0x8, addend: 0x0, symName: __ZN5godot6ObjectD0Ev.cold.1, symObjAddr: 0x4590, symBinAddr: 0xFC564, symSize: 0x1C }
  - { offset: 0x8AB31, size: 0x8, addend: 0x0, symName: __ZN5godot6ObjectD0Ev.cold.1, symObjAddr: 0x4590, symBinAddr: 0xFC564, symSize: 0x1C }
  - { offset: 0x8AB46, size: 0x8, addend: 0x0, symName: __ZN5godot6ObjectD0Ev.cold.1, symObjAddr: 0x4590, symBinAddr: 0xFC564, symSize: 0x1C }
  - { offset: 0x8AB5D, size: 0x8, addend: 0x0, symName: __ZN5godot7WrappedD1Ev.cold.1, symObjAddr: 0x45AC, symBinAddr: 0xFC580, symSize: 0x1C }
  - { offset: 0x8AB78, size: 0x8, addend: 0x0, symName: __ZN5godot7WrappedD1Ev.cold.1, symObjAddr: 0x45AC, symBinAddr: 0xFC580, symSize: 0x1C }
  - { offset: 0x8AB8C, size: 0x8, addend: 0x0, symName: __ZN5godot7WrappedD1Ev.cold.1, symObjAddr: 0x45AC, symBinAddr: 0xFC580, symSize: 0x1C }
  - { offset: 0x8ABA1, size: 0x8, addend: 0x0, symName: __ZN5godot7WrappedD1Ev.cold.1, symObjAddr: 0x45AC, symBinAddr: 0xFC580, symSize: 0x1C }
  - { offset: 0x8ABD0, size: 0x8, addend: 0x0, symName: __ZN5godot7WrappedD0Ev.cold.1, symObjAddr: 0x45C8, symBinAddr: 0xFC59C, symSize: 0x1C }
  - { offset: 0x8ABEB, size: 0x8, addend: 0x0, symName: __ZN5godot7WrappedD0Ev.cold.1, symObjAddr: 0x45C8, symBinAddr: 0xFC59C, symSize: 0x1C }
  - { offset: 0x8ABFF, size: 0x8, addend: 0x0, symName: __ZN5godot7WrappedD0Ev.cold.1, symObjAddr: 0x45C8, symBinAddr: 0xFC59C, symSize: 0x1C }
  - { offset: 0x8AC13, size: 0x8, addend: 0x0, symName: __ZN5godot7WrappedD0Ev.cold.1, symObjAddr: 0x45C8, symBinAddr: 0xFC59C, symSize: 0x1C }
  - { offset: 0x8AC28, size: 0x8, addend: 0x0, symName: __ZN5godot7WrappedD0Ev.cold.1, symObjAddr: 0x45C8, symBinAddr: 0xFC59C, symSize: 0x1C }
  - { offset: 0x8ACAE, size: 0x8, addend: 0x0, symName: __ZN5godot4ListINS_12PropertyInfoENS_16DefaultAllocatorEE5_Data5eraseEPNS3_7ElementE.cold.2, symObjAddr: 0x4604, symBinAddr: 0xFC5D8, symSize: 0x20 }
  - { offset: 0x8ACC6, size: 0x8, addend: 0x0, symName: __ZN5godot4ListINS_12PropertyInfoENS_16DefaultAllocatorEE5_Data5eraseEPNS3_7ElementE.cold.1, symObjAddr: 0x45E4, symBinAddr: 0xFC5B8, symSize: 0x20 }
  - { offset: 0x8ACE5, size: 0x8, addend: 0x0, symName: __ZN5godot8internal23EngineClassRegistrationINS_16ClassDBSingletonEE8callbackEv.cold.1, symObjAddr: 0x4624, symBinAddr: 0xFC5F8, symSize: 0x5C }
  - { offset: 0x8AD1A, size: 0x8, addend: 0x0, symName: __ZN5godot8internal23EngineClassRegistrationINS_10RefCountedEE8callbackEv.cold.1, symObjAddr: 0x4680, symBinAddr: 0xFC654, symSize: 0x5C }
  - { offset: 0x8AD89, size: 0x8, addend: 0x0, symName: __ZN5godot10RefCountedD1Ev.cold.1, symObjAddr: 0x46DC, symBinAddr: 0xFC6B0, symSize: 0x1C }
  - { offset: 0x8ADA4, size: 0x8, addend: 0x0, symName: __ZN5godot10RefCountedD1Ev.cold.1, symObjAddr: 0x46DC, symBinAddr: 0xFC6B0, symSize: 0x1C }
  - { offset: 0x8ADB8, size: 0x8, addend: 0x0, symName: __ZN5godot10RefCountedD1Ev.cold.1, symObjAddr: 0x46DC, symBinAddr: 0xFC6B0, symSize: 0x1C }
  - { offset: 0x8ADCC, size: 0x8, addend: 0x0, symName: __ZN5godot10RefCountedD1Ev.cold.1, symObjAddr: 0x46DC, symBinAddr: 0xFC6B0, symSize: 0x1C }
  - { offset: 0x8ADE0, size: 0x8, addend: 0x0, symName: __ZN5godot10RefCountedD1Ev.cold.1, symObjAddr: 0x46DC, symBinAddr: 0xFC6B0, symSize: 0x1C }
  - { offset: 0x8ADF5, size: 0x8, addend: 0x0, symName: __ZN5godot10RefCountedD1Ev.cold.1, symObjAddr: 0x46DC, symBinAddr: 0xFC6B0, symSize: 0x1C }
  - { offset: 0x8AE28, size: 0x8, addend: 0x0, symName: __ZN5godot10RefCountedD0Ev.cold.1, symObjAddr: 0x46F8, symBinAddr: 0xFC6CC, symSize: 0x1C }
  - { offset: 0x8AE43, size: 0x8, addend: 0x0, symName: __ZN5godot10RefCountedD0Ev.cold.1, symObjAddr: 0x46F8, symBinAddr: 0xFC6CC, symSize: 0x1C }
  - { offset: 0x8AE57, size: 0x8, addend: 0x0, symName: __ZN5godot10RefCountedD0Ev.cold.1, symObjAddr: 0x46F8, symBinAddr: 0xFC6CC, symSize: 0x1C }
  - { offset: 0x8AE6B, size: 0x8, addend: 0x0, symName: __ZN5godot10RefCountedD0Ev.cold.1, symObjAddr: 0x46F8, symBinAddr: 0xFC6CC, symSize: 0x1C }
  - { offset: 0x8AE7F, size: 0x8, addend: 0x0, symName: __ZN5godot10RefCountedD0Ev.cold.1, symObjAddr: 0x46F8, symBinAddr: 0xFC6CC, symSize: 0x1C }
  - { offset: 0x8AE93, size: 0x8, addend: 0x0, symName: __ZN5godot10RefCountedD0Ev.cold.1, symObjAddr: 0x46F8, symBinAddr: 0xFC6CC, symSize: 0x1C }
  - { offset: 0x8AEA8, size: 0x8, addend: 0x0, symName: __ZN5godot10RefCountedD0Ev.cold.1, symObjAddr: 0x46F8, symBinAddr: 0xFC6CC, symSize: 0x1C }
  - { offset: 0x8AEC7, size: 0x8, addend: 0x0, symName: __ZN5godot8internal23EngineClassRegistrationINS_10ConfigFileEE8callbackEv.cold.1, symObjAddr: 0x4714, symBinAddr: 0xFC6E8, symSize: 0x5C }
  - { offset: 0x8AF11, size: 0x8, addend: 0x0, symName: __ZN5godot10ConfigFileD1Ev.cold.1, symObjAddr: 0x4770, symBinAddr: 0xFC744, symSize: 0x1C }
  - { offset: 0x8AF2C, size: 0x8, addend: 0x0, symName: __ZN5godot10ConfigFileD1Ev.cold.1, symObjAddr: 0x4770, symBinAddr: 0xFC744, symSize: 0x1C }
  - { offset: 0x8AF40, size: 0x8, addend: 0x0, symName: __ZN5godot10ConfigFileD1Ev.cold.1, symObjAddr: 0x4770, symBinAddr: 0xFC744, symSize: 0x1C }
  - { offset: 0x8AF54, size: 0x8, addend: 0x0, symName: __ZN5godot10ConfigFileD1Ev.cold.1, symObjAddr: 0x4770, symBinAddr: 0xFC744, symSize: 0x1C }
  - { offset: 0x8AF68, size: 0x8, addend: 0x0, symName: __ZN5godot10ConfigFileD1Ev.cold.1, symObjAddr: 0x4770, symBinAddr: 0xFC744, symSize: 0x1C }
  - { offset: 0x8AF7C, size: 0x8, addend: 0x0, symName: __ZN5godot10ConfigFileD1Ev.cold.1, symObjAddr: 0x4770, symBinAddr: 0xFC744, symSize: 0x1C }
  - { offset: 0x8AF91, size: 0x8, addend: 0x0, symName: __ZN5godot10ConfigFileD1Ev.cold.1, symObjAddr: 0x4770, symBinAddr: 0xFC744, symSize: 0x1C }
  - { offset: 0x8AFC5, size: 0x8, addend: 0x0, symName: __ZN5godot10ConfigFileD0Ev.cold.1, symObjAddr: 0x478C, symBinAddr: 0xFC760, symSize: 0x1C }
  - { offset: 0x8AFE0, size: 0x8, addend: 0x0, symName: __ZN5godot10ConfigFileD0Ev.cold.1, symObjAddr: 0x478C, symBinAddr: 0xFC760, symSize: 0x1C }
  - { offset: 0x8AFF4, size: 0x8, addend: 0x0, symName: __ZN5godot10ConfigFileD0Ev.cold.1, symObjAddr: 0x478C, symBinAddr: 0xFC760, symSize: 0x1C }
  - { offset: 0x8B008, size: 0x8, addend: 0x0, symName: __ZN5godot10ConfigFileD0Ev.cold.1, symObjAddr: 0x478C, symBinAddr: 0xFC760, symSize: 0x1C }
  - { offset: 0x8B01C, size: 0x8, addend: 0x0, symName: __ZN5godot10ConfigFileD0Ev.cold.1, symObjAddr: 0x478C, symBinAddr: 0xFC760, symSize: 0x1C }
  - { offset: 0x8B030, size: 0x8, addend: 0x0, symName: __ZN5godot10ConfigFileD0Ev.cold.1, symObjAddr: 0x478C, symBinAddr: 0xFC760, symSize: 0x1C }
  - { offset: 0x8B044, size: 0x8, addend: 0x0, symName: __ZN5godot10ConfigFileD0Ev.cold.1, symObjAddr: 0x478C, symBinAddr: 0xFC760, symSize: 0x1C }
  - { offset: 0x8B059, size: 0x8, addend: 0x0, symName: __ZN5godot10ConfigFileD0Ev.cold.1, symObjAddr: 0x478C, symBinAddr: 0xFC760, symSize: 0x1C }
  - { offset: 0x8B079, size: 0x8, addend: 0x0, symName: __ZN5godot8internal23EngineClassRegistrationINS_6LoggerEE8callbackEv.cold.1, symObjAddr: 0x47A8, symBinAddr: 0xFC77C, symSize: 0x5C }
  - { offset: 0x8B0AE, size: 0x8, addend: 0x0, symName: __ZN5godot8internal23EngineClassRegistrationINS_15ScriptBacktraceEE8callbackEv.cold.1, symObjAddr: 0x4804, symBinAddr: 0xFC7D8, symSize: 0x5C }
  - { offset: 0x8B0F8, size: 0x8, addend: 0x0, symName: __ZN5godot15ScriptBacktraceD1Ev.cold.1, symObjAddr: 0x4860, symBinAddr: 0xFC834, symSize: 0x1C }
  - { offset: 0x8B113, size: 0x8, addend: 0x0, symName: __ZN5godot15ScriptBacktraceD1Ev.cold.1, symObjAddr: 0x4860, symBinAddr: 0xFC834, symSize: 0x1C }
  - { offset: 0x8B127, size: 0x8, addend: 0x0, symName: __ZN5godot15ScriptBacktraceD1Ev.cold.1, symObjAddr: 0x4860, symBinAddr: 0xFC834, symSize: 0x1C }
  - { offset: 0x8B13B, size: 0x8, addend: 0x0, symName: __ZN5godot15ScriptBacktraceD1Ev.cold.1, symObjAddr: 0x4860, symBinAddr: 0xFC834, symSize: 0x1C }
  - { offset: 0x8B14F, size: 0x8, addend: 0x0, symName: __ZN5godot15ScriptBacktraceD1Ev.cold.1, symObjAddr: 0x4860, symBinAddr: 0xFC834, symSize: 0x1C }
  - { offset: 0x8B163, size: 0x8, addend: 0x0, symName: __ZN5godot15ScriptBacktraceD1Ev.cold.1, symObjAddr: 0x4860, symBinAddr: 0xFC834, symSize: 0x1C }
  - { offset: 0x8B178, size: 0x8, addend: 0x0, symName: __ZN5godot15ScriptBacktraceD1Ev.cold.1, symObjAddr: 0x4860, symBinAddr: 0xFC834, symSize: 0x1C }
  - { offset: 0x8B1AC, size: 0x8, addend: 0x0, symName: __ZN5godot15ScriptBacktraceD0Ev.cold.1, symObjAddr: 0x487C, symBinAddr: 0xFC850, symSize: 0x1C }
  - { offset: 0x8B1C7, size: 0x8, addend: 0x0, symName: __ZN5godot15ScriptBacktraceD0Ev.cold.1, symObjAddr: 0x487C, symBinAddr: 0xFC850, symSize: 0x1C }
  - { offset: 0x8B1DB, size: 0x8, addend: 0x0, symName: __ZN5godot15ScriptBacktraceD0Ev.cold.1, symObjAddr: 0x487C, symBinAddr: 0xFC850, symSize: 0x1C }
  - { offset: 0x8B1EF, size: 0x8, addend: 0x0, symName: __ZN5godot15ScriptBacktraceD0Ev.cold.1, symObjAddr: 0x487C, symBinAddr: 0xFC850, symSize: 0x1C }
  - { offset: 0x8B203, size: 0x8, addend: 0x0, symName: __ZN5godot15ScriptBacktraceD0Ev.cold.1, symObjAddr: 0x487C, symBinAddr: 0xFC850, symSize: 0x1C }
  - { offset: 0x8B217, size: 0x8, addend: 0x0, symName: __ZN5godot15ScriptBacktraceD0Ev.cold.1, symObjAddr: 0x487C, symBinAddr: 0xFC850, symSize: 0x1C }
  - { offset: 0x8B22B, size: 0x8, addend: 0x0, symName: __ZN5godot15ScriptBacktraceD0Ev.cold.1, symObjAddr: 0x487C, symBinAddr: 0xFC850, symSize: 0x1C }
  - { offset: 0x8B240, size: 0x8, addend: 0x0, symName: __ZN5godot15ScriptBacktraceD0Ev.cold.1, symObjAddr: 0x487C, symBinAddr: 0xFC850, symSize: 0x1C }
  - { offset: 0x8B260, size: 0x8, addend: 0x0, symName: __ZN5godot8internal23EngineClassRegistrationINS_5MutexEE8callbackEv.cold.1, symObjAddr: 0x4898, symBinAddr: 0xFC86C, symSize: 0x5C }
  - { offset: 0x8B2AA, size: 0x8, addend: 0x0, symName: __ZN5godot5MutexD1Ev.cold.1, symObjAddr: 0x48F4, symBinAddr: 0xFC8C8, symSize: 0x1C }
  - { offset: 0x8B2C5, size: 0x8, addend: 0x0, symName: __ZN5godot5MutexD1Ev.cold.1, symObjAddr: 0x48F4, symBinAddr: 0xFC8C8, symSize: 0x1C }
  - { offset: 0x8B2D9, size: 0x8, addend: 0x0, symName: __ZN5godot5MutexD1Ev.cold.1, symObjAddr: 0x48F4, symBinAddr: 0xFC8C8, symSize: 0x1C }
  - { offset: 0x8B2ED, size: 0x8, addend: 0x0, symName: __ZN5godot5MutexD1Ev.cold.1, symObjAddr: 0x48F4, symBinAddr: 0xFC8C8, symSize: 0x1C }
  - { offset: 0x8B301, size: 0x8, addend: 0x0, symName: __ZN5godot5MutexD1Ev.cold.1, symObjAddr: 0x48F4, symBinAddr: 0xFC8C8, symSize: 0x1C }
  - { offset: 0x8B315, size: 0x8, addend: 0x0, symName: __ZN5godot5MutexD1Ev.cold.1, symObjAddr: 0x48F4, symBinAddr: 0xFC8C8, symSize: 0x1C }
  - { offset: 0x8B32A, size: 0x8, addend: 0x0, symName: __ZN5godot5MutexD1Ev.cold.1, symObjAddr: 0x48F4, symBinAddr: 0xFC8C8, symSize: 0x1C }
  - { offset: 0x8B35E, size: 0x8, addend: 0x0, symName: __ZN5godot5MutexD0Ev.cold.1, symObjAddr: 0x4910, symBinAddr: 0xFC8E4, symSize: 0x1C }
  - { offset: 0x8B379, size: 0x8, addend: 0x0, symName: __ZN5godot5MutexD0Ev.cold.1, symObjAddr: 0x4910, symBinAddr: 0xFC8E4, symSize: 0x1C }
  - { offset: 0x8B38D, size: 0x8, addend: 0x0, symName: __ZN5godot5MutexD0Ev.cold.1, symObjAddr: 0x4910, symBinAddr: 0xFC8E4, symSize: 0x1C }
  - { offset: 0x8B3A1, size: 0x8, addend: 0x0, symName: __ZN5godot5MutexD0Ev.cold.1, symObjAddr: 0x4910, symBinAddr: 0xFC8E4, symSize: 0x1C }
  - { offset: 0x8B3B5, size: 0x8, addend: 0x0, symName: __ZN5godot5MutexD0Ev.cold.1, symObjAddr: 0x4910, symBinAddr: 0xFC8E4, symSize: 0x1C }
  - { offset: 0x8B3C9, size: 0x8, addend: 0x0, symName: __ZN5godot5MutexD0Ev.cold.1, symObjAddr: 0x4910, symBinAddr: 0xFC8E4, symSize: 0x1C }
  - { offset: 0x8B3DD, size: 0x8, addend: 0x0, symName: __ZN5godot5MutexD0Ev.cold.1, symObjAddr: 0x4910, symBinAddr: 0xFC8E4, symSize: 0x1C }
  - { offset: 0x8B3F2, size: 0x8, addend: 0x0, symName: __ZN5godot5MutexD0Ev.cold.1, symObjAddr: 0x4910, symBinAddr: 0xFC8E4, symSize: 0x1C }
  - { offset: 0x8B412, size: 0x8, addend: 0x0, symName: __ZN5godot8internal23EngineClassRegistrationINS_9DirAccessEE8callbackEv, symObjAddr: 0x3170, symBinAddr: 0x141C8, symSize: 0x48 }
  - { offset: 0x8B45C, size: 0x8, addend: 0x0, symName: __ZN5godot8internal23EngineClassRegistrationINS_9DirAccessEE8callbackEv.cold.1, symObjAddr: 0x492C, symBinAddr: 0xFC900, symSize: 0x5C }
  - { offset: 0x8B4D4, size: 0x8, addend: 0x0, symName: __ZN5godot9DirAccess28_gde_binding_create_callbackEPvS1_, symObjAddr: 0x31B8, symBinAddr: 0x14210, symSize: 0x44 }
  - { offset: 0x8B593, size: 0x8, addend: 0x0, symName: __ZN5godot9DirAccess26_gde_binding_free_callbackEPvS1_S1_, symObjAddr: 0x31FC, symBinAddr: 0x14254, symSize: 0x34 }
  - { offset: 0x8B5E8, size: 0x8, addend: 0x0, symName: __ZN5godot9DirAccess31_gde_binding_reference_callbackEPvS1_h, symObjAddr: 0x3230, symBinAddr: 0x14288, symSize: 0x8 }
  - { offset: 0x8B644, size: 0x8, addend: 0x0, symName: __ZN5godot9DirAccessD1Ev, symObjAddr: 0x3238, symBinAddr: 0x14290, symSize: 0x8C }
  - { offset: 0x8B7E2, size: 0x8, addend: 0x0, symName: __ZN5godot9DirAccessD1Ev.cold.1, symObjAddr: 0x4988, symBinAddr: 0xFC95C, symSize: 0x1C }
  - { offset: 0x8B7FD, size: 0x8, addend: 0x0, symName: __ZN5godot9DirAccessD1Ev.cold.1, symObjAddr: 0x4988, symBinAddr: 0xFC95C, symSize: 0x1C }
  - { offset: 0x8B811, size: 0x8, addend: 0x0, symName: __ZN5godot9DirAccessD1Ev.cold.1, symObjAddr: 0x4988, symBinAddr: 0xFC95C, symSize: 0x1C }
  - { offset: 0x8B825, size: 0x8, addend: 0x0, symName: __ZN5godot9DirAccessD1Ev.cold.1, symObjAddr: 0x4988, symBinAddr: 0xFC95C, symSize: 0x1C }
  - { offset: 0x8B839, size: 0x8, addend: 0x0, symName: __ZN5godot9DirAccessD1Ev.cold.1, symObjAddr: 0x4988, symBinAddr: 0xFC95C, symSize: 0x1C }
  - { offset: 0x8B84D, size: 0x8, addend: 0x0, symName: __ZN5godot9DirAccessD1Ev.cold.1, symObjAddr: 0x4988, symBinAddr: 0xFC95C, symSize: 0x1C }
  - { offset: 0x8B862, size: 0x8, addend: 0x0, symName: __ZN5godot9DirAccessD1Ev.cold.1, symObjAddr: 0x4988, symBinAddr: 0xFC95C, symSize: 0x1C }
  - { offset: 0x8B896, size: 0x8, addend: 0x0, symName: __ZN5godot9DirAccessD0Ev, symObjAddr: 0x32C4, symBinAddr: 0x1431C, symSize: 0x74 }
  - { offset: 0x8B9E1, size: 0x8, addend: 0x0, symName: __ZN5godot9DirAccessD0Ev.cold.1, symObjAddr: 0x49A4, symBinAddr: 0xFC978, symSize: 0x1C }
  - { offset: 0x8B9FC, size: 0x8, addend: 0x0, symName: __ZN5godot9DirAccessD0Ev.cold.1, symObjAddr: 0x49A4, symBinAddr: 0xFC978, symSize: 0x1C }
  - { offset: 0x8BA10, size: 0x8, addend: 0x0, symName: __ZN5godot9DirAccessD0Ev.cold.1, symObjAddr: 0x49A4, symBinAddr: 0xFC978, symSize: 0x1C }
  - { offset: 0x8BA24, size: 0x8, addend: 0x0, symName: __ZN5godot9DirAccessD0Ev.cold.1, symObjAddr: 0x49A4, symBinAddr: 0xFC978, symSize: 0x1C }
  - { offset: 0x8BA38, size: 0x8, addend: 0x0, symName: __ZN5godot9DirAccessD0Ev.cold.1, symObjAddr: 0x49A4, symBinAddr: 0xFC978, symSize: 0x1C }
  - { offset: 0x8BA4C, size: 0x8, addend: 0x0, symName: __ZN5godot9DirAccessD0Ev.cold.1, symObjAddr: 0x49A4, symBinAddr: 0xFC978, symSize: 0x1C }
  - { offset: 0x8BA60, size: 0x8, addend: 0x0, symName: __ZN5godot9DirAccessD0Ev.cold.1, symObjAddr: 0x49A4, symBinAddr: 0xFC978, symSize: 0x1C }
  - { offset: 0x8BA75, size: 0x8, addend: 0x0, symName: __ZN5godot9DirAccessD0Ev.cold.1, symObjAddr: 0x49A4, symBinAddr: 0xFC978, symSize: 0x1C }
  - { offset: 0x8BA95, size: 0x8, addend: 0x0, symName: __ZN5godot8internal23EngineClassRegistrationINS_13DisplayServerEE8callbackEv.cold.1, symObjAddr: 0x49C0, symBinAddr: 0xFC994, symSize: 0x5C }
  - { offset: 0x8BACA, size: 0x8, addend: 0x0, symName: __ZN5godot8internal23EngineClassRegistrationINS_6EngineEE8callbackEv.cold.1, symObjAddr: 0x4A1C, symBinAddr: 0xFC9F0, symSize: 0x5C }
  - { offset: 0x8BAFF, size: 0x8, addend: 0x0, symName: __ZN5godot8internal23EngineClassRegistrationINS_2OSEE8callbackEv, symObjAddr: 0x34D0, symBinAddr: 0x14390, symSize: 0x48 }
  - { offset: 0x8BB49, size: 0x8, addend: 0x0, symName: __ZN5godot8internal23EngineClassRegistrationINS_2OSEE8callbackEv.cold.1, symObjAddr: 0x4A78, symBinAddr: 0xFCA4C, symSize: 0x5C }
  - { offset: 0x8BBC1, size: 0x8, addend: 0x0, symName: __ZN5godot2OS28_gde_binding_create_callbackEPvS1_, symObjAddr: 0x3518, symBinAddr: 0x143D8, symSize: 0x48 }
  - { offset: 0x8BC5D, size: 0x8, addend: 0x0, symName: __ZN5godot2OS26_gde_binding_free_callbackEPvS1_S1_, symObjAddr: 0x3560, symBinAddr: 0x14420, symSize: 0x34 }
  - { offset: 0x8BCB2, size: 0x8, addend: 0x0, symName: __ZN5godot2OS31_gde_binding_reference_callbackEPvS1_h, symObjAddr: 0x3594, symBinAddr: 0x14454, symSize: 0x8 }
  - { offset: 0x8BCF9, size: 0x8, addend: 0x0, symName: __ZN5godot8internal23EngineClassRegistrationINS_11PerformanceEE8callbackEv, symObjAddr: 0x359C, symBinAddr: 0x1445C, symSize: 0x48 }
  - { offset: 0x8BD43, size: 0x8, addend: 0x0, symName: __ZN5godot8internal23EngineClassRegistrationINS_11PerformanceEE8callbackEv.cold.1, symObjAddr: 0x4AD4, symBinAddr: 0xFCAA8, symSize: 0x5C }
  - { offset: 0x8BDBB, size: 0x8, addend: 0x0, symName: __ZN5godot11Performance28_gde_binding_create_callbackEPvS1_, symObjAddr: 0x35E4, symBinAddr: 0x144A4, symSize: 0x48 }
  - { offset: 0x8BE57, size: 0x8, addend: 0x0, symName: __ZN5godot11Performance26_gde_binding_free_callbackEPvS1_S1_, symObjAddr: 0x362C, symBinAddr: 0x144EC, symSize: 0x34 }
  - { offset: 0x8BEAC, size: 0x8, addend: 0x0, symName: __ZN5godot11Performance31_gde_binding_reference_callbackEPvS1_h, symObjAddr: 0x3660, symBinAddr: 0x14520, symSize: 0x8 }
  - { offset: 0x8BEF3, size: 0x8, addend: 0x0, symName: __ZN5godot8internal23EngineClassRegistrationINS_15ProjectSettingsEE8callbackEv, symObjAddr: 0x3668, symBinAddr: 0x14528, symSize: 0x48 }
  - { offset: 0x8BF3D, size: 0x8, addend: 0x0, symName: __ZN5godot8internal23EngineClassRegistrationINS_15ProjectSettingsEE8callbackEv.cold.1, symObjAddr: 0x4B30, symBinAddr: 0xFCB04, symSize: 0x5C }
  - { offset: 0x8BFB5, size: 0x8, addend: 0x0, symName: __ZN5godot15ProjectSettings28_gde_binding_create_callbackEPvS1_, symObjAddr: 0x36B0, symBinAddr: 0x14570, symSize: 0x48 }
  - { offset: 0x8C051, size: 0x8, addend: 0x0, symName: __ZN5godot15ProjectSettings26_gde_binding_free_callbackEPvS1_S1_, symObjAddr: 0x36F8, symBinAddr: 0x145B8, symSize: 0x34 }
  - { offset: 0x8C0A6, size: 0x8, addend: 0x0, symName: __ZN5godot15ProjectSettings31_gde_binding_reference_callbackEPvS1_h, symObjAddr: 0x372C, symBinAddr: 0x145EC, symSize: 0x8 }
  - { offset: 0x8C0ED, size: 0x8, addend: 0x0, symName: __ZN5godot8internal23EngineClassRegistrationINS_8ResourceEE8callbackEv, symObjAddr: 0x3734, symBinAddr: 0x145F4, symSize: 0x48 }
  - { offset: 0x8C137, size: 0x8, addend: 0x0, symName: __ZN5godot8internal23EngineClassRegistrationINS_8ResourceEE8callbackEv.cold.1, symObjAddr: 0x4B8C, symBinAddr: 0xFCB60, symSize: 0x5C }
  - { offset: 0x8C1AF, size: 0x8, addend: 0x0, symName: __ZN5godot8Resource28_gde_binding_create_callbackEPvS1_, symObjAddr: 0x377C, symBinAddr: 0x1463C, symSize: 0x48 }
  - { offset: 0x8C26E, size: 0x8, addend: 0x0, symName: __ZN5godot8Resource26_gde_binding_free_callbackEPvS1_S1_, symObjAddr: 0x37C4, symBinAddr: 0x14684, symSize: 0x34 }
  - { offset: 0x8C2C3, size: 0x8, addend: 0x0, symName: __ZN5godot8Resource31_gde_binding_reference_callbackEPvS1_h, symObjAddr: 0x37F8, symBinAddr: 0x146B8, symSize: 0x8 }
  - { offset: 0x8C30A, size: 0x8, addend: 0x0, symName: __ZN5godot8internal23EngineClassRegistrationINS_5ImageEE8callbackEv, symObjAddr: 0x3800, symBinAddr: 0x146C0, symSize: 0x48 }
  - { offset: 0x8C354, size: 0x8, addend: 0x0, symName: __ZN5godot8internal23EngineClassRegistrationINS_5ImageEE8callbackEv.cold.1, symObjAddr: 0x4BE8, symBinAddr: 0xFCBBC, symSize: 0x5C }
  - { offset: 0x8C3CC, size: 0x8, addend: 0x0, symName: __ZN5godot5Image28_gde_binding_create_callbackEPvS1_, symObjAddr: 0x3848, symBinAddr: 0x14708, symSize: 0x44 }
  - { offset: 0x8C4AE, size: 0x8, addend: 0x0, symName: __ZN5godot5Image26_gde_binding_free_callbackEPvS1_S1_, symObjAddr: 0x388C, symBinAddr: 0x1474C, symSize: 0x34 }
  - { offset: 0x8C503, size: 0x8, addend: 0x0, symName: __ZN5godot5Image31_gde_binding_reference_callbackEPvS1_h, symObjAddr: 0x38C0, symBinAddr: 0x14780, symSize: 0x8 }
  - { offset: 0x8C57B, size: 0x8, addend: 0x0, symName: __ZN5godot5ImageD1Ev, symObjAddr: 0x38C8, symBinAddr: 0x14788, symSize: 0x8C }
  - { offset: 0x8C72F, size: 0x8, addend: 0x0, symName: __ZN5godot5ImageD1Ev.cold.1, symObjAddr: 0x4C44, symBinAddr: 0xFCC18, symSize: 0x1C }
  - { offset: 0x8C74A, size: 0x8, addend: 0x0, symName: __ZN5godot5ImageD1Ev.cold.1, symObjAddr: 0x4C44, symBinAddr: 0xFCC18, symSize: 0x1C }
  - { offset: 0x8C75E, size: 0x8, addend: 0x0, symName: __ZN5godot5ImageD1Ev.cold.1, symObjAddr: 0x4C44, symBinAddr: 0xFCC18, symSize: 0x1C }
  - { offset: 0x8C772, size: 0x8, addend: 0x0, symName: __ZN5godot5ImageD1Ev.cold.1, symObjAddr: 0x4C44, symBinAddr: 0xFCC18, symSize: 0x1C }
  - { offset: 0x8C786, size: 0x8, addend: 0x0, symName: __ZN5godot5ImageD1Ev.cold.1, symObjAddr: 0x4C44, symBinAddr: 0xFCC18, symSize: 0x1C }
  - { offset: 0x8C79A, size: 0x8, addend: 0x0, symName: __ZN5godot5ImageD1Ev.cold.1, symObjAddr: 0x4C44, symBinAddr: 0xFCC18, symSize: 0x1C }
  - { offset: 0x8C7AE, size: 0x8, addend: 0x0, symName: __ZN5godot5ImageD1Ev.cold.1, symObjAddr: 0x4C44, symBinAddr: 0xFCC18, symSize: 0x1C }
  - { offset: 0x8C7C3, size: 0x8, addend: 0x0, symName: __ZN5godot5ImageD1Ev.cold.1, symObjAddr: 0x4C44, symBinAddr: 0xFCC18, symSize: 0x1C }
  - { offset: 0x8C7F8, size: 0x8, addend: 0x0, symName: __ZN5godot5ImageD0Ev, symObjAddr: 0x3954, symBinAddr: 0x14814, symSize: 0x74 }
  - { offset: 0x8C959, size: 0x8, addend: 0x0, symName: __ZN5godot5ImageD0Ev.cold.1, symObjAddr: 0x4C60, symBinAddr: 0xFCC34, symSize: 0x1C }
  - { offset: 0x8C974, size: 0x8, addend: 0x0, symName: __ZN5godot5ImageD0Ev.cold.1, symObjAddr: 0x4C60, symBinAddr: 0xFCC34, symSize: 0x1C }
  - { offset: 0x8C988, size: 0x8, addend: 0x0, symName: __ZN5godot5ImageD0Ev.cold.1, symObjAddr: 0x4C60, symBinAddr: 0xFCC34, symSize: 0x1C }
  - { offset: 0x8C99C, size: 0x8, addend: 0x0, symName: __ZN5godot5ImageD0Ev.cold.1, symObjAddr: 0x4C60, symBinAddr: 0xFCC34, symSize: 0x1C }
  - { offset: 0x8C9B0, size: 0x8, addend: 0x0, symName: __ZN5godot5ImageD0Ev.cold.1, symObjAddr: 0x4C60, symBinAddr: 0xFCC34, symSize: 0x1C }
  - { offset: 0x8C9C4, size: 0x8, addend: 0x0, symName: __ZN5godot5ImageD0Ev.cold.1, symObjAddr: 0x4C60, symBinAddr: 0xFCC34, symSize: 0x1C }
  - { offset: 0x8C9D8, size: 0x8, addend: 0x0, symName: __ZN5godot5ImageD0Ev.cold.1, symObjAddr: 0x4C60, symBinAddr: 0xFCC34, symSize: 0x1C }
  - { offset: 0x8C9EC, size: 0x8, addend: 0x0, symName: __ZN5godot5ImageD0Ev.cold.1, symObjAddr: 0x4C60, symBinAddr: 0xFCC34, symSize: 0x1C }
  - { offset: 0x8CA01, size: 0x8, addend: 0x0, symName: __ZN5godot5ImageD0Ev.cold.1, symObjAddr: 0x4C60, symBinAddr: 0xFCC34, symSize: 0x1C }
  - { offset: 0x8CA22, size: 0x8, addend: 0x0, symName: __ZN5godot8internal23EngineClassRegistrationINS_32RDPipelineSpecializationConstantEE8callbackEv, symObjAddr: 0x39C8, symBinAddr: 0x14888, symSize: 0x48 }
  - { offset: 0x8CA6C, size: 0x8, addend: 0x0, symName: __ZN5godot8internal23EngineClassRegistrationINS_32RDPipelineSpecializationConstantEE8callbackEv.cold.1, symObjAddr: 0x4C7C, symBinAddr: 0xFCC50, symSize: 0x5C }
  - { offset: 0x8CAE4, size: 0x8, addend: 0x0, symName: __ZN5godot32RDPipelineSpecializationConstant28_gde_binding_create_callbackEPvS1_, symObjAddr: 0x3A10, symBinAddr: 0x148D0, symSize: 0x44 }
  - { offset: 0x8CBA3, size: 0x8, addend: 0x0, symName: __ZN5godot32RDPipelineSpecializationConstant26_gde_binding_free_callbackEPvS1_S1_, symObjAddr: 0x3A54, symBinAddr: 0x14914, symSize: 0x34 }
  - { offset: 0x8CBF8, size: 0x8, addend: 0x0, symName: __ZN5godot32RDPipelineSpecializationConstant31_gde_binding_reference_callbackEPvS1_h, symObjAddr: 0x3A88, symBinAddr: 0x14948, symSize: 0x8 }
  - { offset: 0x8CC54, size: 0x8, addend: 0x0, symName: __ZN5godot32RDPipelineSpecializationConstantD1Ev, symObjAddr: 0x3A90, symBinAddr: 0x14950, symSize: 0x8C }
  - { offset: 0x8CDF2, size: 0x8, addend: 0x0, symName: __ZN5godot32RDPipelineSpecializationConstantD1Ev.cold.1, symObjAddr: 0x4CD8, symBinAddr: 0xFCCAC, symSize: 0x1C }
  - { offset: 0x8CE0D, size: 0x8, addend: 0x0, symName: __ZN5godot32RDPipelineSpecializationConstantD1Ev.cold.1, symObjAddr: 0x4CD8, symBinAddr: 0xFCCAC, symSize: 0x1C }
  - { offset: 0x8CE21, size: 0x8, addend: 0x0, symName: __ZN5godot32RDPipelineSpecializationConstantD1Ev.cold.1, symObjAddr: 0x4CD8, symBinAddr: 0xFCCAC, symSize: 0x1C }
  - { offset: 0x8CE35, size: 0x8, addend: 0x0, symName: __ZN5godot32RDPipelineSpecializationConstantD1Ev.cold.1, symObjAddr: 0x4CD8, symBinAddr: 0xFCCAC, symSize: 0x1C }
  - { offset: 0x8CE49, size: 0x8, addend: 0x0, symName: __ZN5godot32RDPipelineSpecializationConstantD1Ev.cold.1, symObjAddr: 0x4CD8, symBinAddr: 0xFCCAC, symSize: 0x1C }
  - { offset: 0x8CE5D, size: 0x8, addend: 0x0, symName: __ZN5godot32RDPipelineSpecializationConstantD1Ev.cold.1, symObjAddr: 0x4CD8, symBinAddr: 0xFCCAC, symSize: 0x1C }
  - { offset: 0x8CE72, size: 0x8, addend: 0x0, symName: __ZN5godot32RDPipelineSpecializationConstantD1Ev.cold.1, symObjAddr: 0x4CD8, symBinAddr: 0xFCCAC, symSize: 0x1C }
  - { offset: 0x8CEA6, size: 0x8, addend: 0x0, symName: __ZN5godot32RDPipelineSpecializationConstantD0Ev, symObjAddr: 0x3B1C, symBinAddr: 0x149DC, symSize: 0x74 }
  - { offset: 0x8CFF1, size: 0x8, addend: 0x0, symName: __ZN5godot32RDPipelineSpecializationConstantD0Ev.cold.1, symObjAddr: 0x4CF4, symBinAddr: 0xFCCC8, symSize: 0x1C }
  - { offset: 0x8D00C, size: 0x8, addend: 0x0, symName: __ZN5godot32RDPipelineSpecializationConstantD0Ev.cold.1, symObjAddr: 0x4CF4, symBinAddr: 0xFCCC8, symSize: 0x1C }
  - { offset: 0x8D020, size: 0x8, addend: 0x0, symName: __ZN5godot32RDPipelineSpecializationConstantD0Ev.cold.1, symObjAddr: 0x4CF4, symBinAddr: 0xFCCC8, symSize: 0x1C }
  - { offset: 0x8D034, size: 0x8, addend: 0x0, symName: __ZN5godot32RDPipelineSpecializationConstantD0Ev.cold.1, symObjAddr: 0x4CF4, symBinAddr: 0xFCCC8, symSize: 0x1C }
  - { offset: 0x8D048, size: 0x8, addend: 0x0, symName: __ZN5godot32RDPipelineSpecializationConstantD0Ev.cold.1, symObjAddr: 0x4CF4, symBinAddr: 0xFCCC8, symSize: 0x1C }
  - { offset: 0x8D05C, size: 0x8, addend: 0x0, symName: __ZN5godot32RDPipelineSpecializationConstantD0Ev.cold.1, symObjAddr: 0x4CF4, symBinAddr: 0xFCCC8, symSize: 0x1C }
  - { offset: 0x8D070, size: 0x8, addend: 0x0, symName: __ZN5godot32RDPipelineSpecializationConstantD0Ev.cold.1, symObjAddr: 0x4CF4, symBinAddr: 0xFCCC8, symSize: 0x1C }
  - { offset: 0x8D085, size: 0x8, addend: 0x0, symName: __ZN5godot32RDPipelineSpecializationConstantD0Ev.cold.1, symObjAddr: 0x4CF4, symBinAddr: 0xFCCC8, symSize: 0x1C }
  - { offset: 0x8D0A5, size: 0x8, addend: 0x0, symName: __ZN5godot8internal23EngineClassRegistrationINS_15RenderingDeviceEE8callbackEv, symObjAddr: 0x3B90, symBinAddr: 0x14A50, symSize: 0x48 }
  - { offset: 0x8D0EF, size: 0x8, addend: 0x0, symName: __ZN5godot8internal23EngineClassRegistrationINS_15RenderingDeviceEE8callbackEv.cold.1, symObjAddr: 0x4D10, symBinAddr: 0xFCCE4, symSize: 0x5C }
  - { offset: 0x8D167, size: 0x8, addend: 0x0, symName: __ZN5godot15RenderingDevice28_gde_binding_create_callbackEPvS1_, symObjAddr: 0x3BD8, symBinAddr: 0x14A98, symSize: 0x44 }
  - { offset: 0x8D203, size: 0x8, addend: 0x0, symName: __ZN5godot15RenderingDevice26_gde_binding_free_callbackEPvS1_S1_, symObjAddr: 0x3C1C, symBinAddr: 0x14ADC, symSize: 0x34 }
  - { offset: 0x8D258, size: 0x8, addend: 0x0, symName: __ZN5godot15RenderingDevice31_gde_binding_reference_callbackEPvS1_h, symObjAddr: 0x3C50, symBinAddr: 0x14B10, symSize: 0x8 }
  - { offset: 0x8D2B4, size: 0x8, addend: 0x0, symName: __ZN5godot15RenderingDeviceD1Ev, symObjAddr: 0x3C58, symBinAddr: 0x14B18, symSize: 0x8C }
  - { offset: 0x8D43C, size: 0x8, addend: 0x0, symName: __ZN5godot15RenderingDeviceD1Ev.cold.1, symObjAddr: 0x4D6C, symBinAddr: 0xFCD40, symSize: 0x1C }
  - { offset: 0x8D457, size: 0x8, addend: 0x0, symName: __ZN5godot15RenderingDeviceD1Ev.cold.1, symObjAddr: 0x4D6C, symBinAddr: 0xFCD40, symSize: 0x1C }
  - { offset: 0x8D46B, size: 0x8, addend: 0x0, symName: __ZN5godot15RenderingDeviceD1Ev.cold.1, symObjAddr: 0x4D6C, symBinAddr: 0xFCD40, symSize: 0x1C }
  - { offset: 0x8D47F, size: 0x8, addend: 0x0, symName: __ZN5godot15RenderingDeviceD1Ev.cold.1, symObjAddr: 0x4D6C, symBinAddr: 0xFCD40, symSize: 0x1C }
  - { offset: 0x8D493, size: 0x8, addend: 0x0, symName: __ZN5godot15RenderingDeviceD1Ev.cold.1, symObjAddr: 0x4D6C, symBinAddr: 0xFCD40, symSize: 0x1C }
  - { offset: 0x8D4A8, size: 0x8, addend: 0x0, symName: __ZN5godot15RenderingDeviceD1Ev.cold.1, symObjAddr: 0x4D6C, symBinAddr: 0xFCD40, symSize: 0x1C }
  - { offset: 0x8D4DB, size: 0x8, addend: 0x0, symName: __ZN5godot15RenderingDeviceD0Ev, symObjAddr: 0x3CE4, symBinAddr: 0x14BA4, symSize: 0x74 }
  - { offset: 0x8D610, size: 0x8, addend: 0x0, symName: __ZN5godot15RenderingDeviceD0Ev.cold.1, symObjAddr: 0x4D88, symBinAddr: 0xFCD5C, symSize: 0x1C }
  - { offset: 0x8D62B, size: 0x8, addend: 0x0, symName: __ZN5godot15RenderingDeviceD0Ev.cold.1, symObjAddr: 0x4D88, symBinAddr: 0xFCD5C, symSize: 0x1C }
  - { offset: 0x8D63F, size: 0x8, addend: 0x0, symName: __ZN5godot15RenderingDeviceD0Ev.cold.1, symObjAddr: 0x4D88, symBinAddr: 0xFCD5C, symSize: 0x1C }
  - { offset: 0x8D653, size: 0x8, addend: 0x0, symName: __ZN5godot15RenderingDeviceD0Ev.cold.1, symObjAddr: 0x4D88, symBinAddr: 0xFCD5C, symSize: 0x1C }
  - { offset: 0x8D667, size: 0x8, addend: 0x0, symName: __ZN5godot15RenderingDeviceD0Ev.cold.1, symObjAddr: 0x4D88, symBinAddr: 0xFCD5C, symSize: 0x1C }
  - { offset: 0x8D67B, size: 0x8, addend: 0x0, symName: __ZN5godot15RenderingDeviceD0Ev.cold.1, symObjAddr: 0x4D88, symBinAddr: 0xFCD5C, symSize: 0x1C }
  - { offset: 0x8D690, size: 0x8, addend: 0x0, symName: __ZN5godot15RenderingDeviceD0Ev.cold.1, symObjAddr: 0x4D88, symBinAddr: 0xFCD5C, symSize: 0x1C }
  - { offset: 0x8D6AF, size: 0x8, addend: 0x0, symName: __ZN5godot8internal23EngineClassRegistrationINS_15RenderingServerEE8callbackEv, symObjAddr: 0x3D58, symBinAddr: 0x14C18, symSize: 0x48 }
  - { offset: 0x8D6F9, size: 0x8, addend: 0x0, symName: __ZN5godot8internal23EngineClassRegistrationINS_15RenderingServerEE8callbackEv.cold.1, symObjAddr: 0x4DA4, symBinAddr: 0xFCD78, symSize: 0x5C }
  - { offset: 0x8D771, size: 0x8, addend: 0x0, symName: __ZN5godot15RenderingServer28_gde_binding_create_callbackEPvS1_, symObjAddr: 0x3DA0, symBinAddr: 0x14C60, symSize: 0x48 }
  - { offset: 0x8D80D, size: 0x8, addend: 0x0, symName: __ZN5godot15RenderingServer26_gde_binding_free_callbackEPvS1_S1_, symObjAddr: 0x3DE8, symBinAddr: 0x14CA8, symSize: 0x34 }
  - { offset: 0x8D862, size: 0x8, addend: 0x0, symName: __ZN5godot15RenderingServer31_gde_binding_reference_callbackEPvS1_h, symObjAddr: 0x3E1C, symBinAddr: 0x14CDC, symSize: 0x8 }
  - { offset: 0x8D8A9, size: 0x8, addend: 0x0, symName: __ZN5godot8internal23EngineClassRegistrationINS_4TimeEE8callbackEv, symObjAddr: 0x3E24, symBinAddr: 0x14CE4, symSize: 0x48 }
  - { offset: 0x8D8F3, size: 0x8, addend: 0x0, symName: __ZN5godot8internal23EngineClassRegistrationINS_4TimeEE8callbackEv.cold.1, symObjAddr: 0x4E00, symBinAddr: 0xFCDD4, symSize: 0x5C }
  - { offset: 0x8D96B, size: 0x8, addend: 0x0, symName: __ZN5godot4Time28_gde_binding_create_callbackEPvS1_, symObjAddr: 0x3E6C, symBinAddr: 0x14D2C, symSize: 0x48 }
  - { offset: 0x8DA07, size: 0x8, addend: 0x0, symName: __ZN5godot4Time26_gde_binding_free_callbackEPvS1_S1_, symObjAddr: 0x3EB4, symBinAddr: 0x14D74, symSize: 0x34 }
  - { offset: 0x8DA5C, size: 0x8, addend: 0x0, symName: __ZN5godot4Time31_gde_binding_reference_callbackEPvS1_h, symObjAddr: 0x3EE8, symBinAddr: 0x14DA8, symSize: 0x8 }
  - { offset: 0x8DAC3, size: 0x8, addend: 0x0, symName: _OUTLINED_FUNCTION_0, symObjAddr: 0x4E5C, symBinAddr: 0x15064, symSize: 0x10 }
  - { offset: 0x8DADB, size: 0x8, addend: 0x0, symName: _OUTLINED_FUNCTION_1, symObjAddr: 0x4E6C, symBinAddr: 0x15074, symSize: 0xC }
  - { offset: 0x8DAF3, size: 0x8, addend: 0x0, symName: _OUTLINED_FUNCTION_2, symObjAddr: 0x4E78, symBinAddr: 0x15080, symSize: 0xC }
  - { offset: 0x8DB0B, size: 0x8, addend: 0x0, symName: _OUTLINED_FUNCTION_3, symObjAddr: 0x4E84, symBinAddr: 0x1508C, symSize: 0x8 }
  - { offset: 0x8DB23, size: 0x8, addend: 0x0, symName: _OUTLINED_FUNCTION_4, symObjAddr: 0x4E8C, symBinAddr: 0x15094, symSize: 0x8 }
  - { offset: 0x8DB3B, size: 0x8, addend: 0x0, symName: _OUTLINED_FUNCTION_5, symObjAddr: 0x4E94, symBinAddr: 0x1509C, symSize: 0x8 }
  - { offset: 0x8DB53, size: 0x8, addend: 0x0, symName: _OUTLINED_FUNCTION_6, symObjAddr: 0x4E9C, symBinAddr: 0x150A4, symSize: 0xC }
  - { offset: 0x8DB6B, size: 0x8, addend: 0x0, symName: _OUTLINED_FUNCTION_7, symObjAddr: 0x4EA8, symBinAddr: 0x150B0, symSize: 0xC }
  - { offset: 0x91421, size: 0x8, addend: 0x0, symName: ___cxx_global_var_init, symObjAddr: 0xCA8, symBinAddr: 0x157E4, symSize: 0x4C }
  - { offset: 0x914A6, size: 0x8, addend: 0x0, symName: ___cxx_global_var_init.1, symObjAddr: 0xCF4, symBinAddr: 0x15830, symSize: 0x4C }
  - { offset: 0x9152B, size: 0x8, addend: 0x0, symName: ___cxx_global_var_init.2, symObjAddr: 0xD40, symBinAddr: 0x1587C, symSize: 0x4C }
  - { offset: 0x915B0, size: 0x8, addend: 0x0, symName: ___cxx_global_var_init.3, symObjAddr: 0xD8C, symBinAddr: 0x158C8, symSize: 0x4C }
  - { offset: 0x91635, size: 0x8, addend: 0x0, symName: ___cxx_global_var_init.4, symObjAddr: 0xDD8, symBinAddr: 0x15914, symSize: 0x4C }
  - { offset: 0x9168B, size: 0x8, addend: 0x0, symName: __ZN6sentry11environment24detect_godot_environmentEv, symObjAddr: 0x0, symBinAddr: 0x15660, symSize: 0x138 }
  - { offset: 0x916D6, size: 0x8, addend: 0x0, symName: __ZN6sentry11environment24detect_godot_environmentEv.cold.2, symObjAddr: 0x960, symBinAddr: 0xFCE78, symSize: 0x48 }
  - { offset: 0x916EE, size: 0x8, addend: 0x0, symName: __ZN6sentry11environment24detect_godot_environmentEv.cold.1, symObjAddr: 0x918, symBinAddr: 0xFCE30, symSize: 0x48 }
  - { offset: 0x9170D, size: 0x8, addend: 0x0, symName: __ZN5godot8internal23EngineClassRegistrationINS_6ObjectEE8callbackEv.cold.1, symObjAddr: 0x9A8, symBinAddr: 0xFCEC0, symSize: 0x5C }
  - { offset: 0x917A8, size: 0x8, addend: 0x0, symName: __ZN5godot6ObjectD1Ev.cold.1, symObjAddr: 0xA04, symBinAddr: 0xFCF1C, symSize: 0x1C }
  - { offset: 0x917C3, size: 0x8, addend: 0x0, symName: __ZN5godot6ObjectD1Ev.cold.1, symObjAddr: 0xA04, symBinAddr: 0xFCF1C, symSize: 0x1C }
  - { offset: 0x917D7, size: 0x8, addend: 0x0, symName: __ZN5godot6ObjectD1Ev.cold.1, symObjAddr: 0xA04, symBinAddr: 0xFCF1C, symSize: 0x1C }
  - { offset: 0x917EB, size: 0x8, addend: 0x0, symName: __ZN5godot6ObjectD1Ev.cold.1, symObjAddr: 0xA04, symBinAddr: 0xFCF1C, symSize: 0x1C }
  - { offset: 0x91800, size: 0x8, addend: 0x0, symName: __ZN5godot6ObjectD1Ev.cold.1, symObjAddr: 0xA04, symBinAddr: 0xFCF1C, symSize: 0x1C }
  - { offset: 0x91830, size: 0x8, addend: 0x0, symName: __ZN5godot6ObjectD0Ev.cold.1, symObjAddr: 0xA20, symBinAddr: 0xFCF38, symSize: 0x1C }
  - { offset: 0x9184B, size: 0x8, addend: 0x0, symName: __ZN5godot6ObjectD0Ev.cold.1, symObjAddr: 0xA20, symBinAddr: 0xFCF38, symSize: 0x1C }
  - { offset: 0x9185F, size: 0x8, addend: 0x0, symName: __ZN5godot6ObjectD0Ev.cold.1, symObjAddr: 0xA20, symBinAddr: 0xFCF38, symSize: 0x1C }
  - { offset: 0x91873, size: 0x8, addend: 0x0, symName: __ZN5godot6ObjectD0Ev.cold.1, symObjAddr: 0xA20, symBinAddr: 0xFCF38, symSize: 0x1C }
  - { offset: 0x91887, size: 0x8, addend: 0x0, symName: __ZN5godot6ObjectD0Ev.cold.1, symObjAddr: 0xA20, symBinAddr: 0xFCF38, symSize: 0x1C }
  - { offset: 0x9189C, size: 0x8, addend: 0x0, symName: __ZN5godot6ObjectD0Ev.cold.1, symObjAddr: 0xA20, symBinAddr: 0xFCF38, symSize: 0x1C }
  - { offset: 0x918B3, size: 0x8, addend: 0x0, symName: __ZN5godot7WrappedD1Ev.cold.1, symObjAddr: 0xA3C, symBinAddr: 0xFCF54, symSize: 0x1C }
  - { offset: 0x918CE, size: 0x8, addend: 0x0, symName: __ZN5godot7WrappedD1Ev.cold.1, symObjAddr: 0xA3C, symBinAddr: 0xFCF54, symSize: 0x1C }
  - { offset: 0x918E2, size: 0x8, addend: 0x0, symName: __ZN5godot7WrappedD1Ev.cold.1, symObjAddr: 0xA3C, symBinAddr: 0xFCF54, symSize: 0x1C }
  - { offset: 0x918F7, size: 0x8, addend: 0x0, symName: __ZN5godot7WrappedD1Ev.cold.1, symObjAddr: 0xA3C, symBinAddr: 0xFCF54, symSize: 0x1C }
  - { offset: 0x91926, size: 0x8, addend: 0x0, symName: __ZN5godot7WrappedD0Ev.cold.1, symObjAddr: 0xA58, symBinAddr: 0xFCF70, symSize: 0x1C }
  - { offset: 0x91941, size: 0x8, addend: 0x0, symName: __ZN5godot7WrappedD0Ev.cold.1, symObjAddr: 0xA58, symBinAddr: 0xFCF70, symSize: 0x1C }
  - { offset: 0x91955, size: 0x8, addend: 0x0, symName: __ZN5godot7WrappedD0Ev.cold.1, symObjAddr: 0xA58, symBinAddr: 0xFCF70, symSize: 0x1C }
  - { offset: 0x91969, size: 0x8, addend: 0x0, symName: __ZN5godot7WrappedD0Ev.cold.1, symObjAddr: 0xA58, symBinAddr: 0xFCF70, symSize: 0x1C }
  - { offset: 0x9197E, size: 0x8, addend: 0x0, symName: __ZN5godot7WrappedD0Ev.cold.1, symObjAddr: 0xA58, symBinAddr: 0xFCF70, symSize: 0x1C }
  - { offset: 0x91994, size: 0x8, addend: 0x0, symName: __ZN5godot4ListINS_12PropertyInfoENS_16DefaultAllocatorEE5_Data5eraseEPNS3_7ElementE.cold.2, symObjAddr: 0xA94, symBinAddr: 0xFCFAC, symSize: 0x20 }
  - { offset: 0x919AC, size: 0x8, addend: 0x0, symName: __ZN5godot4ListINS_12PropertyInfoENS_16DefaultAllocatorEE5_Data5eraseEPNS3_7ElementE.cold.1, symObjAddr: 0xA74, symBinAddr: 0xFCF8C, symSize: 0x20 }
  - { offset: 0x919CB, size: 0x8, addend: 0x0, symName: __ZN5godot8internal23EngineClassRegistrationINS_16ClassDBSingletonEE8callbackEv.cold.1, symObjAddr: 0xAB4, symBinAddr: 0xFCFCC, symSize: 0x5C }
  - { offset: 0x91A00, size: 0x8, addend: 0x0, symName: __ZN5godot8internal23EngineClassRegistrationINS_6EngineEE8callbackEv.cold.1, symObjAddr: 0xB10, symBinAddr: 0xFD028, symSize: 0x5C }
  - { offset: 0x91A35, size: 0x8, addend: 0x0, symName: __ZN5godot8internal23EngineClassRegistrationINS_10RefCountedEE8callbackEv.cold.1, symObjAddr: 0xB6C, symBinAddr: 0xFD084, symSize: 0x5C }
  - { offset: 0x91A7F, size: 0x8, addend: 0x0, symName: __ZN5godot10RefCountedD1Ev.cold.1, symObjAddr: 0xBC8, symBinAddr: 0xFD0E0, symSize: 0x1C }
  - { offset: 0x91A9A, size: 0x8, addend: 0x0, symName: __ZN5godot10RefCountedD1Ev.cold.1, symObjAddr: 0xBC8, symBinAddr: 0xFD0E0, symSize: 0x1C }
  - { offset: 0x91AAE, size: 0x8, addend: 0x0, symName: __ZN5godot10RefCountedD1Ev.cold.1, symObjAddr: 0xBC8, symBinAddr: 0xFD0E0, symSize: 0x1C }
  - { offset: 0x91AC2, size: 0x8, addend: 0x0, symName: __ZN5godot10RefCountedD1Ev.cold.1, symObjAddr: 0xBC8, symBinAddr: 0xFD0E0, symSize: 0x1C }
  - { offset: 0x91AD6, size: 0x8, addend: 0x0, symName: __ZN5godot10RefCountedD1Ev.cold.1, symObjAddr: 0xBC8, symBinAddr: 0xFD0E0, symSize: 0x1C }
  - { offset: 0x91AEB, size: 0x8, addend: 0x0, symName: __ZN5godot10RefCountedD1Ev.cold.1, symObjAddr: 0xBC8, symBinAddr: 0xFD0E0, symSize: 0x1C }
  - { offset: 0x91B1E, size: 0x8, addend: 0x0, symName: __ZN5godot10RefCountedD0Ev.cold.1, symObjAddr: 0xBE4, symBinAddr: 0xFD0FC, symSize: 0x1C }
  - { offset: 0x91B39, size: 0x8, addend: 0x0, symName: __ZN5godot10RefCountedD0Ev.cold.1, symObjAddr: 0xBE4, symBinAddr: 0xFD0FC, symSize: 0x1C }
  - { offset: 0x91B4D, size: 0x8, addend: 0x0, symName: __ZN5godot10RefCountedD0Ev.cold.1, symObjAddr: 0xBE4, symBinAddr: 0xFD0FC, symSize: 0x1C }
  - { offset: 0x91B61, size: 0x8, addend: 0x0, symName: __ZN5godot10RefCountedD0Ev.cold.1, symObjAddr: 0xBE4, symBinAddr: 0xFD0FC, symSize: 0x1C }
  - { offset: 0x91B75, size: 0x8, addend: 0x0, symName: __ZN5godot10RefCountedD0Ev.cold.1, symObjAddr: 0xBE4, symBinAddr: 0xFD0FC, symSize: 0x1C }
  - { offset: 0x91B89, size: 0x8, addend: 0x0, symName: __ZN5godot10RefCountedD0Ev.cold.1, symObjAddr: 0xBE4, symBinAddr: 0xFD0FC, symSize: 0x1C }
  - { offset: 0x91B9E, size: 0x8, addend: 0x0, symName: __ZN5godot10RefCountedD0Ev.cold.1, symObjAddr: 0xBE4, symBinAddr: 0xFD0FC, symSize: 0x1C }
  - { offset: 0x91BBD, size: 0x8, addend: 0x0, symName: __ZN5godot8internal23EngineClassRegistrationINS_2OSEE8callbackEv.cold.1, symObjAddr: 0xC00, symBinAddr: 0xFD118, symSize: 0x5C }
  - { offset: 0x91BEB, size: 0x8, addend: 0x0, symName: _OUTLINED_FUNCTION_0, symObjAddr: 0xC5C, symBinAddr: 0x15798, symSize: 0x10 }
  - { offset: 0x91C03, size: 0x8, addend: 0x0, symName: _OUTLINED_FUNCTION_1, symObjAddr: 0xC6C, symBinAddr: 0x157A8, symSize: 0xC }
  - { offset: 0x91C1B, size: 0x8, addend: 0x0, symName: _OUTLINED_FUNCTION_2, symObjAddr: 0xC78, symBinAddr: 0x157B4, symSize: 0xC }
  - { offset: 0x91C33, size: 0x8, addend: 0x0, symName: _OUTLINED_FUNCTION_3, symObjAddr: 0xC84, symBinAddr: 0x157C0, symSize: 0x8 }
  - { offset: 0x91C4B, size: 0x8, addend: 0x0, symName: _OUTLINED_FUNCTION_4, symObjAddr: 0xC8C, symBinAddr: 0x157C8, symSize: 0x8 }
  - { offset: 0x91C63, size: 0x8, addend: 0x0, symName: _OUTLINED_FUNCTION_5, symObjAddr: 0xC94, symBinAddr: 0x157D0, symSize: 0x8 }
  - { offset: 0x91C7B, size: 0x8, addend: 0x0, symName: _OUTLINED_FUNCTION_6, symObjAddr: 0xC9C, symBinAddr: 0x157D8, symSize: 0xC }
  - { offset: 0x93B3F, size: 0x8, addend: 0x0, symName: __ZN6sentry16godot_singletons13mark_as_readyEv, symObjAddr: 0x0, symBinAddr: 0x15960, symSize: 0x14 }
  - { offset: 0x93B5B, size: 0x8, addend: 0x0, symName: __ZN12_GLOBAL__N_116singletons_readyE.0, symObjAddr: 0x505C, symBinAddr: 0x186930, symSize: 0x0 }
  - { offset: 0x948F9, size: 0x8, addend: 0x0, symName: __ZN6sentry16godot_singletons13mark_as_readyEv, symObjAddr: 0x0, symBinAddr: 0x15960, symSize: 0x14 }
  - { offset: 0x94916, size: 0x8, addend: 0x0, symName: __ZN6sentry16godot_singletons13mark_as_readyEv, symObjAddr: 0x0, symBinAddr: 0x15960, symSize: 0x14 }
  - { offset: 0x94939, size: 0x8, addend: 0x0, symName: __ZN6sentry16godot_singletons13mark_as_readyEv, symObjAddr: 0x0, symBinAddr: 0x15960, symSize: 0x14 }
  - { offset: 0x9495B, size: 0x8, addend: 0x0, symName: __ZN6sentry16godot_singletons9are_readyEv, symObjAddr: 0x14, symBinAddr: 0x15974, symSize: 0x14 }
  - { offset: 0x9497C, size: 0x8, addend: 0x0, symName: __ZN6sentry16godot_singletons9are_readyEv, symObjAddr: 0x14, symBinAddr: 0x15974, symSize: 0x14 }
  - { offset: 0x94997, size: 0x8, addend: 0x0, symName: __ZN6sentry16godot_singletons9are_readyEv, symObjAddr: 0x14, symBinAddr: 0x15974, symSize: 0x14 }
  - { offset: 0x9A953, size: 0x8, addend: 0x0, symName: __ZN6sentry16level_as_cstringENS_5LevelE, symObjAddr: 0x0, symBinAddr: 0x15988, symSize: 0x30 }
  - { offset: 0x9A9C6, size: 0x8, addend: 0x0, symName: __ZN6sentry15level_as_stringENS_5LevelE, symObjAddr: 0x30, symBinAddr: 0x159B8, symSize: 0x2C }
  - { offset: 0x9A9F4, size: 0x8, addend: 0x0, symName: __ZN6sentry24make_level_enum_propertyERKN5godot6StringE, symObjAddr: 0x5C, symBinAddr: 0x159E4, symSize: 0x108 }
  - { offset: 0x9AADB, size: 0x8, addend: 0x0, symName: __ZN6sentry7logging5printIJEEEvNS_5LevelERKN5godot7VariantEDpRKT_, symObjAddr: 0xF50, symBinAddr: 0x15C6C, symSize: 0x24C }
  - { offset: 0x9AE33, size: 0x8, addend: 0x0, symName: __ZN6sentry7logging15print_no_loggerIJEEEvNS_5LevelERKN5godot7VariantEDpRKT_, symObjAddr: 0x119C, symBinAddr: 0x15EB8, symSize: 0x1AC }
  - { offset: 0x9B21B, size: 0x8, addend: 0x0, symName: __ZN6sentry12int_to_levelEi, symObjAddr: 0x164, symBinAddr: 0x15AEC, symSize: 0xB8 }
  - { offset: 0x9B29C, size: 0x8, addend: 0x0, symName: __ZN6sentry17level_from_stringERKN5godot6StringENS_5LevelE, symObjAddr: 0x21C, symBinAddr: 0x15BA4, symSize: 0xC8 }
  - { offset: 0x9B3DD, size: 0x8, addend: 0x0, symName: ___cxx_global_var_init, symObjAddr: 0x179C, symBinAddr: 0x160A4, symSize: 0x4C }
  - { offset: 0x9B462, size: 0x8, addend: 0x0, symName: ___cxx_global_var_init.1, symObjAddr: 0x17E8, symBinAddr: 0x160F0, symSize: 0x4C }
  - { offset: 0x9B4E7, size: 0x8, addend: 0x0, symName: ___cxx_global_var_init.2, symObjAddr: 0x1834, symBinAddr: 0x1613C, symSize: 0x4C }
  - { offset: 0x9B56C, size: 0x8, addend: 0x0, symName: ___cxx_global_var_init.3, symObjAddr: 0x1880, symBinAddr: 0x16188, symSize: 0x4C }
  - { offset: 0x9B5F1, size: 0x8, addend: 0x0, symName: ___cxx_global_var_init.4, symObjAddr: 0x18CC, symBinAddr: 0x161D4, symSize: 0x4C }
  - { offset: 0x9B676, size: 0x8, addend: 0x0, symName: ___cxx_global_var_init.5, symObjAddr: 0x1918, symBinAddr: 0x16220, symSize: 0x4C }
  - { offset: 0x9B6FB, size: 0x8, addend: 0x0, symName: ___cxx_global_var_init.6, symObjAddr: 0x1964, symBinAddr: 0x1626C, symSize: 0x4C }
  - { offset: 0x9B88E, size: 0x8, addend: 0x0, symName: __ZN5godot8internal23EngineClassRegistrationINS_6ObjectEE8callbackEv.cold.1, symObjAddr: 0x1348, symBinAddr: 0xFD174, symSize: 0x5C }
  - { offset: 0x9B929, size: 0x8, addend: 0x0, symName: __ZN5godot6ObjectD1Ev.cold.1, symObjAddr: 0x13A4, symBinAddr: 0xFD1D0, symSize: 0x1C }
  - { offset: 0x9B944, size: 0x8, addend: 0x0, symName: __ZN5godot6ObjectD1Ev.cold.1, symObjAddr: 0x13A4, symBinAddr: 0xFD1D0, symSize: 0x1C }
  - { offset: 0x9B958, size: 0x8, addend: 0x0, symName: __ZN5godot6ObjectD1Ev.cold.1, symObjAddr: 0x13A4, symBinAddr: 0xFD1D0, symSize: 0x1C }
  - { offset: 0x9B96C, size: 0x8, addend: 0x0, symName: __ZN5godot6ObjectD1Ev.cold.1, symObjAddr: 0x13A4, symBinAddr: 0xFD1D0, symSize: 0x1C }
  - { offset: 0x9B981, size: 0x8, addend: 0x0, symName: __ZN5godot6ObjectD1Ev.cold.1, symObjAddr: 0x13A4, symBinAddr: 0xFD1D0, symSize: 0x1C }
  - { offset: 0x9B9B1, size: 0x8, addend: 0x0, symName: __ZN5godot6ObjectD0Ev.cold.1, symObjAddr: 0x13C0, symBinAddr: 0xFD1EC, symSize: 0x1C }
  - { offset: 0x9B9CC, size: 0x8, addend: 0x0, symName: __ZN5godot6ObjectD0Ev.cold.1, symObjAddr: 0x13C0, symBinAddr: 0xFD1EC, symSize: 0x1C }
  - { offset: 0x9B9E0, size: 0x8, addend: 0x0, symName: __ZN5godot6ObjectD0Ev.cold.1, symObjAddr: 0x13C0, symBinAddr: 0xFD1EC, symSize: 0x1C }
  - { offset: 0x9B9F4, size: 0x8, addend: 0x0, symName: __ZN5godot6ObjectD0Ev.cold.1, symObjAddr: 0x13C0, symBinAddr: 0xFD1EC, symSize: 0x1C }
  - { offset: 0x9BA08, size: 0x8, addend: 0x0, symName: __ZN5godot6ObjectD0Ev.cold.1, symObjAddr: 0x13C0, symBinAddr: 0xFD1EC, symSize: 0x1C }
  - { offset: 0x9BA1D, size: 0x8, addend: 0x0, symName: __ZN5godot6ObjectD0Ev.cold.1, symObjAddr: 0x13C0, symBinAddr: 0xFD1EC, symSize: 0x1C }
  - { offset: 0x9BA34, size: 0x8, addend: 0x0, symName: __ZN5godot7WrappedD1Ev.cold.1, symObjAddr: 0x13DC, symBinAddr: 0xFD208, symSize: 0x1C }
  - { offset: 0x9BA4F, size: 0x8, addend: 0x0, symName: __ZN5godot7WrappedD1Ev.cold.1, symObjAddr: 0x13DC, symBinAddr: 0xFD208, symSize: 0x1C }
  - { offset: 0x9BA63, size: 0x8, addend: 0x0, symName: __ZN5godot7WrappedD1Ev.cold.1, symObjAddr: 0x13DC, symBinAddr: 0xFD208, symSize: 0x1C }
  - { offset: 0x9BA78, size: 0x8, addend: 0x0, symName: __ZN5godot7WrappedD1Ev.cold.1, symObjAddr: 0x13DC, symBinAddr: 0xFD208, symSize: 0x1C }
  - { offset: 0x9BAA7, size: 0x8, addend: 0x0, symName: __ZN5godot7WrappedD0Ev.cold.1, symObjAddr: 0x13F8, symBinAddr: 0xFD224, symSize: 0x1C }
  - { offset: 0x9BAC2, size: 0x8, addend: 0x0, symName: __ZN5godot7WrappedD0Ev.cold.1, symObjAddr: 0x13F8, symBinAddr: 0xFD224, symSize: 0x1C }
  - { offset: 0x9BAD6, size: 0x8, addend: 0x0, symName: __ZN5godot7WrappedD0Ev.cold.1, symObjAddr: 0x13F8, symBinAddr: 0xFD224, symSize: 0x1C }
  - { offset: 0x9BAEA, size: 0x8, addend: 0x0, symName: __ZN5godot7WrappedD0Ev.cold.1, symObjAddr: 0x13F8, symBinAddr: 0xFD224, symSize: 0x1C }
  - { offset: 0x9BAFF, size: 0x8, addend: 0x0, symName: __ZN5godot7WrappedD0Ev.cold.1, symObjAddr: 0x13F8, symBinAddr: 0xFD224, symSize: 0x1C }
  - { offset: 0x9BB15, size: 0x8, addend: 0x0, symName: __ZN5godot4ListINS_12PropertyInfoENS_16DefaultAllocatorEE5_Data5eraseEPNS3_7ElementE.cold.2, symObjAddr: 0x1434, symBinAddr: 0xFD260, symSize: 0x20 }
  - { offset: 0x9BB2D, size: 0x8, addend: 0x0, symName: __ZN5godot4ListINS_12PropertyInfoENS_16DefaultAllocatorEE5_Data5eraseEPNS3_7ElementE.cold.1, symObjAddr: 0x1414, symBinAddr: 0xFD240, symSize: 0x20 }
  - { offset: 0x9BB4C, size: 0x8, addend: 0x0, symName: __ZN5godot8internal23EngineClassRegistrationINS_16ClassDBSingletonEE8callbackEv.cold.1, symObjAddr: 0x1454, symBinAddr: 0xFD280, symSize: 0x5C }
  - { offset: 0x9BB81, size: 0x8, addend: 0x0, symName: __ZN5godot8internal23EngineClassRegistrationINS_10RefCountedEE8callbackEv.cold.1, symObjAddr: 0x14B0, symBinAddr: 0xFD2DC, symSize: 0x5C }
  - { offset: 0x9BBCB, size: 0x8, addend: 0x0, symName: __ZN5godot10RefCountedD1Ev.cold.1, symObjAddr: 0x150C, symBinAddr: 0xFD338, symSize: 0x1C }
  - { offset: 0x9BBE6, size: 0x8, addend: 0x0, symName: __ZN5godot10RefCountedD1Ev.cold.1, symObjAddr: 0x150C, symBinAddr: 0xFD338, symSize: 0x1C }
  - { offset: 0x9BBFA, size: 0x8, addend: 0x0, symName: __ZN5godot10RefCountedD1Ev.cold.1, symObjAddr: 0x150C, symBinAddr: 0xFD338, symSize: 0x1C }
  - { offset: 0x9BC0E, size: 0x8, addend: 0x0, symName: __ZN5godot10RefCountedD1Ev.cold.1, symObjAddr: 0x150C, symBinAddr: 0xFD338, symSize: 0x1C }
  - { offset: 0x9BC22, size: 0x8, addend: 0x0, symName: __ZN5godot10RefCountedD1Ev.cold.1, symObjAddr: 0x150C, symBinAddr: 0xFD338, symSize: 0x1C }
  - { offset: 0x9BC37, size: 0x8, addend: 0x0, symName: __ZN5godot10RefCountedD1Ev.cold.1, symObjAddr: 0x150C, symBinAddr: 0xFD338, symSize: 0x1C }
  - { offset: 0x9BC6A, size: 0x8, addend: 0x0, symName: __ZN5godot10RefCountedD0Ev.cold.1, symObjAddr: 0x1528, symBinAddr: 0xFD354, symSize: 0x1C }
  - { offset: 0x9BC85, size: 0x8, addend: 0x0, symName: __ZN5godot10RefCountedD0Ev.cold.1, symObjAddr: 0x1528, symBinAddr: 0xFD354, symSize: 0x1C }
  - { offset: 0x9BC99, size: 0x8, addend: 0x0, symName: __ZN5godot10RefCountedD0Ev.cold.1, symObjAddr: 0x1528, symBinAddr: 0xFD354, symSize: 0x1C }
  - { offset: 0x9BCAD, size: 0x8, addend: 0x0, symName: __ZN5godot10RefCountedD0Ev.cold.1, symObjAddr: 0x1528, symBinAddr: 0xFD354, symSize: 0x1C }
  - { offset: 0x9BCC1, size: 0x8, addend: 0x0, symName: __ZN5godot10RefCountedD0Ev.cold.1, symObjAddr: 0x1528, symBinAddr: 0xFD354, symSize: 0x1C }
  - { offset: 0x9BCD5, size: 0x8, addend: 0x0, symName: __ZN5godot10RefCountedD0Ev.cold.1, symObjAddr: 0x1528, symBinAddr: 0xFD354, symSize: 0x1C }
  - { offset: 0x9BCEA, size: 0x8, addend: 0x0, symName: __ZN5godot10RefCountedD0Ev.cold.1, symObjAddr: 0x1528, symBinAddr: 0xFD354, symSize: 0x1C }
  - { offset: 0x9BD09, size: 0x8, addend: 0x0, symName: __ZN5godot8internal23EngineClassRegistrationINS_6LoggerEE8callbackEv.cold.1, symObjAddr: 0x1544, symBinAddr: 0xFD370, symSize: 0x5C }
  - { offset: 0x9BD3E, size: 0x8, addend: 0x0, symName: __ZN5godot8internal23EngineClassRegistrationINS_15ScriptBacktraceEE8callbackEv.cold.1, symObjAddr: 0x15A0, symBinAddr: 0xFD3CC, symSize: 0x5C }
  - { offset: 0x9BD88, size: 0x8, addend: 0x0, symName: __ZN5godot15ScriptBacktraceD1Ev.cold.1, symObjAddr: 0x15FC, symBinAddr: 0xFD428, symSize: 0x1C }
  - { offset: 0x9BDA3, size: 0x8, addend: 0x0, symName: __ZN5godot15ScriptBacktraceD1Ev.cold.1, symObjAddr: 0x15FC, symBinAddr: 0xFD428, symSize: 0x1C }
  - { offset: 0x9BDB7, size: 0x8, addend: 0x0, symName: __ZN5godot15ScriptBacktraceD1Ev.cold.1, symObjAddr: 0x15FC, symBinAddr: 0xFD428, symSize: 0x1C }
  - { offset: 0x9BDCB, size: 0x8, addend: 0x0, symName: __ZN5godot15ScriptBacktraceD1Ev.cold.1, symObjAddr: 0x15FC, symBinAddr: 0xFD428, symSize: 0x1C }
  - { offset: 0x9BDDF, size: 0x8, addend: 0x0, symName: __ZN5godot15ScriptBacktraceD1Ev.cold.1, symObjAddr: 0x15FC, symBinAddr: 0xFD428, symSize: 0x1C }
  - { offset: 0x9BDF3, size: 0x8, addend: 0x0, symName: __ZN5godot15ScriptBacktraceD1Ev.cold.1, symObjAddr: 0x15FC, symBinAddr: 0xFD428, symSize: 0x1C }
  - { offset: 0x9BE08, size: 0x8, addend: 0x0, symName: __ZN5godot15ScriptBacktraceD1Ev.cold.1, symObjAddr: 0x15FC, symBinAddr: 0xFD428, symSize: 0x1C }
  - { offset: 0x9BE3C, size: 0x8, addend: 0x0, symName: __ZN5godot15ScriptBacktraceD0Ev.cold.1, symObjAddr: 0x1618, symBinAddr: 0xFD444, symSize: 0x1C }
  - { offset: 0x9BE57, size: 0x8, addend: 0x0, symName: __ZN5godot15ScriptBacktraceD0Ev.cold.1, symObjAddr: 0x1618, symBinAddr: 0xFD444, symSize: 0x1C }
  - { offset: 0x9BE6B, size: 0x8, addend: 0x0, symName: __ZN5godot15ScriptBacktraceD0Ev.cold.1, symObjAddr: 0x1618, symBinAddr: 0xFD444, symSize: 0x1C }
  - { offset: 0x9BE7F, size: 0x8, addend: 0x0, symName: __ZN5godot15ScriptBacktraceD0Ev.cold.1, symObjAddr: 0x1618, symBinAddr: 0xFD444, symSize: 0x1C }
  - { offset: 0x9BE93, size: 0x8, addend: 0x0, symName: __ZN5godot15ScriptBacktraceD0Ev.cold.1, symObjAddr: 0x1618, symBinAddr: 0xFD444, symSize: 0x1C }
  - { offset: 0x9BEA7, size: 0x8, addend: 0x0, symName: __ZN5godot15ScriptBacktraceD0Ev.cold.1, symObjAddr: 0x1618, symBinAddr: 0xFD444, symSize: 0x1C }
  - { offset: 0x9BEBB, size: 0x8, addend: 0x0, symName: __ZN5godot15ScriptBacktraceD0Ev.cold.1, symObjAddr: 0x1618, symBinAddr: 0xFD444, symSize: 0x1C }
  - { offset: 0x9BED0, size: 0x8, addend: 0x0, symName: __ZN5godot15ScriptBacktraceD0Ev.cold.1, symObjAddr: 0x1618, symBinAddr: 0xFD444, symSize: 0x1C }
  - { offset: 0x9BEF0, size: 0x8, addend: 0x0, symName: __ZN5godot8internal23EngineClassRegistrationINS_10ConfigFileEE8callbackEv.cold.1, symObjAddr: 0x1634, symBinAddr: 0xFD460, symSize: 0x5C }
  - { offset: 0x9BF3A, size: 0x8, addend: 0x0, symName: __ZN5godot10ConfigFileD1Ev.cold.1, symObjAddr: 0x1690, symBinAddr: 0xFD4BC, symSize: 0x1C }
  - { offset: 0x9BF55, size: 0x8, addend: 0x0, symName: __ZN5godot10ConfigFileD1Ev.cold.1, symObjAddr: 0x1690, symBinAddr: 0xFD4BC, symSize: 0x1C }
  - { offset: 0x9BF69, size: 0x8, addend: 0x0, symName: __ZN5godot10ConfigFileD1Ev.cold.1, symObjAddr: 0x1690, symBinAddr: 0xFD4BC, symSize: 0x1C }
  - { offset: 0x9BF7D, size: 0x8, addend: 0x0, symName: __ZN5godot10ConfigFileD1Ev.cold.1, symObjAddr: 0x1690, symBinAddr: 0xFD4BC, symSize: 0x1C }
  - { offset: 0x9BF91, size: 0x8, addend: 0x0, symName: __ZN5godot10ConfigFileD1Ev.cold.1, symObjAddr: 0x1690, symBinAddr: 0xFD4BC, symSize: 0x1C }
  - { offset: 0x9BFA5, size: 0x8, addend: 0x0, symName: __ZN5godot10ConfigFileD1Ev.cold.1, symObjAddr: 0x1690, symBinAddr: 0xFD4BC, symSize: 0x1C }
  - { offset: 0x9BFBA, size: 0x8, addend: 0x0, symName: __ZN5godot10ConfigFileD1Ev.cold.1, symObjAddr: 0x1690, symBinAddr: 0xFD4BC, symSize: 0x1C }
  - { offset: 0x9BFEE, size: 0x8, addend: 0x0, symName: __ZN5godot10ConfigFileD0Ev.cold.1, symObjAddr: 0x16AC, symBinAddr: 0xFD4D8, symSize: 0x1C }
  - { offset: 0x9C009, size: 0x8, addend: 0x0, symName: __ZN5godot10ConfigFileD0Ev.cold.1, symObjAddr: 0x16AC, symBinAddr: 0xFD4D8, symSize: 0x1C }
  - { offset: 0x9C01D, size: 0x8, addend: 0x0, symName: __ZN5godot10ConfigFileD0Ev.cold.1, symObjAddr: 0x16AC, symBinAddr: 0xFD4D8, symSize: 0x1C }
  - { offset: 0x9C031, size: 0x8, addend: 0x0, symName: __ZN5godot10ConfigFileD0Ev.cold.1, symObjAddr: 0x16AC, symBinAddr: 0xFD4D8, symSize: 0x1C }
  - { offset: 0x9C045, size: 0x8, addend: 0x0, symName: __ZN5godot10ConfigFileD0Ev.cold.1, symObjAddr: 0x16AC, symBinAddr: 0xFD4D8, symSize: 0x1C }
  - { offset: 0x9C059, size: 0x8, addend: 0x0, symName: __ZN5godot10ConfigFileD0Ev.cold.1, symObjAddr: 0x16AC, symBinAddr: 0xFD4D8, symSize: 0x1C }
  - { offset: 0x9C06D, size: 0x8, addend: 0x0, symName: __ZN5godot10ConfigFileD0Ev.cold.1, symObjAddr: 0x16AC, symBinAddr: 0xFD4D8, symSize: 0x1C }
  - { offset: 0x9C082, size: 0x8, addend: 0x0, symName: __ZN5godot10ConfigFileD0Ev.cold.1, symObjAddr: 0x16AC, symBinAddr: 0xFD4D8, symSize: 0x1C }
  - { offset: 0x9C0A2, size: 0x8, addend: 0x0, symName: __ZN5godot8internal23EngineClassRegistrationINS_5MutexEE8callbackEv.cold.1, symObjAddr: 0x16C8, symBinAddr: 0xFD4F4, symSize: 0x5C }
  - { offset: 0x9C0EC, size: 0x8, addend: 0x0, symName: __ZN5godot5MutexD1Ev.cold.1, symObjAddr: 0x1724, symBinAddr: 0xFD550, symSize: 0x1C }
  - { offset: 0x9C107, size: 0x8, addend: 0x0, symName: __ZN5godot5MutexD1Ev.cold.1, symObjAddr: 0x1724, symBinAddr: 0xFD550, symSize: 0x1C }
  - { offset: 0x9C11B, size: 0x8, addend: 0x0, symName: __ZN5godot5MutexD1Ev.cold.1, symObjAddr: 0x1724, symBinAddr: 0xFD550, symSize: 0x1C }
  - { offset: 0x9C12F, size: 0x8, addend: 0x0, symName: __ZN5godot5MutexD1Ev.cold.1, symObjAddr: 0x1724, symBinAddr: 0xFD550, symSize: 0x1C }
  - { offset: 0x9C143, size: 0x8, addend: 0x0, symName: __ZN5godot5MutexD1Ev.cold.1, symObjAddr: 0x1724, symBinAddr: 0xFD550, symSize: 0x1C }
  - { offset: 0x9C157, size: 0x8, addend: 0x0, symName: __ZN5godot5MutexD1Ev.cold.1, symObjAddr: 0x1724, symBinAddr: 0xFD550, symSize: 0x1C }
  - { offset: 0x9C16C, size: 0x8, addend: 0x0, symName: __ZN5godot5MutexD1Ev.cold.1, symObjAddr: 0x1724, symBinAddr: 0xFD550, symSize: 0x1C }
  - { offset: 0x9C1A0, size: 0x8, addend: 0x0, symName: __ZN5godot5MutexD0Ev.cold.1, symObjAddr: 0x1740, symBinAddr: 0xFD56C, symSize: 0x1C }
  - { offset: 0x9C1BB, size: 0x8, addend: 0x0, symName: __ZN5godot5MutexD0Ev.cold.1, symObjAddr: 0x1740, symBinAddr: 0xFD56C, symSize: 0x1C }
  - { offset: 0x9C1CF, size: 0x8, addend: 0x0, symName: __ZN5godot5MutexD0Ev.cold.1, symObjAddr: 0x1740, symBinAddr: 0xFD56C, symSize: 0x1C }
  - { offset: 0x9C1E3, size: 0x8, addend: 0x0, symName: __ZN5godot5MutexD0Ev.cold.1, symObjAddr: 0x1740, symBinAddr: 0xFD56C, symSize: 0x1C }
  - { offset: 0x9C1F7, size: 0x8, addend: 0x0, symName: __ZN5godot5MutexD0Ev.cold.1, symObjAddr: 0x1740, symBinAddr: 0xFD56C, symSize: 0x1C }
  - { offset: 0x9C20B, size: 0x8, addend: 0x0, symName: __ZN5godot5MutexD0Ev.cold.1, symObjAddr: 0x1740, symBinAddr: 0xFD56C, symSize: 0x1C }
  - { offset: 0x9C21F, size: 0x8, addend: 0x0, symName: __ZN5godot5MutexD0Ev.cold.1, symObjAddr: 0x1740, symBinAddr: 0xFD56C, symSize: 0x1C }
  - { offset: 0x9C234, size: 0x8, addend: 0x0, symName: __ZN5godot5MutexD0Ev.cold.1, symObjAddr: 0x1740, symBinAddr: 0xFD56C, symSize: 0x1C }
  - { offset: 0x9C790, size: 0x8, addend: 0x0, symName: _OUTLINED_FUNCTION_0, symObjAddr: 0x175C, symBinAddr: 0x16064, symSize: 0x10 }
  - { offset: 0x9C7A8, size: 0x8, addend: 0x0, symName: _OUTLINED_FUNCTION_1, symObjAddr: 0x176C, symBinAddr: 0x16074, symSize: 0xC }
  - { offset: 0x9C7C0, size: 0x8, addend: 0x0, symName: _OUTLINED_FUNCTION_2, symObjAddr: 0x1778, symBinAddr: 0x16080, symSize: 0xC }
  - { offset: 0x9C7D8, size: 0x8, addend: 0x0, symName: _OUTLINED_FUNCTION_3, symObjAddr: 0x1784, symBinAddr: 0x1608C, symSize: 0x8 }
  - { offset: 0x9C7F0, size: 0x8, addend: 0x0, symName: _OUTLINED_FUNCTION_4, symObjAddr: 0x178C, symBinAddr: 0x16094, symSize: 0x8 }
  - { offset: 0x9C808, size: 0x8, addend: 0x0, symName: _OUTLINED_FUNCTION_5, symObjAddr: 0x1794, symBinAddr: 0x1609C, symSize: 0x8 }
  - { offset: 0x9E55F, size: 0x8, addend: 0x0, symName: __ZN6sentry19log_level_as_stringENS_8LogLevelE, symObjAddr: 0x0, symBinAddr: 0x162B8, symSize: 0x2C }
  - { offset: 0x9F174, size: 0x8, addend: 0x0, symName: __ZN6sentry19log_level_as_stringENS_8LogLevelE, symObjAddr: 0x0, symBinAddr: 0x162B8, symSize: 0x2C }
  - { offset: 0x9F1A2, size: 0x8, addend: 0x0, symName: __ZN6sentry21log_level_from_stringERKN5godot6StringENS_8LogLevelE, symObjAddr: 0x2C, symBinAddr: 0x162E4, symSize: 0xEC }
  - { offset: 0x9F1DF, size: 0x8, addend: 0x0, symName: __ZN6sentry20log_level_as_cstringENS_8LogLevelE, symObjAddr: 0x118, symBinAddr: 0x163D0, symSize: 0x30 }
  - { offset: 0x9F252, size: 0x8, addend: 0x0, symName: __ZN6sentry22log_level_from_cstringEPKcNS_8LogLevelE, symObjAddr: 0x148, symBinAddr: 0x16400, symSize: 0xDC }
  - { offset: 0xA34CB, size: 0x8, addend: 0x0, symName: ___cxx_global_var_init, symObjAddr: 0x1178, symBinAddr: 0x16B58, symSize: 0x4C }
  - { offset: 0xA3550, size: 0x8, addend: 0x0, symName: ___cxx_global_var_init.1, symObjAddr: 0x11C4, symBinAddr: 0x16BA4, symSize: 0x4C }
  - { offset: 0xA35D5, size: 0x8, addend: 0x0, symName: ___cxx_global_var_init.2, symObjAddr: 0x1210, symBinAddr: 0x16BF0, symSize: 0x4C }
  - { offset: 0xA365A, size: 0x8, addend: 0x0, symName: ___cxx_global_var_init.3, symObjAddr: 0x125C, symBinAddr: 0x16C3C, symSize: 0x4C }
  - { offset: 0xA3A34, size: 0x8, addend: 0x0, symName: __ZN6sentry13RuntimeConfig19set_installation_idERKN5godot6StringE, symObjAddr: 0x0, symBinAddr: 0x164DC, symSize: 0x104 }
  - { offset: 0xA3AB5, size: 0x8, addend: 0x0, symName: __ZN6sentry13RuntimeConfig19set_installation_idERKN5godot6StringE.cold.1, symObjAddr: 0xE4C, symBinAddr: 0xFD588, symSize: 0x20 }
  - { offset: 0xA3B1D, size: 0x8, addend: 0x0, symName: __ZN6sentry13RuntimeConfig9load_fileERKN5godot6StringE, symObjAddr: 0x104, symBinAddr: 0x165E0, symSize: 0x19C }
  - { offset: 0xA3C1C, size: 0x8, addend: 0x0, symName: __ZN6sentry13RuntimeConfig9load_fileERKN5godot6StringE.cold.1, symObjAddr: 0xE6C, symBinAddr: 0xFD5A8, symSize: 0x20 }
  - { offset: 0xA3CD1, size: 0x8, addend: 0x0, symName: __ZN6sentry13RuntimeConfigC2Ev, symObjAddr: 0x2A0, symBinAddr: 0x1677C, symSize: 0xB4 }
  - { offset: 0xA3D98, size: 0x8, addend: 0x0, symName: __ZN5godot3RefINS_10ConfigFileEE11instantiateEv, symObjAddr: 0x354, symBinAddr: 0x16830, symSize: 0x144 }
  - { offset: 0xA412F, size: 0x8, addend: 0x0, symName: __ZN6sentry13RuntimeConfigC1Ev, symObjAddr: 0x498, symBinAddr: 0x16974, symSize: 0xB4 }
  - { offset: 0xA421D, size: 0x8, addend: 0x0, symName: __ZNK6sentry13RuntimeConfig19_is_extension_classEv, symObjAddr: 0x54C, symBinAddr: 0x16A28, symSize: 0x8 }
  - { offset: 0xA4244, size: 0x8, addend: 0x0, symName: __ZN6sentry13RuntimeConfigD1Ev, symObjAddr: 0x554, symBinAddr: 0x16A30, symSize: 0x4 }
  - { offset: 0xA4267, size: 0x8, addend: 0x0, symName: __ZN6sentry13RuntimeConfigD1Ev, symObjAddr: 0x554, symBinAddr: 0x16A30, symSize: 0x4 }
  - { offset: 0xA427A, size: 0x8, addend: 0x0, symName: __ZN6sentry13RuntimeConfigD2Ev, symObjAddr: 0xD7C, symBinAddr: 0x16A48, symSize: 0xD0 }
  - { offset: 0xA44AB, size: 0x8, addend: 0x0, symName: __ZN6sentry13RuntimeConfigD0Ev, symObjAddr: 0x558, symBinAddr: 0x16A34, symSize: 0x14 }
  - { offset: 0xA4698, size: 0x8, addend: 0x0, symName: __ZN5godot10RefCountedD1Ev.cold.1, symObjAddr: 0xE8C, symBinAddr: 0xFD5C8, symSize: 0x1C }
  - { offset: 0xA46B3, size: 0x8, addend: 0x0, symName: __ZN5godot10RefCountedD1Ev.cold.1, symObjAddr: 0xE8C, symBinAddr: 0xFD5C8, symSize: 0x1C }
  - { offset: 0xA46C7, size: 0x8, addend: 0x0, symName: __ZN5godot10RefCountedD1Ev.cold.1, symObjAddr: 0xE8C, symBinAddr: 0xFD5C8, symSize: 0x1C }
  - { offset: 0xA46DB, size: 0x8, addend: 0x0, symName: __ZN5godot10RefCountedD1Ev.cold.1, symObjAddr: 0xE8C, symBinAddr: 0xFD5C8, symSize: 0x1C }
  - { offset: 0xA46EF, size: 0x8, addend: 0x0, symName: __ZN5godot10RefCountedD1Ev.cold.1, symObjAddr: 0xE8C, symBinAddr: 0xFD5C8, symSize: 0x1C }
  - { offset: 0xA4704, size: 0x8, addend: 0x0, symName: __ZN5godot10RefCountedD1Ev.cold.1, symObjAddr: 0xE8C, symBinAddr: 0xFD5C8, symSize: 0x1C }
  - { offset: 0xA4737, size: 0x8, addend: 0x0, symName: __ZN5godot10RefCountedD0Ev.cold.1, symObjAddr: 0xEA8, symBinAddr: 0xFD5E4, symSize: 0x1C }
  - { offset: 0xA4752, size: 0x8, addend: 0x0, symName: __ZN5godot10RefCountedD0Ev.cold.1, symObjAddr: 0xEA8, symBinAddr: 0xFD5E4, symSize: 0x1C }
  - { offset: 0xA4766, size: 0x8, addend: 0x0, symName: __ZN5godot10RefCountedD0Ev.cold.1, symObjAddr: 0xEA8, symBinAddr: 0xFD5E4, symSize: 0x1C }
  - { offset: 0xA477A, size: 0x8, addend: 0x0, symName: __ZN5godot10RefCountedD0Ev.cold.1, symObjAddr: 0xEA8, symBinAddr: 0xFD5E4, symSize: 0x1C }
  - { offset: 0xA478E, size: 0x8, addend: 0x0, symName: __ZN5godot10RefCountedD0Ev.cold.1, symObjAddr: 0xEA8, symBinAddr: 0xFD5E4, symSize: 0x1C }
  - { offset: 0xA47A2, size: 0x8, addend: 0x0, symName: __ZN5godot10RefCountedD0Ev.cold.1, symObjAddr: 0xEA8, symBinAddr: 0xFD5E4, symSize: 0x1C }
  - { offset: 0xA47B7, size: 0x8, addend: 0x0, symName: __ZN5godot10RefCountedD0Ev.cold.1, symObjAddr: 0xEA8, symBinAddr: 0xFD5E4, symSize: 0x1C }
  - { offset: 0xA47CF, size: 0x8, addend: 0x0, symName: __ZN5godot6ObjectD1Ev.cold.1, symObjAddr: 0xEC4, symBinAddr: 0xFD600, symSize: 0x1C }
  - { offset: 0xA47EA, size: 0x8, addend: 0x0, symName: __ZN5godot6ObjectD1Ev.cold.1, symObjAddr: 0xEC4, symBinAddr: 0xFD600, symSize: 0x1C }
  - { offset: 0xA47FE, size: 0x8, addend: 0x0, symName: __ZN5godot6ObjectD1Ev.cold.1, symObjAddr: 0xEC4, symBinAddr: 0xFD600, symSize: 0x1C }
  - { offset: 0xA4812, size: 0x8, addend: 0x0, symName: __ZN5godot6ObjectD1Ev.cold.1, symObjAddr: 0xEC4, symBinAddr: 0xFD600, symSize: 0x1C }
  - { offset: 0xA4827, size: 0x8, addend: 0x0, symName: __ZN5godot6ObjectD1Ev.cold.1, symObjAddr: 0xEC4, symBinAddr: 0xFD600, symSize: 0x1C }
  - { offset: 0xA4857, size: 0x8, addend: 0x0, symName: __ZN5godot6ObjectD0Ev.cold.1, symObjAddr: 0xEE0, symBinAddr: 0xFD61C, symSize: 0x1C }
  - { offset: 0xA4872, size: 0x8, addend: 0x0, symName: __ZN5godot6ObjectD0Ev.cold.1, symObjAddr: 0xEE0, symBinAddr: 0xFD61C, symSize: 0x1C }
  - { offset: 0xA4886, size: 0x8, addend: 0x0, symName: __ZN5godot6ObjectD0Ev.cold.1, symObjAddr: 0xEE0, symBinAddr: 0xFD61C, symSize: 0x1C }
  - { offset: 0xA489A, size: 0x8, addend: 0x0, symName: __ZN5godot6ObjectD0Ev.cold.1, symObjAddr: 0xEE0, symBinAddr: 0xFD61C, symSize: 0x1C }
  - { offset: 0xA48AE, size: 0x8, addend: 0x0, symName: __ZN5godot6ObjectD0Ev.cold.1, symObjAddr: 0xEE0, symBinAddr: 0xFD61C, symSize: 0x1C }
  - { offset: 0xA48C3, size: 0x8, addend: 0x0, symName: __ZN5godot6ObjectD0Ev.cold.1, symObjAddr: 0xEE0, symBinAddr: 0xFD61C, symSize: 0x1C }
  - { offset: 0xA48DA, size: 0x8, addend: 0x0, symName: __ZN5godot7WrappedD1Ev.cold.1, symObjAddr: 0xEFC, symBinAddr: 0xFD638, symSize: 0x1C }
  - { offset: 0xA48F5, size: 0x8, addend: 0x0, symName: __ZN5godot7WrappedD1Ev.cold.1, symObjAddr: 0xEFC, symBinAddr: 0xFD638, symSize: 0x1C }
  - { offset: 0xA4909, size: 0x8, addend: 0x0, symName: __ZN5godot7WrappedD1Ev.cold.1, symObjAddr: 0xEFC, symBinAddr: 0xFD638, symSize: 0x1C }
  - { offset: 0xA491E, size: 0x8, addend: 0x0, symName: __ZN5godot7WrappedD1Ev.cold.1, symObjAddr: 0xEFC, symBinAddr: 0xFD638, symSize: 0x1C }
  - { offset: 0xA494D, size: 0x8, addend: 0x0, symName: __ZN5godot7WrappedD0Ev.cold.1, symObjAddr: 0xF18, symBinAddr: 0xFD654, symSize: 0x1C }
  - { offset: 0xA4968, size: 0x8, addend: 0x0, symName: __ZN5godot7WrappedD0Ev.cold.1, symObjAddr: 0xF18, symBinAddr: 0xFD654, symSize: 0x1C }
  - { offset: 0xA497C, size: 0x8, addend: 0x0, symName: __ZN5godot7WrappedD0Ev.cold.1, symObjAddr: 0xF18, symBinAddr: 0xFD654, symSize: 0x1C }
  - { offset: 0xA4990, size: 0x8, addend: 0x0, symName: __ZN5godot7WrappedD0Ev.cold.1, symObjAddr: 0xF18, symBinAddr: 0xFD654, symSize: 0x1C }
  - { offset: 0xA49A5, size: 0x8, addend: 0x0, symName: __ZN5godot7WrappedD0Ev.cold.1, symObjAddr: 0xF18, symBinAddr: 0xFD654, symSize: 0x1C }
  - { offset: 0xA4A2B, size: 0x8, addend: 0x0, symName: __ZN5godot4ListINS_12PropertyInfoENS_16DefaultAllocatorEE5_Data5eraseEPNS3_7ElementE.cold.2, symObjAddr: 0xF54, symBinAddr: 0xFD690, symSize: 0x20 }
  - { offset: 0xA4A43, size: 0x8, addend: 0x0, symName: __ZN5godot4ListINS_12PropertyInfoENS_16DefaultAllocatorEE5_Data5eraseEPNS3_7ElementE.cold.1, symObjAddr: 0xF34, symBinAddr: 0xFD670, symSize: 0x20 }
  - { offset: 0xA4A62, size: 0x8, addend: 0x0, symName: __ZN5godot8internal23EngineClassRegistrationINS_6ObjectEE8callbackEv.cold.1, symObjAddr: 0xF74, symBinAddr: 0xFD6B0, symSize: 0x5C }
  - { offset: 0xA4A97, size: 0x8, addend: 0x0, symName: __ZN5godot8internal23EngineClassRegistrationINS_16ClassDBSingletonEE8callbackEv.cold.1, symObjAddr: 0xFD0, symBinAddr: 0xFD70C, symSize: 0x5C }
  - { offset: 0xA4ACC, size: 0x8, addend: 0x0, symName: __ZN5godot8internal23EngineClassRegistrationINS_10RefCountedEE8callbackEv.cold.1, symObjAddr: 0x102C, symBinAddr: 0xFD768, symSize: 0x5C }
  - { offset: 0xA4B01, size: 0x8, addend: 0x0, symName: __ZN5godot8internal23EngineClassRegistrationINS_10ConfigFileEE8callbackEv.cold.1, symObjAddr: 0x1088, symBinAddr: 0xFD7C4, symSize: 0x5C }
  - { offset: 0xA4B4B, size: 0x8, addend: 0x0, symName: __ZN5godot10ConfigFileD1Ev.cold.1, symObjAddr: 0x10E4, symBinAddr: 0xFD820, symSize: 0x1C }
  - { offset: 0xA4B66, size: 0x8, addend: 0x0, symName: __ZN5godot10ConfigFileD1Ev.cold.1, symObjAddr: 0x10E4, symBinAddr: 0xFD820, symSize: 0x1C }
  - { offset: 0xA4B7A, size: 0x8, addend: 0x0, symName: __ZN5godot10ConfigFileD1Ev.cold.1, symObjAddr: 0x10E4, symBinAddr: 0xFD820, symSize: 0x1C }
  - { offset: 0xA4B8E, size: 0x8, addend: 0x0, symName: __ZN5godot10ConfigFileD1Ev.cold.1, symObjAddr: 0x10E4, symBinAddr: 0xFD820, symSize: 0x1C }
  - { offset: 0xA4BA2, size: 0x8, addend: 0x0, symName: __ZN5godot10ConfigFileD1Ev.cold.1, symObjAddr: 0x10E4, symBinAddr: 0xFD820, symSize: 0x1C }
  - { offset: 0xA4BB6, size: 0x8, addend: 0x0, symName: __ZN5godot10ConfigFileD1Ev.cold.1, symObjAddr: 0x10E4, symBinAddr: 0xFD820, symSize: 0x1C }
  - { offset: 0xA4BCB, size: 0x8, addend: 0x0, symName: __ZN5godot10ConfigFileD1Ev.cold.1, symObjAddr: 0x10E4, symBinAddr: 0xFD820, symSize: 0x1C }
  - { offset: 0xA4BFF, size: 0x8, addend: 0x0, symName: __ZN5godot10ConfigFileD0Ev.cold.1, symObjAddr: 0x1100, symBinAddr: 0xFD83C, symSize: 0x1C }
  - { offset: 0xA4C1A, size: 0x8, addend: 0x0, symName: __ZN5godot10ConfigFileD0Ev.cold.1, symObjAddr: 0x1100, symBinAddr: 0xFD83C, symSize: 0x1C }
  - { offset: 0xA4C2E, size: 0x8, addend: 0x0, symName: __ZN5godot10ConfigFileD0Ev.cold.1, symObjAddr: 0x1100, symBinAddr: 0xFD83C, symSize: 0x1C }
  - { offset: 0xA4C42, size: 0x8, addend: 0x0, symName: __ZN5godot10ConfigFileD0Ev.cold.1, symObjAddr: 0x1100, symBinAddr: 0xFD83C, symSize: 0x1C }
  - { offset: 0xA4C56, size: 0x8, addend: 0x0, symName: __ZN5godot10ConfigFileD0Ev.cold.1, symObjAddr: 0x1100, symBinAddr: 0xFD83C, symSize: 0x1C }
  - { offset: 0xA4C6A, size: 0x8, addend: 0x0, symName: __ZN5godot10ConfigFileD0Ev.cold.1, symObjAddr: 0x1100, symBinAddr: 0xFD83C, symSize: 0x1C }
  - { offset: 0xA4C7E, size: 0x8, addend: 0x0, symName: __ZN5godot10ConfigFileD0Ev.cold.1, symObjAddr: 0x1100, symBinAddr: 0xFD83C, symSize: 0x1C }
  - { offset: 0xA4C93, size: 0x8, addend: 0x0, symName: __ZN5godot10ConfigFileD0Ev.cold.1, symObjAddr: 0x1100, symBinAddr: 0xFD83C, symSize: 0x1C }
  - { offset: 0xA4CAC, size: 0x8, addend: 0x0, symName: __ZN6sentry13RuntimeConfigD2Ev.cold.1, symObjAddr: 0x111C, symBinAddr: 0xFD858, symSize: 0x1C }
  - { offset: 0xA4CC7, size: 0x8, addend: 0x0, symName: __ZN6sentry13RuntimeConfigD2Ev.cold.1, symObjAddr: 0x111C, symBinAddr: 0xFD858, symSize: 0x1C }
  - { offset: 0xA4CDB, size: 0x8, addend: 0x0, symName: __ZN6sentry13RuntimeConfigD2Ev.cold.1, symObjAddr: 0x111C, symBinAddr: 0xFD858, symSize: 0x1C }
  - { offset: 0xA4CEF, size: 0x8, addend: 0x0, symName: __ZN6sentry13RuntimeConfigD2Ev.cold.1, symObjAddr: 0x111C, symBinAddr: 0xFD858, symSize: 0x1C }
  - { offset: 0xA4D03, size: 0x8, addend: 0x0, symName: __ZN6sentry13RuntimeConfigD2Ev.cold.1, symObjAddr: 0x111C, symBinAddr: 0xFD858, symSize: 0x1C }
  - { offset: 0xA4D18, size: 0x8, addend: 0x0, symName: __ZN6sentry13RuntimeConfigD2Ev.cold.1, symObjAddr: 0x111C, symBinAddr: 0xFD858, symSize: 0x1C }
  - { offset: 0xA4D2F, size: 0x8, addend: 0x0, symName: _OUTLINED_FUNCTION_0, symObjAddr: 0x1138, symBinAddr: 0x16B18, symSize: 0x10 }
  - { offset: 0xA4D47, size: 0x8, addend: 0x0, symName: _OUTLINED_FUNCTION_1, symObjAddr: 0x1148, symBinAddr: 0x16B28, symSize: 0xC }
  - { offset: 0xA4D5F, size: 0x8, addend: 0x0, symName: _OUTLINED_FUNCTION_2, symObjAddr: 0x1154, symBinAddr: 0x16B34, symSize: 0xC }
  - { offset: 0xA4D77, size: 0x8, addend: 0x0, symName: _OUTLINED_FUNCTION_3, symObjAddr: 0x1160, symBinAddr: 0x16B40, symSize: 0x8 }
  - { offset: 0xA4D8F, size: 0x8, addend: 0x0, symName: _OUTLINED_FUNCTION_4, symObjAddr: 0x1168, symBinAddr: 0x16B48, symSize: 0x8 }
  - { offset: 0xA4DA7, size: 0x8, addend: 0x0, symName: _OUTLINED_FUNCTION_5, symObjAddr: 0x1170, symBinAddr: 0x16B50, symSize: 0x8 }
  - { offset: 0xA9694, size: 0x8, addend: 0x0, symName: __ZN5godot18create_method_bindIN6sentry16SentryAttachmentEJRKNS_15PackedByteArrayEEEEPNS_10MethodBindEMT_FvDpT0_E, symObjAddr: 0x2880, symBinAddr: 0x18D04, symSize: 0x114 }
  - { offset: 0xA97DC, size: 0x8, addend: 0x0, symName: __ZN5godot18create_method_bindIN6sentry16SentryAttachmentENS_15PackedByteArrayEJEEEPNS_10MethodBindEMT_KFT0_DpT1_E, symObjAddr: 0x2CF0, symBinAddr: 0x19174, symSize: 0x12C }
  - { offset: 0xA9912, size: 0x8, addend: 0x0, symName: __ZN5godot18create_method_bindIN6sentry16SentryAttachmentEJRKNS_6StringEEEEPNS_10MethodBindEMT_FvDpT0_E, symObjAddr: 0x3094, symBinAddr: 0x19518, symSize: 0x114 }
  - { offset: 0xA9A45, size: 0x8, addend: 0x0, symName: __ZN5godot18create_method_bindIN6sentry16SentryAttachmentENS_6StringEJEEEPNS_10MethodBindEMT_KFT0_DpT1_E, symObjAddr: 0x3504, symBinAddr: 0x19988, symSize: 0x12C }
  - { offset: 0xA9EB1, size: 0x8, addend: 0x0, symName: __ZN5godot34call_get_argument_type_info_helperIRKNS_6StringEEEviRiRNS_12PropertyInfoE, symObjAddr: 0x1E74, symBinAddr: 0x182F8, symSize: 0x174 }
  - { offset: 0xA9FD4, size: 0x8, addend: 0x0, symName: __ZN5godot36call_with_variant_args_static_ret_dvINS_3RefIN6sentry16SentryAttachmentEEEJRKNS_6StringEEEEvPFT_DpT0_EPKPKviRNS_7VariantER20GDExtensionCallErrorRKNSt3__16vectorISH_NSL_9allocatorISH_EEEE, symObjAddr: 0x1FE8, symBinAddr: 0x1846C, symSize: 0x104 }
  - { offset: 0xAA166, size: 0x8, addend: 0x0, symName: __ZN5godot43call_with_ptr_args_static_method_ret_helperINS_3RefIN6sentry16SentryAttachmentEEEJRKNS_6StringEEJLm0EEEEvPFT_DpT0_EPKPKvPvNS_13IndexSequenceIJXspT1_EEEE, symObjAddr: 0x21B0, symBinAddr: 0x18634, symSize: 0xD4 }
  - { offset: 0xAA346, size: 0x8, addend: 0x0, symName: __ZN5godot33call_with_variant_args_static_retINS_3RefIN6sentry16SentryAttachmentEEEJRKNS_6StringEEJLm0EEEEvPFT_DpT0_EPPKNS_7VariantERSD_R20GDExtensionCallErrorNS_13IndexSequenceIJXspT1_EEEE, symObjAddr: 0x20EC, symBinAddr: 0x18570, symSize: 0xC4 }
  - { offset: 0xAA581, size: 0x8, addend: 0x0, symName: __ZN5godot34call_get_argument_type_info_helperIRKNS_15PackedByteArrayEEEviRiRNS_12PropertyInfoE, symObjAddr: 0x23B8, symBinAddr: 0x1883C, symSize: 0x174 }
  - { offset: 0xAA6A4, size: 0x8, addend: 0x0, symName: __ZN5godot36call_with_variant_args_static_ret_dvINS_3RefIN6sentry16SentryAttachmentEEEJRKNS_15PackedByteArrayERKNS_6StringEEEEvPFT_DpT0_EPKPKviRNS_7VariantER20GDExtensionCallErrorRKNSt3__16vectorISK_NSO_9allocatorISK_EEEE, symObjAddr: 0x252C, symBinAddr: 0x189B0, symSize: 0x168 }
  - { offset: 0xAA84C, size: 0x8, addend: 0x0, symName: __ZN5godot43call_with_ptr_args_static_method_ret_helperINS_3RefIN6sentry16SentryAttachmentEEEJRKNS_15PackedByteArrayERKNS_6StringEEJLm0ELm1EEEEvPFT_DpT0_EPKPKvPvNS_13IndexSequenceIJXspT1_EEEE, symObjAddr: 0x277C, symBinAddr: 0x18C00, symSize: 0xF8 }
  - { offset: 0xAA9FB, size: 0x8, addend: 0x0, symName: __ZN5godot33call_with_variant_args_static_retINS_3RefIN6sentry16SentryAttachmentEEEJRKNS_15PackedByteArrayERKNS_6StringEEJLm0ELm1EEEEvPFT_DpT0_EPPKNS_7VariantERSG_R20GDExtensionCallErrorNS_13IndexSequenceIJXspT1_EEEE, symObjAddr: 0x2694, symBinAddr: 0x18B18, symSize: 0xE8 }
  - { offset: 0xAAD5E, size: 0x8, addend: 0x0, symName: __ZN5godot25call_with_variant_args_dvINS_20_gde_UnexistingClassEJRKNS_15PackedByteArrayEEEEvPT_MS5_FvDpT0_EPKPKviR20GDExtensionCallErrorRKNSt3__16vectorINS_7VariantENSH_9allocatorISJ_EEEE, symObjAddr: 0x2BBC, symBinAddr: 0x19040, symSize: 0x134 }
  - { offset: 0xAB471, size: 0x8, addend: 0x0, symName: __ZN5godot25call_with_variant_args_dvINS_20_gde_UnexistingClassEJRKNS_6StringEEEEvPT_MS5_FvDpT0_EPKPKviR20GDExtensionCallErrorRKNSt3__16vectorINS_7VariantENSH_9allocatorISJ_EEEE, symObjAddr: 0x33D0, symBinAddr: 0x19854, symSize: 0x134 }
  - { offset: 0xB99FA, size: 0x8, addend: 0x0, symName: ___cxx_global_var_init, symObjAddr: 0x405C, symBinAddr: 0x19DAC, symSize: 0x4C }
  - { offset: 0xB9A7F, size: 0x8, addend: 0x0, symName: ___cxx_global_var_init.1, symObjAddr: 0x40A8, symBinAddr: 0x19DF8, symSize: 0x4C }
  - { offset: 0xB9B04, size: 0x8, addend: 0x0, symName: ___cxx_global_var_init.2, symObjAddr: 0x40F4, symBinAddr: 0x19E44, symSize: 0x4C }
  - { offset: 0xB9B89, size: 0x8, addend: 0x0, symName: ___cxx_global_var_init.3, symObjAddr: 0x4140, symBinAddr: 0x19E90, symSize: 0x4C }
  - { offset: 0xB9D0D, size: 0x8, addend: 0x0, symName: __ZN6sentry16SentryAttachment16create_with_pathERKN5godot6StringE, symObjAddr: 0x0, symBinAddr: 0x16C88, symSize: 0x154 }
  - { offset: 0xB9EC1, size: 0x8, addend: 0x0, symName: __ZN6sentry16SentryAttachment16create_with_pathERKN5godot6StringE.cold.2, symObjAddr: 0x3920, symBinAddr: 0xFD8D0, symSize: 0x44 }
  - { offset: 0xB9F04, size: 0x8, addend: 0x0, symName: __ZN6sentry16SentryAttachment16create_with_pathERKN5godot6StringE.cold.1, symObjAddr: 0x38C4, symBinAddr: 0xFD874, symSize: 0x5C }
  - { offset: 0xB9F71, size: 0x8, addend: 0x0, symName: __ZN6sentry16SentryAttachment17create_with_bytesERKN5godot15PackedByteArrayERKNS1_6StringE, symObjAddr: 0x154, symBinAddr: 0x16DDC, symSize: 0x168 }
  - { offset: 0xBA12F, size: 0x8, addend: 0x0, symName: __ZN6sentry16SentryAttachment17create_with_bytesERKN5godot15PackedByteArrayERKNS1_6StringE.cold.2, symObjAddr: 0x39C0, symBinAddr: 0xFD970, symSize: 0x44 }
  - { offset: 0xBA172, size: 0x8, addend: 0x0, symName: __ZN6sentry16SentryAttachment17create_with_bytesERKN5godot15PackedByteArrayERKNS1_6StringE.cold.1, symObjAddr: 0x3964, symBinAddr: 0xFD914, symSize: 0x5C }
  - { offset: 0xBA1DF, size: 0x8, addend: 0x0, symName: __ZN6sentry16SentryAttachment9set_bytesERKN5godot15PackedByteArrayE, symObjAddr: 0x2BC, symBinAddr: 0x16F44, symSize: 0x68 }
  - { offset: 0xBA235, size: 0x8, addend: 0x0, symName: __ZN6sentry16SentryAttachment8set_pathERKN5godot6StringE, symObjAddr: 0x324, symBinAddr: 0x16FAC, symSize: 0x68 }
  - { offset: 0xBA28B, size: 0x8, addend: 0x0, symName: __ZNK6sentry16SentryAttachment19get_globalized_pathEv, symObjAddr: 0x38C, symBinAddr: 0x17014, symSize: 0xF0 }
  - { offset: 0xBAAA3, size: 0x8, addend: 0x0, symName: __ZN6sentry16SentryAttachment13_bind_methodsEv, symObjAddr: 0x47C, symBinAddr: 0x17104, symSize: 0xD3C }
  - { offset: 0xBCCF9, size: 0x8, addend: 0x0, symName: __ZN5godot7ClassDB18bind_static_methodINS_16MethodDefinitionEPFNS_3RefIN6sentry16SentryAttachmentEEERKNS_6StringEEJEEEPNS_10MethodBindENS_10StringNameET_T0_DpT1_, symObjAddr: 0x11B8, symBinAddr: 0x17E40, symSize: 0x144 }
  - { offset: 0xBCE80, size: 0x8, addend: 0x0, symName: __ZN5godot7ClassDB18bind_static_methodINS_16MethodDefinitionEPFNS_3RefIN6sentry16SentryAttachmentEEERKNS_15PackedByteArrayERKNS_6StringEEJEEEPNS_10MethodBindENS_10StringNameET_T0_DpT1_, symObjAddr: 0x12FC, symBinAddr: 0x17F84, symSize: 0x140 }
  - { offset: 0xBCFF7, size: 0x8, addend: 0x0, symName: __ZN6sentry16SentryAttachment13_bind_methodsEv.cold.1, symObjAddr: 0x3A04, symBinAddr: 0xFD9B4, symSize: 0x58 }
  - { offset: 0xBD025, size: 0x8, addend: 0x0, symName: __ZN6sentry16SentryAttachment13_bind_methodsEv.cold.2, symObjAddr: 0x3A5C, symBinAddr: 0xFDA0C, symSize: 0x58 }
  - { offset: 0xBD053, size: 0x8, addend: 0x0, symName: __ZN6sentry16SentryAttachment13_bind_methodsEv.cold.3, symObjAddr: 0x3AB4, symBinAddr: 0xFDA64, symSize: 0x58 }
  - { offset: 0xBD081, size: 0x8, addend: 0x0, symName: __ZN6sentry16SentryAttachment13_bind_methodsEv.cold.4, symObjAddr: 0x3B0C, symBinAddr: 0xFDABC, symSize: 0x58 }
  - { offset: 0xBD28E, size: 0x8, addend: 0x0, symName: __ZN5godot10RefCountedD1Ev.cold.1, symObjAddr: 0x3B64, symBinAddr: 0xFDB14, symSize: 0x1C }
  - { offset: 0xBD2A9, size: 0x8, addend: 0x0, symName: __ZN5godot10RefCountedD1Ev.cold.1, symObjAddr: 0x3B64, symBinAddr: 0xFDB14, symSize: 0x1C }
  - { offset: 0xBD2BD, size: 0x8, addend: 0x0, symName: __ZN5godot10RefCountedD1Ev.cold.1, symObjAddr: 0x3B64, symBinAddr: 0xFDB14, symSize: 0x1C }
  - { offset: 0xBD2D1, size: 0x8, addend: 0x0, symName: __ZN5godot10RefCountedD1Ev.cold.1, symObjAddr: 0x3B64, symBinAddr: 0xFDB14, symSize: 0x1C }
  - { offset: 0xBD2E5, size: 0x8, addend: 0x0, symName: __ZN5godot10RefCountedD1Ev.cold.1, symObjAddr: 0x3B64, symBinAddr: 0xFDB14, symSize: 0x1C }
  - { offset: 0xBD2FA, size: 0x8, addend: 0x0, symName: __ZN5godot10RefCountedD1Ev.cold.1, symObjAddr: 0x3B64, symBinAddr: 0xFDB14, symSize: 0x1C }
  - { offset: 0xBD32D, size: 0x8, addend: 0x0, symName: __ZN5godot10RefCountedD0Ev.cold.1, symObjAddr: 0x3B80, symBinAddr: 0xFDB30, symSize: 0x1C }
  - { offset: 0xBD348, size: 0x8, addend: 0x0, symName: __ZN5godot10RefCountedD0Ev.cold.1, symObjAddr: 0x3B80, symBinAddr: 0xFDB30, symSize: 0x1C }
  - { offset: 0xBD35C, size: 0x8, addend: 0x0, symName: __ZN5godot10RefCountedD0Ev.cold.1, symObjAddr: 0x3B80, symBinAddr: 0xFDB30, symSize: 0x1C }
  - { offset: 0xBD370, size: 0x8, addend: 0x0, symName: __ZN5godot10RefCountedD0Ev.cold.1, symObjAddr: 0x3B80, symBinAddr: 0xFDB30, symSize: 0x1C }
  - { offset: 0xBD384, size: 0x8, addend: 0x0, symName: __ZN5godot10RefCountedD0Ev.cold.1, symObjAddr: 0x3B80, symBinAddr: 0xFDB30, symSize: 0x1C }
  - { offset: 0xBD398, size: 0x8, addend: 0x0, symName: __ZN5godot10RefCountedD0Ev.cold.1, symObjAddr: 0x3B80, symBinAddr: 0xFDB30, symSize: 0x1C }
  - { offset: 0xBD3AD, size: 0x8, addend: 0x0, symName: __ZN5godot10RefCountedD0Ev.cold.1, symObjAddr: 0x3B80, symBinAddr: 0xFDB30, symSize: 0x1C }
  - { offset: 0xBD3C5, size: 0x8, addend: 0x0, symName: __ZN5godot6ObjectD1Ev.cold.1, symObjAddr: 0x3B9C, symBinAddr: 0xFDB4C, symSize: 0x1C }
  - { offset: 0xBD3E0, size: 0x8, addend: 0x0, symName: __ZN5godot6ObjectD1Ev.cold.1, symObjAddr: 0x3B9C, symBinAddr: 0xFDB4C, symSize: 0x1C }
  - { offset: 0xBD3F4, size: 0x8, addend: 0x0, symName: __ZN5godot6ObjectD1Ev.cold.1, symObjAddr: 0x3B9C, symBinAddr: 0xFDB4C, symSize: 0x1C }
  - { offset: 0xBD408, size: 0x8, addend: 0x0, symName: __ZN5godot6ObjectD1Ev.cold.1, symObjAddr: 0x3B9C, symBinAddr: 0xFDB4C, symSize: 0x1C }
  - { offset: 0xBD41D, size: 0x8, addend: 0x0, symName: __ZN5godot6ObjectD1Ev.cold.1, symObjAddr: 0x3B9C, symBinAddr: 0xFDB4C, symSize: 0x1C }
  - { offset: 0xBD44D, size: 0x8, addend: 0x0, symName: __ZN5godot6ObjectD0Ev.cold.1, symObjAddr: 0x3BB8, symBinAddr: 0xFDB68, symSize: 0x1C }
  - { offset: 0xBD468, size: 0x8, addend: 0x0, symName: __ZN5godot6ObjectD0Ev.cold.1, symObjAddr: 0x3BB8, symBinAddr: 0xFDB68, symSize: 0x1C }
  - { offset: 0xBD47C, size: 0x8, addend: 0x0, symName: __ZN5godot6ObjectD0Ev.cold.1, symObjAddr: 0x3BB8, symBinAddr: 0xFDB68, symSize: 0x1C }
  - { offset: 0xBD490, size: 0x8, addend: 0x0, symName: __ZN5godot6ObjectD0Ev.cold.1, symObjAddr: 0x3BB8, symBinAddr: 0xFDB68, symSize: 0x1C }
  - { offset: 0xBD4A4, size: 0x8, addend: 0x0, symName: __ZN5godot6ObjectD0Ev.cold.1, symObjAddr: 0x3BB8, symBinAddr: 0xFDB68, symSize: 0x1C }
  - { offset: 0xBD4B9, size: 0x8, addend: 0x0, symName: __ZN5godot6ObjectD0Ev.cold.1, symObjAddr: 0x3BB8, symBinAddr: 0xFDB68, symSize: 0x1C }
  - { offset: 0xBD4D0, size: 0x8, addend: 0x0, symName: __ZN5godot7WrappedD1Ev.cold.1, symObjAddr: 0x3BD4, symBinAddr: 0xFDB84, symSize: 0x1C }
  - { offset: 0xBD4EB, size: 0x8, addend: 0x0, symName: __ZN5godot7WrappedD1Ev.cold.1, symObjAddr: 0x3BD4, symBinAddr: 0xFDB84, symSize: 0x1C }
  - { offset: 0xBD4FF, size: 0x8, addend: 0x0, symName: __ZN5godot7WrappedD1Ev.cold.1, symObjAddr: 0x3BD4, symBinAddr: 0xFDB84, symSize: 0x1C }
  - { offset: 0xBD514, size: 0x8, addend: 0x0, symName: __ZN5godot7WrappedD1Ev.cold.1, symObjAddr: 0x3BD4, symBinAddr: 0xFDB84, symSize: 0x1C }
  - { offset: 0xBD543, size: 0x8, addend: 0x0, symName: __ZN5godot7WrappedD0Ev.cold.1, symObjAddr: 0x3BF0, symBinAddr: 0xFDBA0, symSize: 0x1C }
  - { offset: 0xBD55E, size: 0x8, addend: 0x0, symName: __ZN5godot7WrappedD0Ev.cold.1, symObjAddr: 0x3BF0, symBinAddr: 0xFDBA0, symSize: 0x1C }
  - { offset: 0xBD572, size: 0x8, addend: 0x0, symName: __ZN5godot7WrappedD0Ev.cold.1, symObjAddr: 0x3BF0, symBinAddr: 0xFDBA0, symSize: 0x1C }
  - { offset: 0xBD586, size: 0x8, addend: 0x0, symName: __ZN5godot7WrappedD0Ev.cold.1, symObjAddr: 0x3BF0, symBinAddr: 0xFDBA0, symSize: 0x1C }
  - { offset: 0xBD59B, size: 0x8, addend: 0x0, symName: __ZN5godot7WrappedD0Ev.cold.1, symObjAddr: 0x3BF0, symBinAddr: 0xFDBA0, symSize: 0x1C }
  - { offset: 0xBD5B1, size: 0x8, addend: 0x0, symName: __ZN5godot4ListINS_12PropertyInfoENS_16DefaultAllocatorEE5_Data5eraseEPNS3_7ElementE.cold.2, symObjAddr: 0x3C2C, symBinAddr: 0xFDBDC, symSize: 0x20 }
  - { offset: 0xBD5C9, size: 0x8, addend: 0x0, symName: __ZN5godot4ListINS_12PropertyInfoENS_16DefaultAllocatorEE5_Data5eraseEPNS3_7ElementE.cold.1, symObjAddr: 0x3C0C, symBinAddr: 0xFDBBC, symSize: 0x20 }
  - { offset: 0xBD5E1, size: 0x8, addend: 0x0, symName: __ZN6sentry16SentryAttachmentD2Ev.cold.1, symObjAddr: 0x3C4C, symBinAddr: 0xFDBFC, symSize: 0x1C }
  - { offset: 0xBD5FC, size: 0x8, addend: 0x0, symName: __ZN6sentry16SentryAttachmentD2Ev.cold.1, symObjAddr: 0x3C4C, symBinAddr: 0xFDBFC, symSize: 0x1C }
  - { offset: 0xBD610, size: 0x8, addend: 0x0, symName: __ZN6sentry16SentryAttachmentD2Ev.cold.1, symObjAddr: 0x3C4C, symBinAddr: 0xFDBFC, symSize: 0x1C }
  - { offset: 0xBD624, size: 0x8, addend: 0x0, symName: __ZN6sentry16SentryAttachmentD2Ev.cold.1, symObjAddr: 0x3C4C, symBinAddr: 0xFDBFC, symSize: 0x1C }
  - { offset: 0xBD638, size: 0x8, addend: 0x0, symName: __ZN6sentry16SentryAttachmentD2Ev.cold.1, symObjAddr: 0x3C4C, symBinAddr: 0xFDBFC, symSize: 0x1C }
  - { offset: 0xBD64D, size: 0x8, addend: 0x0, symName: __ZN6sentry16SentryAttachmentD2Ev.cold.1, symObjAddr: 0x3C4C, symBinAddr: 0xFDBFC, symSize: 0x1C }
  - { offset: 0xBD66B, size: 0x8, addend: 0x0, symName: __ZN5godot8internal23EngineClassRegistrationINS_6ObjectEE8callbackEv.cold.1, symObjAddr: 0x3C68, symBinAddr: 0xFDC18, symSize: 0x5C }
  - { offset: 0xBD6A0, size: 0x8, addend: 0x0, symName: __ZN5godot8internal23EngineClassRegistrationINS_16ClassDBSingletonEE8callbackEv.cold.1, symObjAddr: 0x3CC4, symBinAddr: 0xFDC74, symSize: 0x5C }
  - { offset: 0xBD6D5, size: 0x8, addend: 0x0, symName: __ZN5godot8internal23EngineClassRegistrationINS_10RefCountedEE8callbackEv.cold.1, symObjAddr: 0x3D20, symBinAddr: 0xFDCD0, symSize: 0x5C }
  - { offset: 0xBD70A, size: 0x8, addend: 0x0, symName: __ZN5godot8internal23EngineClassRegistrationINS_15ProjectSettingsEE8callbackEv.cold.1, symObjAddr: 0x3D7C, symBinAddr: 0xFDD2C, symSize: 0x5C }
  - { offset: 0xBD738, size: 0x8, addend: 0x0, symName: __ZNK5godot13MethodBindTRSINS_3RefIN6sentry16SentryAttachmentEEEJRKNS_6StringEEE17gen_argument_typeEi, symObjAddr: 0x1C40, symBinAddr: 0x180C4, symSize: 0x14 }
  - { offset: 0xBD7AE, size: 0x8, addend: 0x0, symName: __ZNK5godot13MethodBindTRSINS_3RefIN6sentry16SentryAttachmentEEEJRKNS_6StringEEE22gen_argument_type_infoEi, symObjAddr: 0x1C54, symBinAddr: 0x180D8, symSize: 0x68 }
  - { offset: 0xBD8A7, size: 0x8, addend: 0x0, symName: __ZN5godot11GetTypeInfoINS_3RefIN6sentry16SentryAttachmentEEEvE14get_class_infoEv, symObjAddr: 0x1D48, symBinAddr: 0x181CC, symSize: 0x12C }
  - { offset: 0xBD94F, size: 0x8, addend: 0x0, symName: __ZNK5godot13MethodBindTRSINS_3RefIN6sentry16SentryAttachmentEEEJRKNS_6StringEEE21get_argument_metadataEi, symObjAddr: 0x1CBC, symBinAddr: 0x18140, symSize: 0x8 }
  - { offset: 0xBD9A0, size: 0x8, addend: 0x0, symName: __ZNK5godot13MethodBindTRSINS_3RefIN6sentry16SentryAttachmentEEEJRKNS_6StringEEE4callEPvPKPKvxR20GDExtensionCallError, symObjAddr: 0x1CC4, symBinAddr: 0x18148, symSize: 0x5C }
  - { offset: 0xBDA48, size: 0x8, addend: 0x0, symName: __ZNK5godot13MethodBindTRSINS_3RefIN6sentry16SentryAttachmentEEEJRKNS_6StringEEE7ptrcallEPvPKPKvS9_, symObjAddr: 0x1D20, symBinAddr: 0x181A4, symSize: 0x10 }
  - { offset: 0xBDB08, size: 0x8, addend: 0x0, symName: __ZN5godot13MethodBindTRSINS_3RefIN6sentry16SentryAttachmentEEEJRKNS_6StringEEED1Ev, symObjAddr: 0x1D30, symBinAddr: 0x181B4, symSize: 0x4 }
  - { offset: 0xBDB2B, size: 0x8, addend: 0x0, symName: __ZN5godot13MethodBindTRSINS_3RefIN6sentry16SentryAttachmentEEEJRKNS_6StringEEED1Ev, symObjAddr: 0x1D30, symBinAddr: 0x181B4, symSize: 0x4 }
  - { offset: 0xBDB63, size: 0x8, addend: 0x0, symName: __ZN5godot13MethodBindTRSINS_3RefIN6sentry16SentryAttachmentEEEJRKNS_6StringEEED0Ev, symObjAddr: 0x1D34, symBinAddr: 0x181B8, symSize: 0x14 }
  - { offset: 0xBDBCB, size: 0x8, addend: 0x0, symName: __ZN5godot11GetTypeInfoINS_3RefIN6sentry16SentryAttachmentEEEvE14get_class_infoEv.cold.1, symObjAddr: 0x3DD8, symBinAddr: 0xFDD88, symSize: 0x58 }
  - { offset: 0xBDD2C, size: 0x8, addend: 0x0, symName: __ZN5godot43call_with_ptr_args_static_method_ret_helperINS_3RefIN6sentry16SentryAttachmentEEEJRKNS_6StringEEJLm0EEEEvPFT_DpT0_EPKPKvPvNS_13IndexSequenceIJXspT1_EEEE.cold.1, symObjAddr: 0x3E30, symBinAddr: 0xFDDE0, symSize: 0x2C }
  - { offset: 0xBDD5B, size: 0x8, addend: 0x0, symName: __ZNK5godot13MethodBindTRSINS_3RefIN6sentry16SentryAttachmentEEEJRKNS_15PackedByteArrayERKNS_6StringEEE17gen_argument_typeEi, symObjAddr: 0x2284, symBinAddr: 0x18708, symSize: 0x28 }
  - { offset: 0xBDD9D, size: 0x8, addend: 0x0, symName: __ZNK5godot13MethodBindTRSINS_3RefIN6sentry16SentryAttachmentEEEJRKNS_15PackedByteArrayERKNS_6StringEEE22gen_argument_type_infoEi, symObjAddr: 0x22AC, symBinAddr: 0x18730, symSize: 0x80 }
  - { offset: 0xBDEB8, size: 0x8, addend: 0x0, symName: __ZNK5godot13MethodBindTRSINS_3RefIN6sentry16SentryAttachmentEEEJRKNS_15PackedByteArrayERKNS_6StringEEE21get_argument_metadataEi, symObjAddr: 0x232C, symBinAddr: 0x187B0, symSize: 0x8 }
  - { offset: 0xBDEEE, size: 0x8, addend: 0x0, symName: __ZNK5godot13MethodBindTRSINS_3RefIN6sentry16SentryAttachmentEEEJRKNS_15PackedByteArrayERKNS_6StringEEE4callEPvPKPKvxR20GDExtensionCallError, symObjAddr: 0x2334, symBinAddr: 0x187B8, symSize: 0x5C }
  - { offset: 0xBDF96, size: 0x8, addend: 0x0, symName: __ZNK5godot13MethodBindTRSINS_3RefIN6sentry16SentryAttachmentEEEJRKNS_15PackedByteArrayERKNS_6StringEEE7ptrcallEPvPKPKvSC_, symObjAddr: 0x2390, symBinAddr: 0x18814, symSize: 0x10 }
  - { offset: 0xBE056, size: 0x8, addend: 0x0, symName: __ZN5godot13MethodBindTRSINS_3RefIN6sentry16SentryAttachmentEEEJRKNS_15PackedByteArrayERKNS_6StringEEED1Ev, symObjAddr: 0x23A0, symBinAddr: 0x18824, symSize: 0x4 }
  - { offset: 0xBE079, size: 0x8, addend: 0x0, symName: __ZN5godot13MethodBindTRSINS_3RefIN6sentry16SentryAttachmentEEEJRKNS_15PackedByteArrayERKNS_6StringEEED1Ev, symObjAddr: 0x23A0, symBinAddr: 0x18824, symSize: 0x4 }
  - { offset: 0xBE0B1, size: 0x8, addend: 0x0, symName: __ZN5godot13MethodBindTRSINS_3RefIN6sentry16SentryAttachmentEEEJRKNS_15PackedByteArrayERKNS_6StringEEED0Ev, symObjAddr: 0x23A4, symBinAddr: 0x18828, symSize: 0x14 }
  - { offset: 0xBE146, size: 0x8, addend: 0x0, symName: __ZN5godot43call_with_ptr_args_static_method_ret_helperINS_3RefIN6sentry16SentryAttachmentEEEJRKNS_15PackedByteArrayERKNS_6StringEEJLm0ELm1EEEEvPFT_DpT0_EPKPKvPvNS_13IndexSequenceIJXspT1_EEEE.cold.1, symObjAddr: 0x3E5C, symBinAddr: 0xFDE0C, symSize: 0x2C }
  - { offset: 0xBE175, size: 0x8, addend: 0x0, symName: __ZNK6sentry16SentryAttachment9get_bytesEv, symObjAddr: 0x2874, symBinAddr: 0x18CF8, symSize: 0xC }
  - { offset: 0xBE1FE, size: 0x8, addend: 0x0, symName: __ZN5godot18create_method_bindIN6sentry16SentryAttachmentEJRKNS_15PackedByteArrayEEEEPNS_10MethodBindEMT_FvDpT0_E.cold.1, symObjAddr: 0x3E88, symBinAddr: 0xFDE38, symSize: 0x5C }
  - { offset: 0xBE22D, size: 0x8, addend: 0x0, symName: __ZNK5godot11MethodBindTIJRKNS_15PackedByteArrayEEE17gen_argument_typeEi, symObjAddr: 0x2994, symBinAddr: 0x18E18, symSize: 0x10 }
  - { offset: 0xBE263, size: 0x8, addend: 0x0, symName: __ZNK5godot11MethodBindTIJRKNS_15PackedByteArrayEEE22gen_argument_type_infoEi, symObjAddr: 0x29A4, symBinAddr: 0x18E28, symSize: 0x138 }
  - { offset: 0xBE39C, size: 0x8, addend: 0x0, symName: __ZNK5godot11MethodBindTIJRKNS_15PackedByteArrayEEE21get_argument_metadataEi, symObjAddr: 0x2ADC, symBinAddr: 0x18F60, symSize: 0x8 }
  - { offset: 0xBE3D2, size: 0x8, addend: 0x0, symName: __ZNK5godot11MethodBindTIJRKNS_15PackedByteArrayEEE4callEPvPKPKvxR20GDExtensionCallError, symObjAddr: 0x2AE4, symBinAddr: 0x18F68, symSize: 0x40 }
  - { offset: 0xBE47F, size: 0x8, addend: 0x0, symName: __ZNK5godot11MethodBindTIJRKNS_15PackedByteArrayEEE7ptrcallEPvPKPKvS5_, symObjAddr: 0x2B24, symBinAddr: 0x18FA8, symSize: 0x80 }
  - { offset: 0xBE578, size: 0x8, addend: 0x0, symName: __ZN5godot11MethodBindTIJRKNS_15PackedByteArrayEEED1Ev, symObjAddr: 0x2BA4, symBinAddr: 0x19028, symSize: 0x4 }
  - { offset: 0xBE59B, size: 0x8, addend: 0x0, symName: __ZN5godot11MethodBindTIJRKNS_15PackedByteArrayEEED1Ev, symObjAddr: 0x2BA4, symBinAddr: 0x19028, symSize: 0x4 }
  - { offset: 0xBE5D3, size: 0x8, addend: 0x0, symName: __ZN5godot11MethodBindTIJRKNS_15PackedByteArrayEEED0Ev, symObjAddr: 0x2BA8, symBinAddr: 0x1902C, symSize: 0x14 }
  - { offset: 0xBE69D, size: 0x8, addend: 0x0, symName: __ZN5godot18create_method_bindIN6sentry16SentryAttachmentENS_15PackedByteArrayEJEEEPNS_10MethodBindEMT_KFT0_DpT1_E.cold.1, symObjAddr: 0x3EE4, symBinAddr: 0xFDE94, symSize: 0x5C }
  - { offset: 0xBE6CC, size: 0x8, addend: 0x0, symName: __ZNK5godot13MethodBindTRCINS_15PackedByteArrayEJEE17gen_argument_typeEi, symObjAddr: 0x2E1C, symBinAddr: 0x192A0, symSize: 0x8 }
  - { offset: 0xBE709, size: 0x8, addend: 0x0, symName: __ZNK5godot13MethodBindTRCINS_15PackedByteArrayEJEE22gen_argument_type_infoEi, symObjAddr: 0x2E24, symBinAddr: 0x192A8, symSize: 0xF8 }
  - { offset: 0xBE7CC, size: 0x8, addend: 0x0, symName: __ZNK5godot13MethodBindTRCINS_15PackedByteArrayEJEE21get_argument_metadataEi, symObjAddr: 0x2F1C, symBinAddr: 0x193A0, symSize: 0x8 }
  - { offset: 0xBE847, size: 0x8, addend: 0x0, symName: __ZNK5godot13MethodBindTRCINS_15PackedByteArrayEJEE4callEPvPKPKvxR20GDExtensionCallError, symObjAddr: 0x2F24, symBinAddr: 0x193A8, symSize: 0xCC }
  - { offset: 0xBE964, size: 0x8, addend: 0x0, symName: __ZNK5godot13MethodBindTRCINS_15PackedByteArrayEJEE7ptrcallEPvPKPKvS3_, symObjAddr: 0x2FF0, symBinAddr: 0x19474, symSize: 0x80 }
  - { offset: 0xBEA58, size: 0x8, addend: 0x0, symName: __ZN5godot13MethodBindTRCINS_15PackedByteArrayEJEED1Ev, symObjAddr: 0x3070, symBinAddr: 0x194F4, symSize: 0x4 }
  - { offset: 0xBEA7B, size: 0x8, addend: 0x0, symName: __ZN5godot13MethodBindTRCINS_15PackedByteArrayEJEED1Ev, symObjAddr: 0x3070, symBinAddr: 0x194F4, symSize: 0x4 }
  - { offset: 0xBEAB3, size: 0x8, addend: 0x0, symName: __ZN5godot13MethodBindTRCINS_15PackedByteArrayEJEED0Ev, symObjAddr: 0x3074, symBinAddr: 0x194F8, symSize: 0x14 }
  - { offset: 0xBEB1B, size: 0x8, addend: 0x0, symName: __ZNK6sentry16SentryAttachment8get_pathEv, symObjAddr: 0x3088, symBinAddr: 0x1950C, symSize: 0xC }
  - { offset: 0xBEBA4, size: 0x8, addend: 0x0, symName: __ZN5godot18create_method_bindIN6sentry16SentryAttachmentEJRKNS_6StringEEEEPNS_10MethodBindEMT_FvDpT0_E.cold.1, symObjAddr: 0x3F40, symBinAddr: 0xFDEF0, symSize: 0x5C }
  - { offset: 0xBEBD3, size: 0x8, addend: 0x0, symName: __ZNK5godot11MethodBindTIJRKNS_6StringEEE17gen_argument_typeEi, symObjAddr: 0x31A8, symBinAddr: 0x1962C, symSize: 0x10 }
  - { offset: 0xBEC09, size: 0x8, addend: 0x0, symName: __ZNK5godot11MethodBindTIJRKNS_6StringEEE22gen_argument_type_infoEi, symObjAddr: 0x31B8, symBinAddr: 0x1963C, symSize: 0x138 }
  - { offset: 0xBED42, size: 0x8, addend: 0x0, symName: __ZNK5godot11MethodBindTIJRKNS_6StringEEE21get_argument_metadataEi, symObjAddr: 0x32F0, symBinAddr: 0x19774, symSize: 0x8 }
  - { offset: 0xBED78, size: 0x8, addend: 0x0, symName: __ZNK5godot11MethodBindTIJRKNS_6StringEEE4callEPvPKPKvxR20GDExtensionCallError, symObjAddr: 0x32F8, symBinAddr: 0x1977C, symSize: 0x40 }
  - { offset: 0xBEE25, size: 0x8, addend: 0x0, symName: __ZNK5godot11MethodBindTIJRKNS_6StringEEE7ptrcallEPvPKPKvS5_, symObjAddr: 0x3338, symBinAddr: 0x197BC, symSize: 0x80 }
  - { offset: 0xBEF1E, size: 0x8, addend: 0x0, symName: __ZN5godot11MethodBindTIJRKNS_6StringEEED1Ev, symObjAddr: 0x33B8, symBinAddr: 0x1983C, symSize: 0x4 }
  - { offset: 0xBEF41, size: 0x8, addend: 0x0, symName: __ZN5godot11MethodBindTIJRKNS_6StringEEED1Ev, symObjAddr: 0x33B8, symBinAddr: 0x1983C, symSize: 0x4 }
  - { offset: 0xBEF79, size: 0x8, addend: 0x0, symName: __ZN5godot11MethodBindTIJRKNS_6StringEEED0Ev, symObjAddr: 0x33BC, symBinAddr: 0x19840, symSize: 0x14 }
  - { offset: 0xBF043, size: 0x8, addend: 0x0, symName: __ZN5godot18create_method_bindIN6sentry16SentryAttachmentENS_6StringEJEEEPNS_10MethodBindEMT_KFT0_DpT1_E.cold.1, symObjAddr: 0x3F9C, symBinAddr: 0xFDF4C, symSize: 0x5C }
  - { offset: 0xBF072, size: 0x8, addend: 0x0, symName: __ZNK5godot13MethodBindTRCINS_6StringEJEE17gen_argument_typeEi, symObjAddr: 0x3630, symBinAddr: 0x19AB4, symSize: 0x8 }
  - { offset: 0xBF0AF, size: 0x8, addend: 0x0, symName: __ZNK5godot13MethodBindTRCINS_6StringEJEE22gen_argument_type_infoEi, symObjAddr: 0x3638, symBinAddr: 0x19ABC, symSize: 0xF8 }
  - { offset: 0xBF172, size: 0x8, addend: 0x0, symName: __ZNK5godot13MethodBindTRCINS_6StringEJEE21get_argument_metadataEi, symObjAddr: 0x3730, symBinAddr: 0x19BB4, symSize: 0x8 }
  - { offset: 0xBF1A8, size: 0x8, addend: 0x0, symName: __ZNK5godot13MethodBindTRCINS_6StringEJEE4callEPvPKPKvxR20GDExtensionCallError, symObjAddr: 0x3738, symBinAddr: 0x19BBC, symSize: 0xCC }
  - { offset: 0xBF2C5, size: 0x8, addend: 0x0, symName: __ZNK5godot13MethodBindTRCINS_6StringEJEE7ptrcallEPvPKPKvS3_, symObjAddr: 0x3804, symBinAddr: 0x19C88, symSize: 0x80 }
  - { offset: 0xBF3B9, size: 0x8, addend: 0x0, symName: __ZN5godot13MethodBindTRCINS_6StringEJEED1Ev, symObjAddr: 0x3884, symBinAddr: 0x19D08, symSize: 0x4 }
  - { offset: 0xBF3DC, size: 0x8, addend: 0x0, symName: __ZN5godot13MethodBindTRCINS_6StringEJEED1Ev, symObjAddr: 0x3884, symBinAddr: 0x19D08, symSize: 0x4 }
  - { offset: 0xBF414, size: 0x8, addend: 0x0, symName: __ZN5godot13MethodBindTRCINS_6StringEJEED0Ev, symObjAddr: 0x3888, symBinAddr: 0x19D0C, symSize: 0x14 }
  - { offset: 0xBF47C, size: 0x8, addend: 0x0, symName: __ZN6sentry16SentryAttachment12set_filenameERKN5godot6StringE, symObjAddr: 0x389C, symBinAddr: 0x19D20, symSize: 0x8 }
  - { offset: 0xBF4B1, size: 0x8, addend: 0x0, symName: __ZNK6sentry16SentryAttachment12get_filenameEv, symObjAddr: 0x38A4, symBinAddr: 0x19D28, symSize: 0xC }
  - { offset: 0xBF4D8, size: 0x8, addend: 0x0, symName: __ZN6sentry16SentryAttachment16set_content_typeERKN5godot6StringE, symObjAddr: 0x38B0, symBinAddr: 0x19D34, symSize: 0x8 }
  - { offset: 0xBF50D, size: 0x8, addend: 0x0, symName: __ZNK6sentry16SentryAttachment16get_content_typeEv, symObjAddr: 0x38B8, symBinAddr: 0x19D3C, symSize: 0xC }
  - { offset: 0xBF568, size: 0x8, addend: 0x0, symName: _OUTLINED_FUNCTION_0, symObjAddr: 0x3FF8, symBinAddr: 0x19D48, symSize: 0x10 }
  - { offset: 0xBF580, size: 0x8, addend: 0x0, symName: _OUTLINED_FUNCTION_1, symObjAddr: 0x4008, symBinAddr: 0x19D58, symSize: 0xC }
  - { offset: 0xBF598, size: 0x8, addend: 0x0, symName: _OUTLINED_FUNCTION_2, symObjAddr: 0x4014, symBinAddr: 0x19D64, symSize: 0x8 }
  - { offset: 0xBF5B0, size: 0x8, addend: 0x0, symName: _OUTLINED_FUNCTION_3, symObjAddr: 0x401C, symBinAddr: 0x19D6C, symSize: 0x8 }
  - { offset: 0xBF5C8, size: 0x8, addend: 0x0, symName: _OUTLINED_FUNCTION_4, symObjAddr: 0x4024, symBinAddr: 0x19D74, symSize: 0xC }
  - { offset: 0xBF5E0, size: 0x8, addend: 0x0, symName: _OUTLINED_FUNCTION_5, symObjAddr: 0x4030, symBinAddr: 0x19D80, symSize: 0x8 }
  - { offset: 0xBF5F8, size: 0x8, addend: 0x0, symName: _OUTLINED_FUNCTION_6, symObjAddr: 0x4038, symBinAddr: 0x19D88, symSize: 0x8 }
  - { offset: 0xBF610, size: 0x8, addend: 0x0, symName: _OUTLINED_FUNCTION_7, symObjAddr: 0x4040, symBinAddr: 0x19D90, symSize: 0x10 }
  - { offset: 0xBF628, size: 0x8, addend: 0x0, symName: _OUTLINED_FUNCTION_8, symObjAddr: 0x4050, symBinAddr: 0x19DA0, symSize: 0xC }
  - { offset: 0xC58AF, size: 0x8, addend: 0x0, symName: __ZN5godot18create_method_bindIN6sentry16SentryBreadcrumbEJRKNS_6StringEEEEPNS_10MethodBindEMT_FvDpT0_E, symObjAddr: 0x217C, symBinAddr: 0x1B278, symSize: 0x114 }
  - { offset: 0xC59F7, size: 0x8, addend: 0x0, symName: __ZN5godot18create_method_bindIN6sentry16SentryBreadcrumbENS_6StringEJEEEPNS_10MethodBindEMT_KFT0_DpT1_E, symObjAddr: 0x25EC, symBinAddr: 0x1B38C, symSize: 0x12C }
  - { offset: 0xC5B2D, size: 0x8, addend: 0x0, symName: __ZN5godot18create_method_bindIN6sentry16SentryBreadcrumbEJNS1_5LevelEEEEPNS_10MethodBindEMT_FvDpT0_E, symObjAddr: 0x2984, symBinAddr: 0x1B4B8, symSize: 0x114 }
  - { offset: 0xC5C60, size: 0x8, addend: 0x0, symName: __ZN5godot18create_method_bindIN6sentry16SentryBreadcrumbENS1_5LevelEJEEEPNS_10MethodBindEMT_KFT0_DpT1_E, symObjAddr: 0x3094, symBinAddr: 0x1BBC8, symSize: 0x12C }
  - { offset: 0xC5D96, size: 0x8, addend: 0x0, symName: __ZN5godot18create_method_bindIN6sentry16SentryBreadcrumbEJRKNS_10DictionaryEEEEPNS_10MethodBindEMT_FvDpT0_E, symObjAddr: 0x32E8, symBinAddr: 0x1BE1C, symSize: 0x114 }
  - { offset: 0xC5EC9, size: 0x8, addend: 0x0, symName: __ZN5godot18create_method_bindIN6sentry16SentryBreadcrumbENS_3RefINS1_15SentryTimestampEEEJEEEPNS_10MethodBindEMT_FT0_DpT1_E, symObjAddr: 0x38CC, symBinAddr: 0x1C400, symSize: 0x120 }
  - { offset: 0xC6294, size: 0x8, addend: 0x0, symName: __ZN5godot36call_with_variant_args_static_ret_dvINS_3RefIN6sentry16SentryBreadcrumbEEEJRKNS_6StringEEEEvPFT_DpT0_EPKPKviRNS_7VariantER20GDExtensionCallErrorRKNSt3__16vectorISH_NSL_9allocatorISH_EEEE, symObjAddr: 0x1EE0, symBinAddr: 0x1AFDC, symSize: 0x104 }
  - { offset: 0xC6426, size: 0x8, addend: 0x0, symName: __ZN5godot43call_with_ptr_args_static_method_ret_helperINS_3RefIN6sentry16SentryBreadcrumbEEEJRKNS_6StringEEJLm0EEEEvPFT_DpT0_EPKPKvPvNS_13IndexSequenceIJXspT1_EEEE, symObjAddr: 0x20A8, symBinAddr: 0x1B1A4, symSize: 0xD4 }
  - { offset: 0xC6606, size: 0x8, addend: 0x0, symName: __ZN5godot33call_with_variant_args_static_retINS_3RefIN6sentry16SentryBreadcrumbEEEJRKNS_6StringEEJLm0EEEEvPFT_DpT0_EPPKNS_7VariantERSD_R20GDExtensionCallErrorNS_13IndexSequenceIJXspT1_EEEE, symObjAddr: 0x1FE4, symBinAddr: 0x1B0E0, symSize: 0xC4 }
  - { offset: 0xC6B86, size: 0x8, addend: 0x0, symName: __ZN5godot34call_get_argument_type_info_helperIN6sentry5LevelEEEviRiRNS_12PropertyInfoE, symObjAddr: 0x2C60, symBinAddr: 0x1B794, symSize: 0xD4 }
  - { offset: 0xC6C3E, size: 0x8, addend: 0x0, symName: __ZN5godot25call_with_variant_args_dvINS_20_gde_UnexistingClassEJN6sentry5LevelEEEEvPT_MS4_FvDpT0_EPKPKviR20GDExtensionCallErrorRKNSt3__16vectorINS_7VariantENSG_9allocatorISI_EEEE, symObjAddr: 0x2F6C, symBinAddr: 0x1BAA0, symSize: 0x128 }
  - { offset: 0xC6E91, size: 0x8, addend: 0x0, symName: __ZN5godot38enum_qualified_name_to_class_info_nameERKNS_6StringE, symObjAddr: 0x2E5C, symBinAddr: 0x1B990, symSize: 0x110 }
  - { offset: 0xC73D7, size: 0x8, addend: 0x0, symName: __ZN5godot34call_get_argument_type_info_helperIRKNS_10DictionaryEEEviRiRNS_12PropertyInfoE, symObjAddr: 0x3624, symBinAddr: 0x1C158, symSize: 0x174 }
  - { offset: 0xC74FA, size: 0x8, addend: 0x0, symName: __ZN5godot25call_with_variant_args_dvINS_20_gde_UnexistingClassEJRKNS_10DictionaryEEEEvPT_MS5_FvDpT0_EPKPKviR20GDExtensionCallErrorRKNSt3__16vectorINS_7VariantENSH_9allocatorISJ_EEEE, symObjAddr: 0x3798, symBinAddr: 0x1C2CC, symSize: 0x134 }
  - { offset: 0xC7903, size: 0x8, addend: 0x0, symName: __ZN5godot29call_with_variant_args_ret_dvINS_20_gde_UnexistingClassENS_3RefIN6sentry15SentryTimestampEEEJEEEvPT_MS6_FT0_DpT1_EPKPKviRNS_7VariantER20GDExtensionCallErrorRKNSt3__16vectorISH_NSL_9allocatorISH_EEEE, symObjAddr: 0x3C44, symBinAddr: 0x1C778, symSize: 0xE4 }
  - { offset: 0xD5913, size: 0x8, addend: 0x0, symName: ___cxx_global_var_init, symObjAddr: 0x4664, symBinAddr: 0x1C8B0, symSize: 0x4C }
  - { offset: 0xD5998, size: 0x8, addend: 0x0, symName: ___cxx_global_var_init.1, symObjAddr: 0x46B0, symBinAddr: 0x1C8FC, symSize: 0x4C }
  - { offset: 0xD5A1D, size: 0x8, addend: 0x0, symName: ___cxx_global_var_init.2, symObjAddr: 0x46FC, symBinAddr: 0x1C948, symSize: 0x4C }
  - { offset: 0xD5AA2, size: 0x8, addend: 0x0, symName: ___cxx_global_var_init.3, symObjAddr: 0x4748, symBinAddr: 0x1C994, symSize: 0x4C }
  - { offset: 0xD5B27, size: 0x8, addend: 0x0, symName: ___cxx_global_var_init.4, symObjAddr: 0x4794, symBinAddr: 0x1C9E0, symSize: 0x4C }
  - { offset: 0xD5BAC, size: 0x8, addend: 0x0, symName: ___cxx_global_var_init.5, symObjAddr: 0x47E0, symBinAddr: 0x1CA2C, symSize: 0x4C }
  - { offset: 0xD5C31, size: 0x8, addend: 0x0, symName: ___cxx_global_var_init.6, symObjAddr: 0x482C, symBinAddr: 0x1CA78, symSize: 0x4C }
  - { offset: 0xD5CD5, size: 0x8, addend: 0x0, symName: __ZN6sentry16SentryBreadcrumb6createERKN5godot6StringE, symObjAddr: 0x0, symBinAddr: 0x19EDC, symSize: 0x80 }
  - { offset: 0xD5DB9, size: 0x8, addend: 0x0, symName: __ZN6sentry16SentryBreadcrumb6createERKN5godot6StringE.cold.1, symObjAddr: 0x3D28, symBinAddr: 0xFDFA8, symSize: 0x3C }
  - { offset: 0xD6437, size: 0x8, addend: 0x0, symName: __ZN6sentry16SentryBreadcrumb13_bind_methodsEv, symObjAddr: 0x80, symBinAddr: 0x19F5C, symSize: 0xCEC }
  - { offset: 0xD869C, size: 0x8, addend: 0x0, symName: __ZN5godot7ClassDB18bind_static_methodINS_16MethodDefinitionEPFNS_3RefIN6sentry16SentryBreadcrumbEEERKNS_6StringEEJS7_EEEPNS_10MethodBindENS_10StringNameET_T0_DpT1_, symObjAddr: 0xD6C, symBinAddr: 0x1AC48, symSize: 0x160 }
  - { offset: 0xD8843, size: 0x8, addend: 0x0, symName: __ZN6sentry16SentryBreadcrumb13_bind_methodsEv.cold.1, symObjAddr: 0x3D64, symBinAddr: 0xFDFE4, symSize: 0x58 }
  - { offset: 0xD8871, size: 0x8, addend: 0x0, symName: __ZN6sentry16SentryBreadcrumb13_bind_methodsEv.cold.2, symObjAddr: 0x3DBC, symBinAddr: 0xFE03C, symSize: 0x58 }
  - { offset: 0xD889F, size: 0x8, addend: 0x0, symName: __ZN6sentry16SentryBreadcrumb13_bind_methodsEv.cold.3, symObjAddr: 0x3E14, symBinAddr: 0xFE094, symSize: 0x58 }
  - { offset: 0xD88CD, size: 0x8, addend: 0x0, symName: __ZN6sentry16SentryBreadcrumb13_bind_methodsEv.cold.4, symObjAddr: 0x3E6C, symBinAddr: 0xFE0EC, symSize: 0x58 }
  - { offset: 0xD89FB, size: 0x8, addend: 0x0, symName: __ZN5godot8internal23EngineClassRegistrationINS_6ObjectEE8callbackEv.cold.1, symObjAddr: 0x3EC4, symBinAddr: 0xFE144, symSize: 0x5C }
  - { offset: 0xD8A96, size: 0x8, addend: 0x0, symName: __ZN5godot6ObjectD1Ev.cold.1, symObjAddr: 0x3F20, symBinAddr: 0xFE1A0, symSize: 0x1C }
  - { offset: 0xD8AB1, size: 0x8, addend: 0x0, symName: __ZN5godot6ObjectD1Ev.cold.1, symObjAddr: 0x3F20, symBinAddr: 0xFE1A0, symSize: 0x1C }
  - { offset: 0xD8AC5, size: 0x8, addend: 0x0, symName: __ZN5godot6ObjectD1Ev.cold.1, symObjAddr: 0x3F20, symBinAddr: 0xFE1A0, symSize: 0x1C }
  - { offset: 0xD8AD9, size: 0x8, addend: 0x0, symName: __ZN5godot6ObjectD1Ev.cold.1, symObjAddr: 0x3F20, symBinAddr: 0xFE1A0, symSize: 0x1C }
  - { offset: 0xD8AEE, size: 0x8, addend: 0x0, symName: __ZN5godot6ObjectD1Ev.cold.1, symObjAddr: 0x3F20, symBinAddr: 0xFE1A0, symSize: 0x1C }
  - { offset: 0xD8B1E, size: 0x8, addend: 0x0, symName: __ZN5godot6ObjectD0Ev.cold.1, symObjAddr: 0x3F3C, symBinAddr: 0xFE1BC, symSize: 0x1C }
  - { offset: 0xD8B39, size: 0x8, addend: 0x0, symName: __ZN5godot6ObjectD0Ev.cold.1, symObjAddr: 0x3F3C, symBinAddr: 0xFE1BC, symSize: 0x1C }
  - { offset: 0xD8B4D, size: 0x8, addend: 0x0, symName: __ZN5godot6ObjectD0Ev.cold.1, symObjAddr: 0x3F3C, symBinAddr: 0xFE1BC, symSize: 0x1C }
  - { offset: 0xD8B61, size: 0x8, addend: 0x0, symName: __ZN5godot6ObjectD0Ev.cold.1, symObjAddr: 0x3F3C, symBinAddr: 0xFE1BC, symSize: 0x1C }
  - { offset: 0xD8B75, size: 0x8, addend: 0x0, symName: __ZN5godot6ObjectD0Ev.cold.1, symObjAddr: 0x3F3C, symBinAddr: 0xFE1BC, symSize: 0x1C }
  - { offset: 0xD8B8A, size: 0x8, addend: 0x0, symName: __ZN5godot6ObjectD0Ev.cold.1, symObjAddr: 0x3F3C, symBinAddr: 0xFE1BC, symSize: 0x1C }
  - { offset: 0xD8BA1, size: 0x8, addend: 0x0, symName: __ZN5godot7WrappedD1Ev.cold.1, symObjAddr: 0x3F58, symBinAddr: 0xFE1D8, symSize: 0x1C }
  - { offset: 0xD8BBC, size: 0x8, addend: 0x0, symName: __ZN5godot7WrappedD1Ev.cold.1, symObjAddr: 0x3F58, symBinAddr: 0xFE1D8, symSize: 0x1C }
  - { offset: 0xD8BD0, size: 0x8, addend: 0x0, symName: __ZN5godot7WrappedD1Ev.cold.1, symObjAddr: 0x3F58, symBinAddr: 0xFE1D8, symSize: 0x1C }
  - { offset: 0xD8BE5, size: 0x8, addend: 0x0, symName: __ZN5godot7WrappedD1Ev.cold.1, symObjAddr: 0x3F58, symBinAddr: 0xFE1D8, symSize: 0x1C }
  - { offset: 0xD8C14, size: 0x8, addend: 0x0, symName: __ZN5godot7WrappedD0Ev.cold.1, symObjAddr: 0x3F74, symBinAddr: 0xFE1F4, symSize: 0x1C }
  - { offset: 0xD8C2F, size: 0x8, addend: 0x0, symName: __ZN5godot7WrappedD0Ev.cold.1, symObjAddr: 0x3F74, symBinAddr: 0xFE1F4, symSize: 0x1C }
  - { offset: 0xD8C43, size: 0x8, addend: 0x0, symName: __ZN5godot7WrappedD0Ev.cold.1, symObjAddr: 0x3F74, symBinAddr: 0xFE1F4, symSize: 0x1C }
  - { offset: 0xD8C57, size: 0x8, addend: 0x0, symName: __ZN5godot7WrappedD0Ev.cold.1, symObjAddr: 0x3F74, symBinAddr: 0xFE1F4, symSize: 0x1C }
  - { offset: 0xD8C6C, size: 0x8, addend: 0x0, symName: __ZN5godot7WrappedD0Ev.cold.1, symObjAddr: 0x3F74, symBinAddr: 0xFE1F4, symSize: 0x1C }
  - { offset: 0xD8C82, size: 0x8, addend: 0x0, symName: __ZN5godot4ListINS_12PropertyInfoENS_16DefaultAllocatorEE5_Data5eraseEPNS3_7ElementE.cold.2, symObjAddr: 0x3FB0, symBinAddr: 0xFE230, symSize: 0x20 }
  - { offset: 0xD8C9A, size: 0x8, addend: 0x0, symName: __ZN5godot4ListINS_12PropertyInfoENS_16DefaultAllocatorEE5_Data5eraseEPNS3_7ElementE.cold.1, symObjAddr: 0x3F90, symBinAddr: 0xFE210, symSize: 0x20 }
  - { offset: 0xD8CB9, size: 0x8, addend: 0x0, symName: __ZN5godot8internal23EngineClassRegistrationINS_16ClassDBSingletonEE8callbackEv.cold.1, symObjAddr: 0x3FD0, symBinAddr: 0xFE250, symSize: 0x5C }
  - { offset: 0xD8CEE, size: 0x8, addend: 0x0, symName: __ZN5godot8internal23EngineClassRegistrationINS_10RefCountedEE8callbackEv.cold.1, symObjAddr: 0x402C, symBinAddr: 0xFE2AC, symSize: 0x5C }
  - { offset: 0xD8D38, size: 0x8, addend: 0x0, symName: __ZN5godot10RefCountedD1Ev.cold.1, symObjAddr: 0x4088, symBinAddr: 0xFE308, symSize: 0x1C }
  - { offset: 0xD8D53, size: 0x8, addend: 0x0, symName: __ZN5godot10RefCountedD1Ev.cold.1, symObjAddr: 0x4088, symBinAddr: 0xFE308, symSize: 0x1C }
  - { offset: 0xD8D67, size: 0x8, addend: 0x0, symName: __ZN5godot10RefCountedD1Ev.cold.1, symObjAddr: 0x4088, symBinAddr: 0xFE308, symSize: 0x1C }
  - { offset: 0xD8D7B, size: 0x8, addend: 0x0, symName: __ZN5godot10RefCountedD1Ev.cold.1, symObjAddr: 0x4088, symBinAddr: 0xFE308, symSize: 0x1C }
  - { offset: 0xD8D8F, size: 0x8, addend: 0x0, symName: __ZN5godot10RefCountedD1Ev.cold.1, symObjAddr: 0x4088, symBinAddr: 0xFE308, symSize: 0x1C }
  - { offset: 0xD8DA4, size: 0x8, addend: 0x0, symName: __ZN5godot10RefCountedD1Ev.cold.1, symObjAddr: 0x4088, symBinAddr: 0xFE308, symSize: 0x1C }
  - { offset: 0xD8DD7, size: 0x8, addend: 0x0, symName: __ZN5godot10RefCountedD0Ev.cold.1, symObjAddr: 0x40A4, symBinAddr: 0xFE324, symSize: 0x1C }
  - { offset: 0xD8DF2, size: 0x8, addend: 0x0, symName: __ZN5godot10RefCountedD0Ev.cold.1, symObjAddr: 0x40A4, symBinAddr: 0xFE324, symSize: 0x1C }
  - { offset: 0xD8E06, size: 0x8, addend: 0x0, symName: __ZN5godot10RefCountedD0Ev.cold.1, symObjAddr: 0x40A4, symBinAddr: 0xFE324, symSize: 0x1C }
  - { offset: 0xD8E1A, size: 0x8, addend: 0x0, symName: __ZN5godot10RefCountedD0Ev.cold.1, symObjAddr: 0x40A4, symBinAddr: 0xFE324, symSize: 0x1C }
  - { offset: 0xD8E2E, size: 0x8, addend: 0x0, symName: __ZN5godot10RefCountedD0Ev.cold.1, symObjAddr: 0x40A4, symBinAddr: 0xFE324, symSize: 0x1C }
  - { offset: 0xD8E42, size: 0x8, addend: 0x0, symName: __ZN5godot10RefCountedD0Ev.cold.1, symObjAddr: 0x40A4, symBinAddr: 0xFE324, symSize: 0x1C }
  - { offset: 0xD8E57, size: 0x8, addend: 0x0, symName: __ZN5godot10RefCountedD0Ev.cold.1, symObjAddr: 0x40A4, symBinAddr: 0xFE324, symSize: 0x1C }
  - { offset: 0xD8E76, size: 0x8, addend: 0x0, symName: __ZN5godot8internal23EngineClassRegistrationINS_6LoggerEE8callbackEv.cold.1, symObjAddr: 0x40C0, symBinAddr: 0xFE340, symSize: 0x5C }
  - { offset: 0xD8EAB, size: 0x8, addend: 0x0, symName: __ZN5godot8internal23EngineClassRegistrationINS_15ScriptBacktraceEE8callbackEv.cold.1, symObjAddr: 0x411C, symBinAddr: 0xFE39C, symSize: 0x5C }
  - { offset: 0xD8EF5, size: 0x8, addend: 0x0, symName: __ZN5godot15ScriptBacktraceD1Ev.cold.1, symObjAddr: 0x4178, symBinAddr: 0xFE3F8, symSize: 0x1C }
  - { offset: 0xD8F10, size: 0x8, addend: 0x0, symName: __ZN5godot15ScriptBacktraceD1Ev.cold.1, symObjAddr: 0x4178, symBinAddr: 0xFE3F8, symSize: 0x1C }
  - { offset: 0xD8F24, size: 0x8, addend: 0x0, symName: __ZN5godot15ScriptBacktraceD1Ev.cold.1, symObjAddr: 0x4178, symBinAddr: 0xFE3F8, symSize: 0x1C }
  - { offset: 0xD8F38, size: 0x8, addend: 0x0, symName: __ZN5godot15ScriptBacktraceD1Ev.cold.1, symObjAddr: 0x4178, symBinAddr: 0xFE3F8, symSize: 0x1C }
  - { offset: 0xD8F4C, size: 0x8, addend: 0x0, symName: __ZN5godot15ScriptBacktraceD1Ev.cold.1, symObjAddr: 0x4178, symBinAddr: 0xFE3F8, symSize: 0x1C }
  - { offset: 0xD8F60, size: 0x8, addend: 0x0, symName: __ZN5godot15ScriptBacktraceD1Ev.cold.1, symObjAddr: 0x4178, symBinAddr: 0xFE3F8, symSize: 0x1C }
  - { offset: 0xD8F75, size: 0x8, addend: 0x0, symName: __ZN5godot15ScriptBacktraceD1Ev.cold.1, symObjAddr: 0x4178, symBinAddr: 0xFE3F8, symSize: 0x1C }
  - { offset: 0xD8FA9, size: 0x8, addend: 0x0, symName: __ZN5godot15ScriptBacktraceD0Ev.cold.1, symObjAddr: 0x4194, symBinAddr: 0xFE414, symSize: 0x1C }
  - { offset: 0xD8FC4, size: 0x8, addend: 0x0, symName: __ZN5godot15ScriptBacktraceD0Ev.cold.1, symObjAddr: 0x4194, symBinAddr: 0xFE414, symSize: 0x1C }
  - { offset: 0xD8FD8, size: 0x8, addend: 0x0, symName: __ZN5godot15ScriptBacktraceD0Ev.cold.1, symObjAddr: 0x4194, symBinAddr: 0xFE414, symSize: 0x1C }
  - { offset: 0xD8FEC, size: 0x8, addend: 0x0, symName: __ZN5godot15ScriptBacktraceD0Ev.cold.1, symObjAddr: 0x4194, symBinAddr: 0xFE414, symSize: 0x1C }
  - { offset: 0xD9000, size: 0x8, addend: 0x0, symName: __ZN5godot15ScriptBacktraceD0Ev.cold.1, symObjAddr: 0x4194, symBinAddr: 0xFE414, symSize: 0x1C }
  - { offset: 0xD9014, size: 0x8, addend: 0x0, symName: __ZN5godot15ScriptBacktraceD0Ev.cold.1, symObjAddr: 0x4194, symBinAddr: 0xFE414, symSize: 0x1C }
  - { offset: 0xD9028, size: 0x8, addend: 0x0, symName: __ZN5godot15ScriptBacktraceD0Ev.cold.1, symObjAddr: 0x4194, symBinAddr: 0xFE414, symSize: 0x1C }
  - { offset: 0xD903D, size: 0x8, addend: 0x0, symName: __ZN5godot15ScriptBacktraceD0Ev.cold.1, symObjAddr: 0x4194, symBinAddr: 0xFE414, symSize: 0x1C }
  - { offset: 0xD905D, size: 0x8, addend: 0x0, symName: __ZN5godot8internal23EngineClassRegistrationINS_10ConfigFileEE8callbackEv.cold.1, symObjAddr: 0x41B0, symBinAddr: 0xFE430, symSize: 0x5C }
  - { offset: 0xD90A7, size: 0x8, addend: 0x0, symName: __ZN5godot10ConfigFileD1Ev.cold.1, symObjAddr: 0x420C, symBinAddr: 0xFE48C, symSize: 0x1C }
  - { offset: 0xD90C2, size: 0x8, addend: 0x0, symName: __ZN5godot10ConfigFileD1Ev.cold.1, symObjAddr: 0x420C, symBinAddr: 0xFE48C, symSize: 0x1C }
  - { offset: 0xD90D6, size: 0x8, addend: 0x0, symName: __ZN5godot10ConfigFileD1Ev.cold.1, symObjAddr: 0x420C, symBinAddr: 0xFE48C, symSize: 0x1C }
  - { offset: 0xD90EA, size: 0x8, addend: 0x0, symName: __ZN5godot10ConfigFileD1Ev.cold.1, symObjAddr: 0x420C, symBinAddr: 0xFE48C, symSize: 0x1C }
  - { offset: 0xD90FE, size: 0x8, addend: 0x0, symName: __ZN5godot10ConfigFileD1Ev.cold.1, symObjAddr: 0x420C, symBinAddr: 0xFE48C, symSize: 0x1C }
  - { offset: 0xD9112, size: 0x8, addend: 0x0, symName: __ZN5godot10ConfigFileD1Ev.cold.1, symObjAddr: 0x420C, symBinAddr: 0xFE48C, symSize: 0x1C }
  - { offset: 0xD9127, size: 0x8, addend: 0x0, symName: __ZN5godot10ConfigFileD1Ev.cold.1, symObjAddr: 0x420C, symBinAddr: 0xFE48C, symSize: 0x1C }
  - { offset: 0xD915B, size: 0x8, addend: 0x0, symName: __ZN5godot10ConfigFileD0Ev.cold.1, symObjAddr: 0x4228, symBinAddr: 0xFE4A8, symSize: 0x1C }
  - { offset: 0xD9176, size: 0x8, addend: 0x0, symName: __ZN5godot10ConfigFileD0Ev.cold.1, symObjAddr: 0x4228, symBinAddr: 0xFE4A8, symSize: 0x1C }
  - { offset: 0xD918A, size: 0x8, addend: 0x0, symName: __ZN5godot10ConfigFileD0Ev.cold.1, symObjAddr: 0x4228, symBinAddr: 0xFE4A8, symSize: 0x1C }
  - { offset: 0xD919E, size: 0x8, addend: 0x0, symName: __ZN5godot10ConfigFileD0Ev.cold.1, symObjAddr: 0x4228, symBinAddr: 0xFE4A8, symSize: 0x1C }
  - { offset: 0xD91B2, size: 0x8, addend: 0x0, symName: __ZN5godot10ConfigFileD0Ev.cold.1, symObjAddr: 0x4228, symBinAddr: 0xFE4A8, symSize: 0x1C }
  - { offset: 0xD91C6, size: 0x8, addend: 0x0, symName: __ZN5godot10ConfigFileD0Ev.cold.1, symObjAddr: 0x4228, symBinAddr: 0xFE4A8, symSize: 0x1C }
  - { offset: 0xD91DA, size: 0x8, addend: 0x0, symName: __ZN5godot10ConfigFileD0Ev.cold.1, symObjAddr: 0x4228, symBinAddr: 0xFE4A8, symSize: 0x1C }
  - { offset: 0xD91EF, size: 0x8, addend: 0x0, symName: __ZN5godot10ConfigFileD0Ev.cold.1, symObjAddr: 0x4228, symBinAddr: 0xFE4A8, symSize: 0x1C }
  - { offset: 0xD920F, size: 0x8, addend: 0x0, symName: __ZN5godot8internal23EngineClassRegistrationINS_5MutexEE8callbackEv.cold.1, symObjAddr: 0x4244, symBinAddr: 0xFE4C4, symSize: 0x5C }
  - { offset: 0xD9259, size: 0x8, addend: 0x0, symName: __ZN5godot5MutexD1Ev.cold.1, symObjAddr: 0x42A0, symBinAddr: 0xFE520, symSize: 0x1C }
  - { offset: 0xD9274, size: 0x8, addend: 0x0, symName: __ZN5godot5MutexD1Ev.cold.1, symObjAddr: 0x42A0, symBinAddr: 0xFE520, symSize: 0x1C }
  - { offset: 0xD9288, size: 0x8, addend: 0x0, symName: __ZN5godot5MutexD1Ev.cold.1, symObjAddr: 0x42A0, symBinAddr: 0xFE520, symSize: 0x1C }
  - { offset: 0xD929C, size: 0x8, addend: 0x0, symName: __ZN5godot5MutexD1Ev.cold.1, symObjAddr: 0x42A0, symBinAddr: 0xFE520, symSize: 0x1C }
  - { offset: 0xD92B0, size: 0x8, addend: 0x0, symName: __ZN5godot5MutexD1Ev.cold.1, symObjAddr: 0x42A0, symBinAddr: 0xFE520, symSize: 0x1C }
  - { offset: 0xD92C4, size: 0x8, addend: 0x0, symName: __ZN5godot5MutexD1Ev.cold.1, symObjAddr: 0x42A0, symBinAddr: 0xFE520, symSize: 0x1C }
  - { offset: 0xD92D9, size: 0x8, addend: 0x0, symName: __ZN5godot5MutexD1Ev.cold.1, symObjAddr: 0x42A0, symBinAddr: 0xFE520, symSize: 0x1C }
  - { offset: 0xD930D, size: 0x8, addend: 0x0, symName: __ZN5godot5MutexD0Ev.cold.1, symObjAddr: 0x42BC, symBinAddr: 0xFE53C, symSize: 0x1C }
  - { offset: 0xD9328, size: 0x8, addend: 0x0, symName: __ZN5godot5MutexD0Ev.cold.1, symObjAddr: 0x42BC, symBinAddr: 0xFE53C, symSize: 0x1C }
  - { offset: 0xD933C, size: 0x8, addend: 0x0, symName: __ZN5godot5MutexD0Ev.cold.1, symObjAddr: 0x42BC, symBinAddr: 0xFE53C, symSize: 0x1C }
  - { offset: 0xD9350, size: 0x8, addend: 0x0, symName: __ZN5godot5MutexD0Ev.cold.1, symObjAddr: 0x42BC, symBinAddr: 0xFE53C, symSize: 0x1C }
  - { offset: 0xD9364, size: 0x8, addend: 0x0, symName: __ZN5godot5MutexD0Ev.cold.1, symObjAddr: 0x42BC, symBinAddr: 0xFE53C, symSize: 0x1C }
  - { offset: 0xD9378, size: 0x8, addend: 0x0, symName: __ZN5godot5MutexD0Ev.cold.1, symObjAddr: 0x42BC, symBinAddr: 0xFE53C, symSize: 0x1C }
  - { offset: 0xD938C, size: 0x8, addend: 0x0, symName: __ZN5godot5MutexD0Ev.cold.1, symObjAddr: 0x42BC, symBinAddr: 0xFE53C, symSize: 0x1C }
  - { offset: 0xD93A1, size: 0x8, addend: 0x0, symName: __ZN5godot5MutexD0Ev.cold.1, symObjAddr: 0x42BC, symBinAddr: 0xFE53C, symSize: 0x1C }
  - { offset: 0xD93BA, size: 0x8, addend: 0x0, symName: __ZNK5godot13MethodBindTRSINS_3RefIN6sentry16SentryBreadcrumbEEEJRKNS_6StringEEE17gen_argument_typeEi, symObjAddr: 0x1B38, symBinAddr: 0x1ADA8, symSize: 0x14 }
  - { offset: 0xD9430, size: 0x8, addend: 0x0, symName: __ZNK5godot13MethodBindTRSINS_3RefIN6sentry16SentryBreadcrumbEEEJRKNS_6StringEEE22gen_argument_type_infoEi, symObjAddr: 0x1B4C, symBinAddr: 0x1ADBC, symSize: 0x68 }
  - { offset: 0xD9529, size: 0x8, addend: 0x0, symName: __ZN5godot11GetTypeInfoINS_3RefIN6sentry16SentryBreadcrumbEEEvE14get_class_infoEv, symObjAddr: 0x1C40, symBinAddr: 0x1AEB0, symSize: 0x12C }
  - { offset: 0xD95D1, size: 0x8, addend: 0x0, symName: __ZNK5godot13MethodBindTRSINS_3RefIN6sentry16SentryBreadcrumbEEEJRKNS_6StringEEE21get_argument_metadataEi, symObjAddr: 0x1BB4, symBinAddr: 0x1AE24, symSize: 0x8 }
  - { offset: 0xD9622, size: 0x8, addend: 0x0, symName: __ZNK5godot13MethodBindTRSINS_3RefIN6sentry16SentryBreadcrumbEEEJRKNS_6StringEEE4callEPvPKPKvxR20GDExtensionCallError, symObjAddr: 0x1BBC, symBinAddr: 0x1AE2C, symSize: 0x5C }
  - { offset: 0xD96CA, size: 0x8, addend: 0x0, symName: __ZNK5godot13MethodBindTRSINS_3RefIN6sentry16SentryBreadcrumbEEEJRKNS_6StringEEE7ptrcallEPvPKPKvS9_, symObjAddr: 0x1C18, symBinAddr: 0x1AE88, symSize: 0x10 }
  - { offset: 0xD978A, size: 0x8, addend: 0x0, symName: __ZN5godot13MethodBindTRSINS_3RefIN6sentry16SentryBreadcrumbEEEJRKNS_6StringEEED1Ev, symObjAddr: 0x1C28, symBinAddr: 0x1AE98, symSize: 0x4 }
  - { offset: 0xD97AD, size: 0x8, addend: 0x0, symName: __ZN5godot13MethodBindTRSINS_3RefIN6sentry16SentryBreadcrumbEEEJRKNS_6StringEEED1Ev, symObjAddr: 0x1C28, symBinAddr: 0x1AE98, symSize: 0x4 }
  - { offset: 0xD97E5, size: 0x8, addend: 0x0, symName: __ZN5godot13MethodBindTRSINS_3RefIN6sentry16SentryBreadcrumbEEEJRKNS_6StringEEED0Ev, symObjAddr: 0x1C2C, symBinAddr: 0x1AE9C, symSize: 0x14 }
  - { offset: 0xD984D, size: 0x8, addend: 0x0, symName: __ZN5godot11GetTypeInfoINS_3RefIN6sentry16SentryBreadcrumbEEEvE14get_class_infoEv.cold.1, symObjAddr: 0x42D8, symBinAddr: 0xFE558, symSize: 0x58 }
  - { offset: 0xD99AE, size: 0x8, addend: 0x0, symName: __ZN5godot43call_with_ptr_args_static_method_ret_helperINS_3RefIN6sentry16SentryBreadcrumbEEEJRKNS_6StringEEJLm0EEEEvPFT_DpT0_EPKPKvPvNS_13IndexSequenceIJXspT1_EEEE.cold.1, symObjAddr: 0x4330, symBinAddr: 0xFE5B0, symSize: 0x30 }
  - { offset: 0xD9A3F, size: 0x8, addend: 0x0, symName: __ZN5godot18create_method_bindIN6sentry16SentryBreadcrumbEJRKNS_6StringEEEEPNS_10MethodBindEMT_FvDpT0_E.cold.1, symObjAddr: 0x4360, symBinAddr: 0xFE5E0, symSize: 0x5C }
  - { offset: 0xD9AD0, size: 0x8, addend: 0x0, symName: __ZN5godot18create_method_bindIN6sentry16SentryBreadcrumbENS_6StringEJEEEPNS_10MethodBindEMT_KFT0_DpT1_E.cold.1, symObjAddr: 0x43BC, symBinAddr: 0xFE63C, symSize: 0x5C }
  - { offset: 0xD9B9A, size: 0x8, addend: 0x0, symName: __ZN5godot18create_method_bindIN6sentry16SentryBreadcrumbEJNS1_5LevelEEEEPNS_10MethodBindEMT_FvDpT0_E.cold.1, symObjAddr: 0x4418, symBinAddr: 0xFE698, symSize: 0x5C }
  - { offset: 0xD9BC9, size: 0x8, addend: 0x0, symName: __ZNK5godot11MethodBindTIJN6sentry5LevelEEE17gen_argument_typeEi, symObjAddr: 0x2A98, symBinAddr: 0x1B5CC, symSize: 0x10 }
  - { offset: 0xD9BFF, size: 0x8, addend: 0x0, symName: __ZNK5godot11MethodBindTIJN6sentry5LevelEEE22gen_argument_type_infoEi, symObjAddr: 0x2AA8, symBinAddr: 0x1B5DC, symSize: 0x138 }
  - { offset: 0xD9D38, size: 0x8, addend: 0x0, symName: __ZNK5godot11MethodBindTIJN6sentry5LevelEEE21get_argument_metadataEi, symObjAddr: 0x2BE0, symBinAddr: 0x1B714, symSize: 0x8 }
  - { offset: 0xD9D6E, size: 0x8, addend: 0x0, symName: __ZNK5godot11MethodBindTIJN6sentry5LevelEEE4callEPvPKPKvxR20GDExtensionCallError, symObjAddr: 0x2BE8, symBinAddr: 0x1B71C, symSize: 0x40 }
  - { offset: 0xD9E2E, size: 0x8, addend: 0x0, symName: __ZNK5godot11MethodBindTIJN6sentry5LevelEEE7ptrcallEPvPKPKvS4_, symObjAddr: 0x2C28, symBinAddr: 0x1B75C, symSize: 0x20 }
  - { offset: 0xD9F19, size: 0x8, addend: 0x0, symName: __ZN5godot11MethodBindTIJN6sentry5LevelEEED1Ev, symObjAddr: 0x2C48, symBinAddr: 0x1B77C, symSize: 0x4 }
  - { offset: 0xD9F3C, size: 0x8, addend: 0x0, symName: __ZN5godot11MethodBindTIJN6sentry5LevelEEED1Ev, symObjAddr: 0x2C48, symBinAddr: 0x1B77C, symSize: 0x4 }
  - { offset: 0xD9F74, size: 0x8, addend: 0x0, symName: __ZN5godot11MethodBindTIJN6sentry5LevelEEED0Ev, symObjAddr: 0x2C4C, symBinAddr: 0x1B780, symSize: 0x14 }
  - { offset: 0xD9FDC, size: 0x8, addend: 0x0, symName: __ZN5godot11GetTypeInfoIN6sentry5LevelEvE14get_class_infoEv, symObjAddr: 0x2D34, symBinAddr: 0x1B868, symSize: 0x128 }
  - { offset: 0xDA0F9, size: 0x8, addend: 0x0, symName: __ZN5godot18create_method_bindIN6sentry16SentryBreadcrumbENS1_5LevelEJEEEPNS_10MethodBindEMT_KFT0_DpT1_E.cold.1, symObjAddr: 0x4474, symBinAddr: 0xFE6F4, symSize: 0x5C }
  - { offset: 0xDA128, size: 0x8, addend: 0x0, symName: __ZNK5godot13MethodBindTRCIN6sentry5LevelEJEE17gen_argument_typeEi, symObjAddr: 0x31C0, symBinAddr: 0x1BCF4, symSize: 0x8 }
  - { offset: 0xDA15E, size: 0x8, addend: 0x0, symName: __ZNK5godot13MethodBindTRCIN6sentry5LevelEJEE22gen_argument_type_infoEi, symObjAddr: 0x31C8, symBinAddr: 0x1BCFC, symSize: 0x4 }
  - { offset: 0xDA195, size: 0x8, addend: 0x0, symName: __ZNK5godot13MethodBindTRCIN6sentry5LevelEJEE22gen_argument_type_infoEi, symObjAddr: 0x31C8, symBinAddr: 0x1BCFC, symSize: 0x4 }
  - { offset: 0xDA1A8, size: 0x8, addend: 0x0, symName: __ZNK5godot13MethodBindTRCIN6sentry5LevelEJEE21get_argument_metadataEi, symObjAddr: 0x31CC, symBinAddr: 0x1BD00, symSize: 0x8 }
  - { offset: 0xDA203, size: 0x8, addend: 0x0, symName: __ZNK5godot13MethodBindTRCIN6sentry5LevelEJEE4callEPvPKPKvxR20GDExtensionCallError, symObjAddr: 0x31D4, symBinAddr: 0x1BD08, symSize: 0xC0 }
  - { offset: 0xDA343, size: 0x8, addend: 0x0, symName: __ZNK5godot13MethodBindTRCIN6sentry5LevelEJEE7ptrcallEPvPKPKvS4_, symObjAddr: 0x3294, symBinAddr: 0x1BDC8, symSize: 0x3C }
  - { offset: 0xDA430, size: 0x8, addend: 0x0, symName: __ZN5godot13MethodBindTRCIN6sentry5LevelEJEED1Ev, symObjAddr: 0x32D0, symBinAddr: 0x1BE04, symSize: 0x4 }
  - { offset: 0xDA453, size: 0x8, addend: 0x0, symName: __ZN5godot13MethodBindTRCIN6sentry5LevelEJEED1Ev, symObjAddr: 0x32D0, symBinAddr: 0x1BE04, symSize: 0x4 }
  - { offset: 0xDA48B, size: 0x8, addend: 0x0, symName: __ZN5godot13MethodBindTRCIN6sentry5LevelEJEED0Ev, symObjAddr: 0x32D4, symBinAddr: 0x1BE08, symSize: 0x14 }
  - { offset: 0xDA555, size: 0x8, addend: 0x0, symName: __ZN5godot18create_method_bindIN6sentry16SentryBreadcrumbEJRKNS_10DictionaryEEEEPNS_10MethodBindEMT_FvDpT0_E.cold.1, symObjAddr: 0x44D0, symBinAddr: 0xFE750, symSize: 0x5C }
  - { offset: 0xDA584, size: 0x8, addend: 0x0, symName: __ZNK5godot11MethodBindTIJRKNS_10DictionaryEEE17gen_argument_typeEi, symObjAddr: 0x33FC, symBinAddr: 0x1BF30, symSize: 0x10 }
  - { offset: 0xDA5BA, size: 0x8, addend: 0x0, symName: __ZNK5godot11MethodBindTIJRKNS_10DictionaryEEE22gen_argument_type_infoEi, symObjAddr: 0x340C, symBinAddr: 0x1BF40, symSize: 0x138 }
  - { offset: 0xDA6F3, size: 0x8, addend: 0x0, symName: __ZNK5godot11MethodBindTIJRKNS_10DictionaryEEE21get_argument_metadataEi, symObjAddr: 0x3544, symBinAddr: 0x1C078, symSize: 0x8 }
  - { offset: 0xDA729, size: 0x8, addend: 0x0, symName: __ZNK5godot11MethodBindTIJRKNS_10DictionaryEEE4callEPvPKPKvxR20GDExtensionCallError, symObjAddr: 0x354C, symBinAddr: 0x1C080, symSize: 0x40 }
  - { offset: 0xDA7E9, size: 0x8, addend: 0x0, symName: __ZNK5godot11MethodBindTIJRKNS_10DictionaryEEE7ptrcallEPvPKPKvS5_, symObjAddr: 0x358C, symBinAddr: 0x1C0C0, symSize: 0x80 }
  - { offset: 0xDA8E2, size: 0x8, addend: 0x0, symName: __ZN5godot11MethodBindTIJRKNS_10DictionaryEEED1Ev, symObjAddr: 0x360C, symBinAddr: 0x1C140, symSize: 0x4 }
  - { offset: 0xDA905, size: 0x8, addend: 0x0, symName: __ZN5godot11MethodBindTIJRKNS_10DictionaryEEED1Ev, symObjAddr: 0x360C, symBinAddr: 0x1C140, symSize: 0x4 }
  - { offset: 0xDA93D, size: 0x8, addend: 0x0, symName: __ZN5godot11MethodBindTIJRKNS_10DictionaryEEED0Ev, symObjAddr: 0x3610, symBinAddr: 0x1C144, symSize: 0x14 }
  - { offset: 0xDAA21, size: 0x8, addend: 0x0, symName: __ZN5godot18create_method_bindIN6sentry16SentryBreadcrumbENS_3RefINS1_15SentryTimestampEEEJEEEPNS_10MethodBindEMT_FT0_DpT1_E.cold.1, symObjAddr: 0x452C, symBinAddr: 0xFE7AC, symSize: 0x5C }
  - { offset: 0xDAA50, size: 0x8, addend: 0x0, symName: __ZNK5godot12MethodBindTRINS_3RefIN6sentry15SentryTimestampEEEJEE17gen_argument_typeEi, symObjAddr: 0x39EC, symBinAddr: 0x1C520, symSize: 0x8 }
  - { offset: 0xDAA86, size: 0x8, addend: 0x0, symName: __ZNK5godot12MethodBindTRINS_3RefIN6sentry15SentryTimestampEEEJEE22gen_argument_type_infoEi, symObjAddr: 0x39F4, symBinAddr: 0x1C528, symSize: 0x4 }
  - { offset: 0xDAABD, size: 0x8, addend: 0x0, symName: __ZNK5godot12MethodBindTRINS_3RefIN6sentry15SentryTimestampEEEJEE22gen_argument_type_infoEi, symObjAddr: 0x39F4, symBinAddr: 0x1C528, symSize: 0x4 }
  - { offset: 0xDAAD0, size: 0x8, addend: 0x0, symName: __ZN5godot11GetTypeInfoINS_3RefIN6sentry15SentryTimestampEEEvE14get_class_infoEv, symObjAddr: 0x3B18, symBinAddr: 0x1C64C, symSize: 0x12C }
  - { offset: 0xDAB78, size: 0x8, addend: 0x0, symName: __ZNK5godot12MethodBindTRINS_3RefIN6sentry15SentryTimestampEEEJEE21get_argument_metadataEi, symObjAddr: 0x39F8, symBinAddr: 0x1C52C, symSize: 0x8 }
  - { offset: 0xDABAE, size: 0x8, addend: 0x0, symName: __ZNK5godot12MethodBindTRINS_3RefIN6sentry15SentryTimestampEEEJEE4callEPvPKPKvxR20GDExtensionCallError, symObjAddr: 0x3A00, symBinAddr: 0x1C534, symSize: 0x64 }
  - { offset: 0xDACEA, size: 0x8, addend: 0x0, symName: __ZNK5godot12MethodBindTRINS_3RefIN6sentry15SentryTimestampEEEJEE7ptrcallEPvPKPKvS6_, symObjAddr: 0x3A64, symBinAddr: 0x1C598, symSize: 0x9C }
  - { offset: 0xDAE5C, size: 0x8, addend: 0x0, symName: __ZNK5godot12MethodBindTRINS_3RefIN6sentry15SentryTimestampEEEJEE7ptrcallEPvPKPKvS6_.cold.1, symObjAddr: 0x4588, symBinAddr: 0xFE808, symSize: 0x30 }
  - { offset: 0xDAED3, size: 0x8, addend: 0x0, symName: __ZN5godot12MethodBindTRINS_3RefIN6sentry15SentryTimestampEEEJEED1Ev, symObjAddr: 0x3B00, symBinAddr: 0x1C634, symSize: 0x4 }
  - { offset: 0xDAEF6, size: 0x8, addend: 0x0, symName: __ZN5godot12MethodBindTRINS_3RefIN6sentry15SentryTimestampEEEJEED1Ev, symObjAddr: 0x3B00, symBinAddr: 0x1C634, symSize: 0x4 }
  - { offset: 0xDAF2E, size: 0x8, addend: 0x0, symName: __ZN5godot12MethodBindTRINS_3RefIN6sentry15SentryTimestampEEEJEED0Ev, symObjAddr: 0x3B04, symBinAddr: 0x1C638, symSize: 0x14 }
  - { offset: 0xDAF9D, size: 0x8, addend: 0x0, symName: __ZN5godot11GetTypeInfoINS_3RefIN6sentry15SentryTimestampEEEvE14get_class_infoEv.cold.1, symObjAddr: 0x45B8, symBinAddr: 0xFE838, symSize: 0x58 }
  - { offset: 0xDB02C, size: 0x8, addend: 0x0, symName: _OUTLINED_FUNCTION_0, symObjAddr: 0x4610, symBinAddr: 0x1C85C, symSize: 0x10 }
  - { offset: 0xDB044, size: 0x8, addend: 0x0, symName: _OUTLINED_FUNCTION_1, symObjAddr: 0x4620, symBinAddr: 0x1C86C, symSize: 0xC }
  - { offset: 0xDB05C, size: 0x8, addend: 0x0, symName: _OUTLINED_FUNCTION_2, symObjAddr: 0x462C, symBinAddr: 0x1C878, symSize: 0xC }
  - { offset: 0xDB074, size: 0x8, addend: 0x0, symName: _OUTLINED_FUNCTION_3, symObjAddr: 0x4638, symBinAddr: 0x1C884, symSize: 0x8 }
  - { offset: 0xDB08C, size: 0x8, addend: 0x0, symName: _OUTLINED_FUNCTION_4, symObjAddr: 0x4640, symBinAddr: 0x1C88C, symSize: 0x8 }
  - { offset: 0xDB0A4, size: 0x8, addend: 0x0, symName: _OUTLINED_FUNCTION_5, symObjAddr: 0x4648, symBinAddr: 0x1C894, symSize: 0x8 }
  - { offset: 0xDB0BC, size: 0x8, addend: 0x0, symName: _OUTLINED_FUNCTION_6, symObjAddr: 0x4650, symBinAddr: 0x1C89C, symSize: 0x8 }
  - { offset: 0xDB0D4, size: 0x8, addend: 0x0, symName: _OUTLINED_FUNCTION_7, symObjAddr: 0x4658, symBinAddr: 0x1C8A4, symSize: 0xC }
  - { offset: 0xE133A, size: 0x8, addend: 0x0, symName: __ZN5godot18create_method_bindIN6sentry11SentryEventENS_6StringEJEEEPNS_10MethodBindEMT_KFT0_DpT1_E, symObjAddr: 0x2A90, symBinAddr: 0x1E8E8, symSize: 0x12C }
  - { offset: 0xE148A, size: 0x8, addend: 0x0, symName: __ZN5godot18create_method_bindIN6sentry11SentryEventEJRKNS_6StringEEEEPNS_10MethodBindEMT_FvDpT0_E, symObjAddr: 0x2E28, symBinAddr: 0x1EA14, symSize: 0x114 }
  - { offset: 0xE15BD, size: 0x8, addend: 0x0, symName: __ZN5godot18create_method_bindIN6sentry11SentryEventEJRKNS_3RefINS1_15SentryTimestampEEEEEEPNS_10MethodBindEMT_FvDpT0_E, symObjAddr: 0x340C, symBinAddr: 0x1EB28, symSize: 0x114 }
  - { offset: 0xE16F0, size: 0x8, addend: 0x0, symName: __ZN5godot18create_method_bindIN6sentry11SentryEventENS_3RefINS1_15SentryTimestampEEEJEEEPNS_10MethodBindEMT_KFT0_DpT1_E, symObjAddr: 0x3BE0, symBinAddr: 0x1F2FC, symSize: 0x12C }
  - { offset: 0xE1826, size: 0x8, addend: 0x0, symName: __ZN5godot18create_method_bindIN6sentry11SentryEventEJNS1_5LevelEEEEPNS_10MethodBindEMT_FvDpT0_E, symObjAddr: 0x4048, symBinAddr: 0x1F638, symSize: 0x114 }
  - { offset: 0xE1959, size: 0x8, addend: 0x0, symName: __ZN5godot18create_method_bindIN6sentry11SentryEventENS1_5LevelEJEEEPNS_10MethodBindEMT_KFT0_DpT1_E, symObjAddr: 0x4758, symBinAddr: 0x1F74C, symSize: 0x12C }
  - { offset: 0xE1A8F, size: 0x8, addend: 0x0, symName: __ZN5godot18create_method_bindIN6sentry11SentryEventEJRKNS_6StringES5_EEEPNS_10MethodBindEMT_FvDpT0_E, symObjAddr: 0x49AC, symBinAddr: 0x1F878, symSize: 0x118 }
  - { offset: 0xE1BC7, size: 0x8, addend: 0x0, symName: __ZN5godot18create_method_bindIN6sentry11SentryEventENS_6StringEJRKS3_EEEPNS_10MethodBindEMT_FT0_DpT1_E, symObjAddr: 0x4EB0, symBinAddr: 0x1FD7C, symSize: 0x120 }
  - { offset: 0xE1D03, size: 0x8, addend: 0x0, symName: __ZN5godot18create_method_bindIN6sentry11SentryEventEbJEEEPNS_10MethodBindEMT_KFT0_DpT1_E, symObjAddr: 0x53B4, symBinAddr: 0x20280, symSize: 0x12C }
  - { offset: 0xE1E39, size: 0x8, addend: 0x0, symName: __ZN5godot18create_method_bindIN6sentry11SentryEventEiJEEEPNS_10MethodBindEMT_KFT0_DpT1_E, symObjAddr: 0x56F8, symBinAddr: 0x205C4, symSize: 0x12C }
  - { offset: 0xE1F6F, size: 0x8, addend: 0x0, symName: __ZN5godot18create_method_bindIN6sentry11SentryEventEJiRKNS_6StringEEEEPNS_10MethodBindEMT_FvDpT0_E, symObjAddr: 0x5A44, symBinAddr: 0x20910, symSize: 0x118 }
  - { offset: 0xE20A7, size: 0x8, addend: 0x0, symName: __ZN5godot18create_method_bindIN6sentry11SentryEventENS_6StringEJiEEEPNS_10MethodBindEMT_KFT0_DpT1_E, symObjAddr: 0x60BC, symBinAddr: 0x20F88, symSize: 0x12C }
  - { offset: 0xE2729, size: 0x8, addend: 0x0, symName: __ZN5godot34call_get_argument_type_info_helperIRKNS_3RefIN6sentry15SentryTimestampEEEEEviRiRNS_12PropertyInfoE, symObjAddr: 0x3788, symBinAddr: 0x1EEA4, symSize: 0xD4 }
  - { offset: 0xE27E1, size: 0x8, addend: 0x0, symName: __ZN5godot25call_with_variant_args_dvINS_20_gde_UnexistingClassEJRKNS_3RefIN6sentry15SentryTimestampEEEEEEvPT_MS8_FvDpT0_EPKPKviR20GDExtensionCallErrorRKNSt3__16vectorINS_7VariantENSK_9allocatorISM_EEEE, symObjAddr: 0x3988, symBinAddr: 0x1F0A4, symSize: 0x170 }
  - { offset: 0xE2CFD, size: 0x8, addend: 0x0, symName: __ZN5godot30call_with_variant_args_retc_dvINS_20_gde_UnexistingClassENS_3RefIN6sentry15SentryTimestampEEEJEEEvPT_MS6_KFT0_DpT1_EPKPKviRNS_7VariantER20GDExtensionCallErrorRKNSt3__16vectorISH_NSL_9allocatorISH_EEEE, symObjAddr: 0x3F64, symBinAddr: 0x1F554, symSize: 0xE4 }
  - { offset: 0xE33A8, size: 0x8, addend: 0x0, symName: __ZN5godot25call_with_variant_args_dvINS_20_gde_UnexistingClassEJRKNS_6StringES4_EEEvPT_MS5_FvDpT0_EPKPKviR20GDExtensionCallErrorRKNSt3__16vectorINS_7VariantENSH_9allocatorISJ_EEEE, symObjAddr: 0x4D10, symBinAddr: 0x1FBDC, symSize: 0x1A0 }
  - { offset: 0xE3788, size: 0x8, addend: 0x0, symName: __ZN5godot29call_with_variant_args_ret_dvINS_20_gde_UnexistingClassENS_6StringEJRKS2_EEEvPT_MS5_FT0_DpT1_EPKPKviRNS_7VariantER20GDExtensionCallErrorRKNSt3__16vectorISG_NSK_9allocatorISG_EEEE, symObjAddr: 0x5250, symBinAddr: 0x2011C, symSize: 0x164 }
  - { offset: 0xE420A, size: 0x8, addend: 0x0, symName: __ZN5godot34call_get_argument_type_info_helperIiEEviRiRNS_12PropertyInfoE, symObjAddr: 0x5DB0, symBinAddr: 0x20C7C, symSize: 0x174 }
  - { offset: 0xE43C3, size: 0x8, addend: 0x0, symName: __ZN5godot25call_with_variant_args_dvINS_20_gde_UnexistingClassEJiRKNS_6StringEEEEvPT_MS5_FvDpT0_EPKPKviR20GDExtensionCallErrorRKNSt3__16vectorINS_7VariantENSH_9allocatorISJ_EEEE, symObjAddr: 0x5F24, symBinAddr: 0x20DF0, symSize: 0x198 }
  - { offset: 0xE4818, size: 0x8, addend: 0x0, symName: __ZN5godot30call_with_variant_args_retc_dvINS_20_gde_UnexistingClassENS_6StringEJiEEEvPT_MS3_KFT0_DpT1_EPKPKviRNS_7VariantER20GDExtensionCallErrorRKNSt3__16vectorISE_NSI_9allocatorISE_EEEE, symObjAddr: 0x6464, symBinAddr: 0x21330, symSize: 0x158 }
  - { offset: 0xF2433, size: 0x8, addend: 0x0, symName: ___cxx_global_var_init, symObjAddr: 0x72C4, symBinAddr: 0x214D0, symSize: 0x4C }
  - { offset: 0xF24B8, size: 0x8, addend: 0x0, symName: ___cxx_global_var_init.1, symObjAddr: 0x7310, symBinAddr: 0x2151C, symSize: 0x4C }
  - { offset: 0xF253D, size: 0x8, addend: 0x0, symName: ___cxx_global_var_init.2, symObjAddr: 0x735C, symBinAddr: 0x21568, symSize: 0x4C }
  - { offset: 0xF25C2, size: 0x8, addend: 0x0, symName: ___cxx_global_var_init.3, symObjAddr: 0x73A8, symBinAddr: 0x215B4, symSize: 0x4C }
  - { offset: 0xF2647, size: 0x8, addend: 0x0, symName: ___cxx_global_var_init.4, symObjAddr: 0x73F4, symBinAddr: 0x21600, symSize: 0x4C }
  - { offset: 0xF26CC, size: 0x8, addend: 0x0, symName: ___cxx_global_var_init.5, symObjAddr: 0x7440, symBinAddr: 0x2164C, symSize: 0x4C }
  - { offset: 0xF2751, size: 0x8, addend: 0x0, symName: ___cxx_global_var_init.6, symObjAddr: 0x748C, symBinAddr: 0x21698, symSize: 0x4C }
  - { offset: 0xF33B9, size: 0x8, addend: 0x0, symName: __ZN6sentry11SentryEvent13_bind_methodsEv, symObjAddr: 0x0, symBinAddr: 0x1CAC4, symSize: 0x1E24 }
  - { offset: 0xF83BA, size: 0x8, addend: 0x0, symName: __ZN6sentry11SentryEvent13_bind_methodsEv.cold.1, symObjAddr: 0x65BC, symBinAddr: 0xFE890, symSize: 0x58 }
  - { offset: 0xF83E8, size: 0x8, addend: 0x0, symName: __ZN6sentry11SentryEvent13_bind_methodsEv.cold.2, symObjAddr: 0x6614, symBinAddr: 0xFE8E8, symSize: 0x58 }
  - { offset: 0xF8416, size: 0x8, addend: 0x0, symName: __ZN6sentry11SentryEvent13_bind_methodsEv.cold.3, symObjAddr: 0x666C, symBinAddr: 0xFE940, symSize: 0x58 }
  - { offset: 0xF8444, size: 0x8, addend: 0x0, symName: __ZN6sentry11SentryEvent13_bind_methodsEv.cold.4, symObjAddr: 0x66C4, symBinAddr: 0xFE998, symSize: 0x58 }
  - { offset: 0xF8472, size: 0x8, addend: 0x0, symName: __ZN6sentry11SentryEvent13_bind_methodsEv.cold.5, symObjAddr: 0x671C, symBinAddr: 0xFE9F0, symSize: 0x58 }
  - { offset: 0xF84A0, size: 0x8, addend: 0x0, symName: __ZN6sentry11SentryEvent13_bind_methodsEv.cold.6, symObjAddr: 0x6774, symBinAddr: 0xFEA48, symSize: 0x58 }
  - { offset: 0xF84CE, size: 0x8, addend: 0x0, symName: __ZN6sentry11SentryEvent13_bind_methodsEv.cold.7, symObjAddr: 0x67CC, symBinAddr: 0xFEAA0, symSize: 0x58 }
  - { offset: 0xF84FC, size: 0x8, addend: 0x0, symName: __ZN6sentry11SentryEvent13_bind_methodsEv.cold.8, symObjAddr: 0x6824, symBinAddr: 0xFEAF8, symSize: 0x58 }
  - { offset: 0xF852A, size: 0x8, addend: 0x0, symName: __ZN6sentry11SentryEvent13_bind_methodsEv.cold.9, symObjAddr: 0x687C, symBinAddr: 0xFEB50, symSize: 0x58 }
  - { offset: 0xF855F, size: 0x8, addend: 0x0, symName: __ZN5godot8internal23EngineClassRegistrationINS_6ObjectEE8callbackEv.cold.1, symObjAddr: 0x68D4, symBinAddr: 0xFEBA8, symSize: 0x5C }
  - { offset: 0xF85FA, size: 0x8, addend: 0x0, symName: __ZN5godot6ObjectD1Ev.cold.1, symObjAddr: 0x6930, symBinAddr: 0xFEC04, symSize: 0x1C }
  - { offset: 0xF8615, size: 0x8, addend: 0x0, symName: __ZN5godot6ObjectD1Ev.cold.1, symObjAddr: 0x6930, symBinAddr: 0xFEC04, symSize: 0x1C }
  - { offset: 0xF8629, size: 0x8, addend: 0x0, symName: __ZN5godot6ObjectD1Ev.cold.1, symObjAddr: 0x6930, symBinAddr: 0xFEC04, symSize: 0x1C }
  - { offset: 0xF863D, size: 0x8, addend: 0x0, symName: __ZN5godot6ObjectD1Ev.cold.1, symObjAddr: 0x6930, symBinAddr: 0xFEC04, symSize: 0x1C }
  - { offset: 0xF8652, size: 0x8, addend: 0x0, symName: __ZN5godot6ObjectD1Ev.cold.1, symObjAddr: 0x6930, symBinAddr: 0xFEC04, symSize: 0x1C }
  - { offset: 0xF8682, size: 0x8, addend: 0x0, symName: __ZN5godot6ObjectD0Ev.cold.1, symObjAddr: 0x694C, symBinAddr: 0xFEC20, symSize: 0x1C }
  - { offset: 0xF869D, size: 0x8, addend: 0x0, symName: __ZN5godot6ObjectD0Ev.cold.1, symObjAddr: 0x694C, symBinAddr: 0xFEC20, symSize: 0x1C }
  - { offset: 0xF86B1, size: 0x8, addend: 0x0, symName: __ZN5godot6ObjectD0Ev.cold.1, symObjAddr: 0x694C, symBinAddr: 0xFEC20, symSize: 0x1C }
  - { offset: 0xF86C5, size: 0x8, addend: 0x0, symName: __ZN5godot6ObjectD0Ev.cold.1, symObjAddr: 0x694C, symBinAddr: 0xFEC20, symSize: 0x1C }
  - { offset: 0xF86D9, size: 0x8, addend: 0x0, symName: __ZN5godot6ObjectD0Ev.cold.1, symObjAddr: 0x694C, symBinAddr: 0xFEC20, symSize: 0x1C }
  - { offset: 0xF86EE, size: 0x8, addend: 0x0, symName: __ZN5godot6ObjectD0Ev.cold.1, symObjAddr: 0x694C, symBinAddr: 0xFEC20, symSize: 0x1C }
  - { offset: 0xF8705, size: 0x8, addend: 0x0, symName: __ZN5godot7WrappedD1Ev.cold.1, symObjAddr: 0x6968, symBinAddr: 0xFEC3C, symSize: 0x1C }
  - { offset: 0xF8720, size: 0x8, addend: 0x0, symName: __ZN5godot7WrappedD1Ev.cold.1, symObjAddr: 0x6968, symBinAddr: 0xFEC3C, symSize: 0x1C }
  - { offset: 0xF8734, size: 0x8, addend: 0x0, symName: __ZN5godot7WrappedD1Ev.cold.1, symObjAddr: 0x6968, symBinAddr: 0xFEC3C, symSize: 0x1C }
  - { offset: 0xF8749, size: 0x8, addend: 0x0, symName: __ZN5godot7WrappedD1Ev.cold.1, symObjAddr: 0x6968, symBinAddr: 0xFEC3C, symSize: 0x1C }
  - { offset: 0xF8778, size: 0x8, addend: 0x0, symName: __ZN5godot7WrappedD0Ev.cold.1, symObjAddr: 0x6984, symBinAddr: 0xFEC58, symSize: 0x1C }
  - { offset: 0xF8793, size: 0x8, addend: 0x0, symName: __ZN5godot7WrappedD0Ev.cold.1, symObjAddr: 0x6984, symBinAddr: 0xFEC58, symSize: 0x1C }
  - { offset: 0xF87A7, size: 0x8, addend: 0x0, symName: __ZN5godot7WrappedD0Ev.cold.1, symObjAddr: 0x6984, symBinAddr: 0xFEC58, symSize: 0x1C }
  - { offset: 0xF87BB, size: 0x8, addend: 0x0, symName: __ZN5godot7WrappedD0Ev.cold.1, symObjAddr: 0x6984, symBinAddr: 0xFEC58, symSize: 0x1C }
  - { offset: 0xF87D0, size: 0x8, addend: 0x0, symName: __ZN5godot7WrappedD0Ev.cold.1, symObjAddr: 0x6984, symBinAddr: 0xFEC58, symSize: 0x1C }
  - { offset: 0xF87E6, size: 0x8, addend: 0x0, symName: __ZN5godot4ListINS_12PropertyInfoENS_16DefaultAllocatorEE5_Data5eraseEPNS3_7ElementE.cold.2, symObjAddr: 0x69C0, symBinAddr: 0xFEC94, symSize: 0x20 }
  - { offset: 0xF87FE, size: 0x8, addend: 0x0, symName: __ZN5godot4ListINS_12PropertyInfoENS_16DefaultAllocatorEE5_Data5eraseEPNS3_7ElementE.cold.1, symObjAddr: 0x69A0, symBinAddr: 0xFEC74, symSize: 0x20 }
  - { offset: 0xF881D, size: 0x8, addend: 0x0, symName: __ZN5godot8internal23EngineClassRegistrationINS_16ClassDBSingletonEE8callbackEv.cold.1, symObjAddr: 0x69E0, symBinAddr: 0xFECB4, symSize: 0x5C }
  - { offset: 0xF8852, size: 0x8, addend: 0x0, symName: __ZN5godot8internal23EngineClassRegistrationINS_10RefCountedEE8callbackEv.cold.1, symObjAddr: 0x6A3C, symBinAddr: 0xFED10, symSize: 0x5C }
  - { offset: 0xF889C, size: 0x8, addend: 0x0, symName: __ZN5godot10RefCountedD1Ev.cold.1, symObjAddr: 0x6A98, symBinAddr: 0xFED6C, symSize: 0x1C }
  - { offset: 0xF88B7, size: 0x8, addend: 0x0, symName: __ZN5godot10RefCountedD1Ev.cold.1, symObjAddr: 0x6A98, symBinAddr: 0xFED6C, symSize: 0x1C }
  - { offset: 0xF88CB, size: 0x8, addend: 0x0, symName: __ZN5godot10RefCountedD1Ev.cold.1, symObjAddr: 0x6A98, symBinAddr: 0xFED6C, symSize: 0x1C }
  - { offset: 0xF88DF, size: 0x8, addend: 0x0, symName: __ZN5godot10RefCountedD1Ev.cold.1, symObjAddr: 0x6A98, symBinAddr: 0xFED6C, symSize: 0x1C }
  - { offset: 0xF88F3, size: 0x8, addend: 0x0, symName: __ZN5godot10RefCountedD1Ev.cold.1, symObjAddr: 0x6A98, symBinAddr: 0xFED6C, symSize: 0x1C }
  - { offset: 0xF8908, size: 0x8, addend: 0x0, symName: __ZN5godot10RefCountedD1Ev.cold.1, symObjAddr: 0x6A98, symBinAddr: 0xFED6C, symSize: 0x1C }
  - { offset: 0xF893B, size: 0x8, addend: 0x0, symName: __ZN5godot10RefCountedD0Ev.cold.1, symObjAddr: 0x6AB4, symBinAddr: 0xFED88, symSize: 0x1C }
  - { offset: 0xF8956, size: 0x8, addend: 0x0, symName: __ZN5godot10RefCountedD0Ev.cold.1, symObjAddr: 0x6AB4, symBinAddr: 0xFED88, symSize: 0x1C }
  - { offset: 0xF896A, size: 0x8, addend: 0x0, symName: __ZN5godot10RefCountedD0Ev.cold.1, symObjAddr: 0x6AB4, symBinAddr: 0xFED88, symSize: 0x1C }
  - { offset: 0xF897E, size: 0x8, addend: 0x0, symName: __ZN5godot10RefCountedD0Ev.cold.1, symObjAddr: 0x6AB4, symBinAddr: 0xFED88, symSize: 0x1C }
  - { offset: 0xF8992, size: 0x8, addend: 0x0, symName: __ZN5godot10RefCountedD0Ev.cold.1, symObjAddr: 0x6AB4, symBinAddr: 0xFED88, symSize: 0x1C }
  - { offset: 0xF89A6, size: 0x8, addend: 0x0, symName: __ZN5godot10RefCountedD0Ev.cold.1, symObjAddr: 0x6AB4, symBinAddr: 0xFED88, symSize: 0x1C }
  - { offset: 0xF89BB, size: 0x8, addend: 0x0, symName: __ZN5godot10RefCountedD0Ev.cold.1, symObjAddr: 0x6AB4, symBinAddr: 0xFED88, symSize: 0x1C }
  - { offset: 0xF89DA, size: 0x8, addend: 0x0, symName: __ZN5godot8internal23EngineClassRegistrationINS_6LoggerEE8callbackEv.cold.1, symObjAddr: 0x6AD0, symBinAddr: 0xFEDA4, symSize: 0x5C }
  - { offset: 0xF8A0F, size: 0x8, addend: 0x0, symName: __ZN5godot8internal23EngineClassRegistrationINS_15ScriptBacktraceEE8callbackEv.cold.1, symObjAddr: 0x6B2C, symBinAddr: 0xFEE00, symSize: 0x5C }
  - { offset: 0xF8A59, size: 0x8, addend: 0x0, symName: __ZN5godot15ScriptBacktraceD1Ev.cold.1, symObjAddr: 0x6B88, symBinAddr: 0xFEE5C, symSize: 0x1C }
  - { offset: 0xF8A74, size: 0x8, addend: 0x0, symName: __ZN5godot15ScriptBacktraceD1Ev.cold.1, symObjAddr: 0x6B88, symBinAddr: 0xFEE5C, symSize: 0x1C }
  - { offset: 0xF8A88, size: 0x8, addend: 0x0, symName: __ZN5godot15ScriptBacktraceD1Ev.cold.1, symObjAddr: 0x6B88, symBinAddr: 0xFEE5C, symSize: 0x1C }
  - { offset: 0xF8A9C, size: 0x8, addend: 0x0, symName: __ZN5godot15ScriptBacktraceD1Ev.cold.1, symObjAddr: 0x6B88, symBinAddr: 0xFEE5C, symSize: 0x1C }
  - { offset: 0xF8AB0, size: 0x8, addend: 0x0, symName: __ZN5godot15ScriptBacktraceD1Ev.cold.1, symObjAddr: 0x6B88, symBinAddr: 0xFEE5C, symSize: 0x1C }
  - { offset: 0xF8AC4, size: 0x8, addend: 0x0, symName: __ZN5godot15ScriptBacktraceD1Ev.cold.1, symObjAddr: 0x6B88, symBinAddr: 0xFEE5C, symSize: 0x1C }
  - { offset: 0xF8AD9, size: 0x8, addend: 0x0, symName: __ZN5godot15ScriptBacktraceD1Ev.cold.1, symObjAddr: 0x6B88, symBinAddr: 0xFEE5C, symSize: 0x1C }
  - { offset: 0xF8B0D, size: 0x8, addend: 0x0, symName: __ZN5godot15ScriptBacktraceD0Ev.cold.1, symObjAddr: 0x6BA4, symBinAddr: 0xFEE78, symSize: 0x1C }
  - { offset: 0xF8B28, size: 0x8, addend: 0x0, symName: __ZN5godot15ScriptBacktraceD0Ev.cold.1, symObjAddr: 0x6BA4, symBinAddr: 0xFEE78, symSize: 0x1C }
  - { offset: 0xF8B3C, size: 0x8, addend: 0x0, symName: __ZN5godot15ScriptBacktraceD0Ev.cold.1, symObjAddr: 0x6BA4, symBinAddr: 0xFEE78, symSize: 0x1C }
  - { offset: 0xF8B50, size: 0x8, addend: 0x0, symName: __ZN5godot15ScriptBacktraceD0Ev.cold.1, symObjAddr: 0x6BA4, symBinAddr: 0xFEE78, symSize: 0x1C }
  - { offset: 0xF8B64, size: 0x8, addend: 0x0, symName: __ZN5godot15ScriptBacktraceD0Ev.cold.1, symObjAddr: 0x6BA4, symBinAddr: 0xFEE78, symSize: 0x1C }
  - { offset: 0xF8B78, size: 0x8, addend: 0x0, symName: __ZN5godot15ScriptBacktraceD0Ev.cold.1, symObjAddr: 0x6BA4, symBinAddr: 0xFEE78, symSize: 0x1C }
  - { offset: 0xF8B8C, size: 0x8, addend: 0x0, symName: __ZN5godot15ScriptBacktraceD0Ev.cold.1, symObjAddr: 0x6BA4, symBinAddr: 0xFEE78, symSize: 0x1C }
  - { offset: 0xF8BA1, size: 0x8, addend: 0x0, symName: __ZN5godot15ScriptBacktraceD0Ev.cold.1, symObjAddr: 0x6BA4, symBinAddr: 0xFEE78, symSize: 0x1C }
  - { offset: 0xF8BC1, size: 0x8, addend: 0x0, symName: __ZN5godot8internal23EngineClassRegistrationINS_10ConfigFileEE8callbackEv.cold.1, symObjAddr: 0x6BC0, symBinAddr: 0xFEE94, symSize: 0x5C }
  - { offset: 0xF8C0B, size: 0x8, addend: 0x0, symName: __ZN5godot10ConfigFileD1Ev.cold.1, symObjAddr: 0x6C1C, symBinAddr: 0xFEEF0, symSize: 0x1C }
  - { offset: 0xF8C26, size: 0x8, addend: 0x0, symName: __ZN5godot10ConfigFileD1Ev.cold.1, symObjAddr: 0x6C1C, symBinAddr: 0xFEEF0, symSize: 0x1C }
  - { offset: 0xF8C3A, size: 0x8, addend: 0x0, symName: __ZN5godot10ConfigFileD1Ev.cold.1, symObjAddr: 0x6C1C, symBinAddr: 0xFEEF0, symSize: 0x1C }
  - { offset: 0xF8C4E, size: 0x8, addend: 0x0, symName: __ZN5godot10ConfigFileD1Ev.cold.1, symObjAddr: 0x6C1C, symBinAddr: 0xFEEF0, symSize: 0x1C }
  - { offset: 0xF8C62, size: 0x8, addend: 0x0, symName: __ZN5godot10ConfigFileD1Ev.cold.1, symObjAddr: 0x6C1C, symBinAddr: 0xFEEF0, symSize: 0x1C }
  - { offset: 0xF8C76, size: 0x8, addend: 0x0, symName: __ZN5godot10ConfigFileD1Ev.cold.1, symObjAddr: 0x6C1C, symBinAddr: 0xFEEF0, symSize: 0x1C }
  - { offset: 0xF8C8B, size: 0x8, addend: 0x0, symName: __ZN5godot10ConfigFileD1Ev.cold.1, symObjAddr: 0x6C1C, symBinAddr: 0xFEEF0, symSize: 0x1C }
  - { offset: 0xF8CBF, size: 0x8, addend: 0x0, symName: __ZN5godot10ConfigFileD0Ev.cold.1, symObjAddr: 0x6C38, symBinAddr: 0xFEF0C, symSize: 0x1C }
  - { offset: 0xF8CDA, size: 0x8, addend: 0x0, symName: __ZN5godot10ConfigFileD0Ev.cold.1, symObjAddr: 0x6C38, symBinAddr: 0xFEF0C, symSize: 0x1C }
  - { offset: 0xF8CEE, size: 0x8, addend: 0x0, symName: __ZN5godot10ConfigFileD0Ev.cold.1, symObjAddr: 0x6C38, symBinAddr: 0xFEF0C, symSize: 0x1C }
  - { offset: 0xF8D02, size: 0x8, addend: 0x0, symName: __ZN5godot10ConfigFileD0Ev.cold.1, symObjAddr: 0x6C38, symBinAddr: 0xFEF0C, symSize: 0x1C }
  - { offset: 0xF8D16, size: 0x8, addend: 0x0, symName: __ZN5godot10ConfigFileD0Ev.cold.1, symObjAddr: 0x6C38, symBinAddr: 0xFEF0C, symSize: 0x1C }
  - { offset: 0xF8D2A, size: 0x8, addend: 0x0, symName: __ZN5godot10ConfigFileD0Ev.cold.1, symObjAddr: 0x6C38, symBinAddr: 0xFEF0C, symSize: 0x1C }
  - { offset: 0xF8D3E, size: 0x8, addend: 0x0, symName: __ZN5godot10ConfigFileD0Ev.cold.1, symObjAddr: 0x6C38, symBinAddr: 0xFEF0C, symSize: 0x1C }
  - { offset: 0xF8D53, size: 0x8, addend: 0x0, symName: __ZN5godot10ConfigFileD0Ev.cold.1, symObjAddr: 0x6C38, symBinAddr: 0xFEF0C, symSize: 0x1C }
  - { offset: 0xF8D73, size: 0x8, addend: 0x0, symName: __ZN5godot8internal23EngineClassRegistrationINS_5MutexEE8callbackEv.cold.1, symObjAddr: 0x6C54, symBinAddr: 0xFEF28, symSize: 0x5C }
  - { offset: 0xF8DBD, size: 0x8, addend: 0x0, symName: __ZN5godot5MutexD1Ev.cold.1, symObjAddr: 0x6CB0, symBinAddr: 0xFEF84, symSize: 0x1C }
  - { offset: 0xF8DD8, size: 0x8, addend: 0x0, symName: __ZN5godot5MutexD1Ev.cold.1, symObjAddr: 0x6CB0, symBinAddr: 0xFEF84, symSize: 0x1C }
  - { offset: 0xF8DEC, size: 0x8, addend: 0x0, symName: __ZN5godot5MutexD1Ev.cold.1, symObjAddr: 0x6CB0, symBinAddr: 0xFEF84, symSize: 0x1C }
  - { offset: 0xF8E00, size: 0x8, addend: 0x0, symName: __ZN5godot5MutexD1Ev.cold.1, symObjAddr: 0x6CB0, symBinAddr: 0xFEF84, symSize: 0x1C }
  - { offset: 0xF8E14, size: 0x8, addend: 0x0, symName: __ZN5godot5MutexD1Ev.cold.1, symObjAddr: 0x6CB0, symBinAddr: 0xFEF84, symSize: 0x1C }
  - { offset: 0xF8E28, size: 0x8, addend: 0x0, symName: __ZN5godot5MutexD1Ev.cold.1, symObjAddr: 0x6CB0, symBinAddr: 0xFEF84, symSize: 0x1C }
  - { offset: 0xF8E3D, size: 0x8, addend: 0x0, symName: __ZN5godot5MutexD1Ev.cold.1, symObjAddr: 0x6CB0, symBinAddr: 0xFEF84, symSize: 0x1C }
  - { offset: 0xF8E71, size: 0x8, addend: 0x0, symName: __ZN5godot5MutexD0Ev.cold.1, symObjAddr: 0x6CCC, symBinAddr: 0xFEFA0, symSize: 0x1C }
  - { offset: 0xF8E8C, size: 0x8, addend: 0x0, symName: __ZN5godot5MutexD0Ev.cold.1, symObjAddr: 0x6CCC, symBinAddr: 0xFEFA0, symSize: 0x1C }
  - { offset: 0xF8EA0, size: 0x8, addend: 0x0, symName: __ZN5godot5MutexD0Ev.cold.1, symObjAddr: 0x6CCC, symBinAddr: 0xFEFA0, symSize: 0x1C }
  - { offset: 0xF8EB4, size: 0x8, addend: 0x0, symName: __ZN5godot5MutexD0Ev.cold.1, symObjAddr: 0x6CCC, symBinAddr: 0xFEFA0, symSize: 0x1C }
  - { offset: 0xF8EC8, size: 0x8, addend: 0x0, symName: __ZN5godot5MutexD0Ev.cold.1, symObjAddr: 0x6CCC, symBinAddr: 0xFEFA0, symSize: 0x1C }
  - { offset: 0xF8EDC, size: 0x8, addend: 0x0, symName: __ZN5godot5MutexD0Ev.cold.1, symObjAddr: 0x6CCC, symBinAddr: 0xFEFA0, symSize: 0x1C }
  - { offset: 0xF8EF0, size: 0x8, addend: 0x0, symName: __ZN5godot5MutexD0Ev.cold.1, symObjAddr: 0x6CCC, symBinAddr: 0xFEFA0, symSize: 0x1C }
  - { offset: 0xF8F05, size: 0x8, addend: 0x0, symName: __ZN5godot5MutexD0Ev.cold.1, symObjAddr: 0x6CCC, symBinAddr: 0xFEFA0, symSize: 0x1C }
  - { offset: 0xF9017, size: 0x8, addend: 0x0, symName: __ZN5godot18create_method_bindIN6sentry11SentryEventENS_6StringEJEEEPNS_10MethodBindEMT_KFT0_DpT1_E.cold.1, symObjAddr: 0x6CE8, symBinAddr: 0xFEFBC, symSize: 0x5C }
  - { offset: 0xF913A, size: 0x8, addend: 0x0, symName: __ZN5godot18create_method_bindIN6sentry11SentryEventEJRKNS_6StringEEEEPNS_10MethodBindEMT_FvDpT0_E.cold.1, symObjAddr: 0x6D44, symBinAddr: 0xFF018, symSize: 0x5C }
  - { offset: 0xF927F, size: 0x8, addend: 0x0, symName: __ZN5godot18create_method_bindIN6sentry11SentryEventEJRKNS_3RefINS1_15SentryTimestampEEEEEEPNS_10MethodBindEMT_FvDpT0_E.cold.1, symObjAddr: 0x6DA0, symBinAddr: 0xFF074, symSize: 0x5C }
  - { offset: 0xF92AE, size: 0x8, addend: 0x0, symName: __ZNK5godot11MethodBindTIJRKNS_3RefIN6sentry15SentryTimestampEEEEE17gen_argument_typeEi, symObjAddr: 0x3520, symBinAddr: 0x1EC3C, symSize: 0x10 }
  - { offset: 0xF92E4, size: 0x8, addend: 0x0, symName: __ZNK5godot11MethodBindTIJRKNS_3RefIN6sentry15SentryTimestampEEEEE22gen_argument_type_infoEi, symObjAddr: 0x3530, symBinAddr: 0x1EC4C, symSize: 0x138 }
  - { offset: 0xF941D, size: 0x8, addend: 0x0, symName: __ZNK5godot11MethodBindTIJRKNS_3RefIN6sentry15SentryTimestampEEEEE21get_argument_metadataEi, symObjAddr: 0x3668, symBinAddr: 0x1ED84, symSize: 0x8 }
  - { offset: 0xF9453, size: 0x8, addend: 0x0, symName: __ZNK5godot11MethodBindTIJRKNS_3RefIN6sentry15SentryTimestampEEEEE4callEPvPKPKvxR20GDExtensionCallError, symObjAddr: 0x3670, symBinAddr: 0x1ED8C, symSize: 0x40 }
  - { offset: 0xF9610, size: 0x8, addend: 0x0, symName: __ZNK5godot11MethodBindTIJRKNS_3RefIN6sentry15SentryTimestampEEEEE7ptrcallEPvPKPKvS8_, symObjAddr: 0x36B0, symBinAddr: 0x1EDCC, symSize: 0xC0 }
  - { offset: 0xF983B, size: 0x8, addend: 0x0, symName: __ZN5godot11MethodBindTIJRKNS_3RefIN6sentry15SentryTimestampEEEEED1Ev, symObjAddr: 0x3770, symBinAddr: 0x1EE8C, symSize: 0x4 }
  - { offset: 0xF985E, size: 0x8, addend: 0x0, symName: __ZN5godot11MethodBindTIJRKNS_3RefIN6sentry15SentryTimestampEEEEED1Ev, symObjAddr: 0x3770, symBinAddr: 0x1EE8C, symSize: 0x4 }
  - { offset: 0xF9896, size: 0x8, addend: 0x0, symName: __ZN5godot11MethodBindTIJRKNS_3RefIN6sentry15SentryTimestampEEEEED0Ev, symObjAddr: 0x3774, symBinAddr: 0x1EE90, symSize: 0x14 }
  - { offset: 0xF98FE, size: 0x8, addend: 0x0, symName: __ZN5godot11GetTypeInfoIRKNS_3RefIN6sentry15SentryTimestampEEEvE14get_class_infoEv, symObjAddr: 0x385C, symBinAddr: 0x1EF78, symSize: 0x12C }
  - { offset: 0xF99AD, size: 0x8, addend: 0x0, symName: __ZN5godot11GetTypeInfoIRKNS_3RefIN6sentry15SentryTimestampEEEvE14get_class_infoEv.cold.1, symObjAddr: 0x6DFC, symBinAddr: 0xFF0D0, symSize: 0x58 }
  - { offset: 0xF9A54, size: 0x8, addend: 0x0, symName: __ZN5godot6Object7cast_toIN6sentry15SentryTimestampEEEPT_PS0_, symObjAddr: 0x3AF8, symBinAddr: 0x1F214, symSize: 0xE8 }
  - { offset: 0xF9AEA, size: 0x8, addend: 0x0, symName: __ZN5godot6Object7cast_toIN6sentry15SentryTimestampEEEPT_PS0_.cold.1, symObjAddr: 0x6E54, symBinAddr: 0xFF128, symSize: 0x5C }
  - { offset: 0xF9B7A, size: 0x8, addend: 0x0, symName: __ZN5godot18create_method_bindIN6sentry11SentryEventENS_3RefINS1_15SentryTimestampEEEJEEEPNS_10MethodBindEMT_KFT0_DpT1_E.cold.1, symObjAddr: 0x6EB0, symBinAddr: 0xFF184, symSize: 0x5C }
  - { offset: 0xF9BA9, size: 0x8, addend: 0x0, symName: __ZNK5godot13MethodBindTRCINS_3RefIN6sentry15SentryTimestampEEEJEE17gen_argument_typeEi, symObjAddr: 0x3D0C, symBinAddr: 0x1F428, symSize: 0x8 }
  - { offset: 0xF9BDF, size: 0x8, addend: 0x0, symName: __ZNK5godot13MethodBindTRCINS_3RefIN6sentry15SentryTimestampEEEJEE22gen_argument_type_infoEi, symObjAddr: 0x3D14, symBinAddr: 0x1F430, symSize: 0x4 }
  - { offset: 0xF9C16, size: 0x8, addend: 0x0, symName: __ZNK5godot13MethodBindTRCINS_3RefIN6sentry15SentryTimestampEEEJEE22gen_argument_type_infoEi, symObjAddr: 0x3D14, symBinAddr: 0x1F430, symSize: 0x4 }
  - { offset: 0xF9C9F, size: 0x8, addend: 0x0, symName: __ZNK5godot13MethodBindTRCINS_3RefIN6sentry15SentryTimestampEEEJEE21get_argument_metadataEi, symObjAddr: 0x3D18, symBinAddr: 0x1F434, symSize: 0x8 }
  - { offset: 0xF9CD5, size: 0x8, addend: 0x0, symName: __ZNK5godot13MethodBindTRCINS_3RefIN6sentry15SentryTimestampEEEJEE4callEPvPKPKvxR20GDExtensionCallError, symObjAddr: 0x3D20, symBinAddr: 0x1F43C, symSize: 0x64 }
  - { offset: 0xF9DC2, size: 0x8, addend: 0x0, symName: __ZNK5godot13MethodBindTRCINS_3RefIN6sentry15SentryTimestampEEEJEE7ptrcallEPvPKPKvS6_, symObjAddr: 0x3D84, symBinAddr: 0x1F4A0, symSize: 0x9C }
  - { offset: 0xF9F34, size: 0x8, addend: 0x0, symName: __ZNK5godot13MethodBindTRCINS_3RefIN6sentry15SentryTimestampEEEJEE7ptrcallEPvPKPKvS6_.cold.1, symObjAddr: 0x6F0C, symBinAddr: 0xFF1E0, symSize: 0x38 }
  - { offset: 0xF9FAB, size: 0x8, addend: 0x0, symName: __ZN5godot13MethodBindTRCINS_3RefIN6sentry15SentryTimestampEEEJEED1Ev, symObjAddr: 0x3E20, symBinAddr: 0x1F53C, symSize: 0x4 }
  - { offset: 0xF9FCE, size: 0x8, addend: 0x0, symName: __ZN5godot13MethodBindTRCINS_3RefIN6sentry15SentryTimestampEEEJEED1Ev, symObjAddr: 0x3E20, symBinAddr: 0x1F53C, symSize: 0x4 }
  - { offset: 0xFA006, size: 0x8, addend: 0x0, symName: __ZN5godot13MethodBindTRCINS_3RefIN6sentry15SentryTimestampEEEJEED0Ev, symObjAddr: 0x3E24, symBinAddr: 0x1F540, symSize: 0x14 }
  - { offset: 0xFA06E, size: 0x8, addend: 0x0, symName: __ZN5godot11GetTypeInfoINS_3RefIN6sentry15SentryTimestampEEEvE14get_class_infoEv.cold.1, symObjAddr: 0x6F44, symBinAddr: 0xFF218, symSize: 0x58 }
  - { offset: 0xFA115, size: 0x8, addend: 0x0, symName: __ZN5godot18create_method_bindIN6sentry11SentryEventEJNS1_5LevelEEEEPNS_10MethodBindEMT_FvDpT0_E.cold.1, symObjAddr: 0x6F9C, symBinAddr: 0xFF270, symSize: 0x5C }
  - { offset: 0xFA1A6, size: 0x8, addend: 0x0, symName: __ZN5godot18create_method_bindIN6sentry11SentryEventENS1_5LevelEJEEEPNS_10MethodBindEMT_KFT0_DpT1_E.cold.1, symObjAddr: 0x6FF8, symBinAddr: 0xFF2CC, symSize: 0x5C }
  - { offset: 0xFA25C, size: 0x8, addend: 0x0, symName: __ZN5godot18create_method_bindIN6sentry11SentryEventEJRKNS_6StringES5_EEEPNS_10MethodBindEMT_FvDpT0_E.cold.1, symObjAddr: 0x7054, symBinAddr: 0xFF328, symSize: 0x5C }
  - { offset: 0xFA28B, size: 0x8, addend: 0x0, symName: __ZNK5godot11MethodBindTIJRKNS_6StringES3_EE17gen_argument_typeEi, symObjAddr: 0x4AC4, symBinAddr: 0x1F990, symSize: 0x10 }
  - { offset: 0xFA2CD, size: 0x8, addend: 0x0, symName: __ZNK5godot11MethodBindTIJRKNS_6StringES3_EE22gen_argument_type_infoEi, symObjAddr: 0x4AD4, symBinAddr: 0x1F9A0, symSize: 0x138 }
  - { offset: 0xFA42C, size: 0x8, addend: 0x0, symName: __ZNK5godot11MethodBindTIJRKNS_6StringES3_EE21get_argument_metadataEi, symObjAddr: 0x4C0C, symBinAddr: 0x1FAD8, symSize: 0x8 }
  - { offset: 0xFA462, size: 0x8, addend: 0x0, symName: __ZNK5godot11MethodBindTIJRKNS_6StringES3_EE4callEPvPKPKvxR20GDExtensionCallError, symObjAddr: 0x4C14, symBinAddr: 0x1FAE0, symSize: 0x40 }
  - { offset: 0xFA50F, size: 0x8, addend: 0x0, symName: __ZNK5godot11MethodBindTIJRKNS_6StringES3_EE7ptrcallEPvPKPKvS5_, symObjAddr: 0x4C54, symBinAddr: 0x1FB20, symSize: 0xA4 }
  - { offset: 0xFA62A, size: 0x8, addend: 0x0, symName: __ZN5godot11MethodBindTIJRKNS_6StringES3_EED1Ev, symObjAddr: 0x4CF8, symBinAddr: 0x1FBC4, symSize: 0x4 }
  - { offset: 0xFA64D, size: 0x8, addend: 0x0, symName: __ZN5godot11MethodBindTIJRKNS_6StringES3_EED1Ev, symObjAddr: 0x4CF8, symBinAddr: 0x1FBC4, symSize: 0x4 }
  - { offset: 0xFA685, size: 0x8, addend: 0x0, symName: __ZN5godot11MethodBindTIJRKNS_6StringES3_EED0Ev, symObjAddr: 0x4CFC, symBinAddr: 0x1FBC8, symSize: 0x14 }
  - { offset: 0xFA74F, size: 0x8, addend: 0x0, symName: __ZN5godot18create_method_bindIN6sentry11SentryEventENS_6StringEJRKS3_EEEPNS_10MethodBindEMT_FT0_DpT1_E.cold.1, symObjAddr: 0x70B0, symBinAddr: 0xFF384, symSize: 0x5C }
  - { offset: 0xFA77E, size: 0x8, addend: 0x0, symName: __ZNK5godot12MethodBindTRINS_6StringEJRKS1_EE17gen_argument_typeEi, symObjAddr: 0x4FD0, symBinAddr: 0x1FE9C, symSize: 0x8 }
  - { offset: 0xFA7B4, size: 0x8, addend: 0x0, symName: __ZNK5godot12MethodBindTRINS_6StringEJRKS1_EE22gen_argument_type_infoEi, symObjAddr: 0x4FD8, symBinAddr: 0x1FEA4, symSize: 0x150 }
  - { offset: 0xFA926, size: 0x8, addend: 0x0, symName: __ZNK5godot12MethodBindTRINS_6StringEJRKS1_EE21get_argument_metadataEi, symObjAddr: 0x5128, symBinAddr: 0x1FFF4, symSize: 0x8 }
  - { offset: 0xFA95C, size: 0x8, addend: 0x0, symName: __ZNK5godot12MethodBindTRINS_6StringEJRKS1_EE4callEPvPKPKvxR20GDExtensionCallError, symObjAddr: 0x5130, symBinAddr: 0x1FFFC, symSize: 0x64 }
  - { offset: 0xFAA04, size: 0x8, addend: 0x0, symName: __ZNK5godot12MethodBindTRINS_6StringEJRKS1_EE7ptrcallEPvPKPKvS5_, symObjAddr: 0x5194, symBinAddr: 0x20060, symSize: 0xA4 }
  - { offset: 0xFAB20, size: 0x8, addend: 0x0, symName: __ZN5godot12MethodBindTRINS_6StringEJRKS1_EED1Ev, symObjAddr: 0x5238, symBinAddr: 0x20104, symSize: 0x4 }
  - { offset: 0xFAB43, size: 0x8, addend: 0x0, symName: __ZN5godot12MethodBindTRINS_6StringEJRKS1_EED1Ev, symObjAddr: 0x5238, symBinAddr: 0x20104, symSize: 0x4 }
  - { offset: 0xFAB7B, size: 0x8, addend: 0x0, symName: __ZN5godot12MethodBindTRINS_6StringEJRKS1_EED0Ev, symObjAddr: 0x523C, symBinAddr: 0x20108, symSize: 0x14 }
  - { offset: 0xFAC45, size: 0x8, addend: 0x0, symName: __ZN5godot18create_method_bindIN6sentry11SentryEventEbJEEEPNS_10MethodBindEMT_KFT0_DpT1_E.cold.1, symObjAddr: 0x710C, symBinAddr: 0xFF3E0, symSize: 0x5C }
  - { offset: 0xFAC74, size: 0x8, addend: 0x0, symName: __ZNK5godot13MethodBindTRCIbJEE17gen_argument_typeEi, symObjAddr: 0x54E0, symBinAddr: 0x203AC, symSize: 0x8 }
  - { offset: 0xFACB1, size: 0x8, addend: 0x0, symName: __ZNK5godot13MethodBindTRCIbJEE22gen_argument_type_infoEi, symObjAddr: 0x54E8, symBinAddr: 0x203B4, symSize: 0xF8 }
  - { offset: 0xFAD74, size: 0x8, addend: 0x0, symName: __ZNK5godot13MethodBindTRCIbJEE21get_argument_metadataEi, symObjAddr: 0x55E0, symBinAddr: 0x204AC, symSize: 0x8 }
  - { offset: 0xFADAA, size: 0x8, addend: 0x0, symName: __ZNK5godot13MethodBindTRCIbJEE4callEPvPKPKvxR20GDExtensionCallError, symObjAddr: 0x55E8, symBinAddr: 0x204B4, symSize: 0xC0 }
  - { offset: 0xFAEC1, size: 0x8, addend: 0x0, symName: __ZNK5godot13MethodBindTRCIbJEE7ptrcallEPvPKPKvS2_, symObjAddr: 0x56A8, symBinAddr: 0x20574, symSize: 0x38 }
  - { offset: 0xFAFA7, size: 0x8, addend: 0x0, symName: __ZN5godot13MethodBindTRCIbJEED1Ev, symObjAddr: 0x56E0, symBinAddr: 0x205AC, symSize: 0x4 }
  - { offset: 0xFAFCA, size: 0x8, addend: 0x0, symName: __ZN5godot13MethodBindTRCIbJEED1Ev, symObjAddr: 0x56E0, symBinAddr: 0x205AC, symSize: 0x4 }
  - { offset: 0xFB002, size: 0x8, addend: 0x0, symName: __ZN5godot13MethodBindTRCIbJEED0Ev, symObjAddr: 0x56E4, symBinAddr: 0x205B0, symSize: 0x14 }
  - { offset: 0xFB0CC, size: 0x8, addend: 0x0, symName: __ZN5godot18create_method_bindIN6sentry11SentryEventEiJEEEPNS_10MethodBindEMT_KFT0_DpT1_E.cold.1, symObjAddr: 0x7168, symBinAddr: 0xFF43C, symSize: 0x5C }
  - { offset: 0xFB0FB, size: 0x8, addend: 0x0, symName: __ZNK5godot13MethodBindTRCIiJEE17gen_argument_typeEi, symObjAddr: 0x5824, symBinAddr: 0x206F0, symSize: 0x8 }
  - { offset: 0xFB138, size: 0x8, addend: 0x0, symName: __ZNK5godot13MethodBindTRCIiJEE22gen_argument_type_infoEi, symObjAddr: 0x582C, symBinAddr: 0x206F8, symSize: 0xF8 }
  - { offset: 0xFB1FB, size: 0x8, addend: 0x0, symName: __ZNK5godot13MethodBindTRCIiJEE21get_argument_metadataEi, symObjAddr: 0x5924, symBinAddr: 0x207F0, symSize: 0xC }
  - { offset: 0xFB231, size: 0x8, addend: 0x0, symName: __ZNK5godot13MethodBindTRCIiJEE4callEPvPKPKvxR20GDExtensionCallError, symObjAddr: 0x5930, symBinAddr: 0x207FC, symSize: 0xC0 }
  - { offset: 0xFB371, size: 0x8, addend: 0x0, symName: __ZNK5godot13MethodBindTRCIiJEE7ptrcallEPvPKPKvS2_, symObjAddr: 0x59F0, symBinAddr: 0x208BC, symSize: 0x3C }
  - { offset: 0xFB45E, size: 0x8, addend: 0x0, symName: __ZN5godot13MethodBindTRCIiJEED1Ev, symObjAddr: 0x5A2C, symBinAddr: 0x208F8, symSize: 0x4 }
  - { offset: 0xFB481, size: 0x8, addend: 0x0, symName: __ZN5godot13MethodBindTRCIiJEED1Ev, symObjAddr: 0x5A2C, symBinAddr: 0x208F8, symSize: 0x4 }
  - { offset: 0xFB4B9, size: 0x8, addend: 0x0, symName: __ZN5godot13MethodBindTRCIiJEED0Ev, symObjAddr: 0x5A30, symBinAddr: 0x208FC, symSize: 0x14 }
  - { offset: 0xFB583, size: 0x8, addend: 0x0, symName: __ZN5godot18create_method_bindIN6sentry11SentryEventEJiRKNS_6StringEEEEPNS_10MethodBindEMT_FvDpT0_E.cold.1, symObjAddr: 0x71C4, symBinAddr: 0xFF498, symSize: 0x5C }
  - { offset: 0xFB5B2, size: 0x8, addend: 0x0, symName: __ZNK5godot11MethodBindTIJiRKNS_6StringEEE17gen_argument_typeEi, symObjAddr: 0x5B5C, symBinAddr: 0x20A28, symSize: 0x24 }
  - { offset: 0xFB5E8, size: 0x8, addend: 0x0, symName: __ZNK5godot11MethodBindTIJiRKNS_6StringEEE22gen_argument_type_infoEi, symObjAddr: 0x5B80, symBinAddr: 0x20A4C, symSize: 0x138 }
  - { offset: 0xFB751, size: 0x8, addend: 0x0, symName: __ZNK5godot11MethodBindTIJiRKNS_6StringEEE21get_argument_metadataEi, symObjAddr: 0x5CB8, symBinAddr: 0x20B84, symSize: 0x10 }
  - { offset: 0xFB78A, size: 0x8, addend: 0x0, symName: __ZNK5godot11MethodBindTIJiRKNS_6StringEEE21get_argument_metadataEi, symObjAddr: 0x5CB8, symBinAddr: 0x20B84, symSize: 0x10 }
  - { offset: 0xFB7C3, size: 0x8, addend: 0x0, symName: __ZNK5godot11MethodBindTIJiRKNS_6StringEEE21get_argument_metadataEi, symObjAddr: 0x5CB8, symBinAddr: 0x20B84, symSize: 0x10 }
  - { offset: 0xFB7DF, size: 0x8, addend: 0x0, symName: __ZNK5godot11MethodBindTIJiRKNS_6StringEEE4callEPvPKPKvxR20GDExtensionCallError, symObjAddr: 0x5CC8, symBinAddr: 0x20B94, symSize: 0x40 }
  - { offset: 0xFB89F, size: 0x8, addend: 0x0, symName: __ZNK5godot11MethodBindTIJiRKNS_6StringEEE7ptrcallEPvPKPKvS5_, symObjAddr: 0x5D08, symBinAddr: 0x20BD4, symSize: 0x90 }
  - { offset: 0xFB9BA, size: 0x8, addend: 0x0, symName: __ZN5godot11MethodBindTIJiRKNS_6StringEEED1Ev, symObjAddr: 0x5D98, symBinAddr: 0x20C64, symSize: 0x4 }
  - { offset: 0xFB9DD, size: 0x8, addend: 0x0, symName: __ZN5godot11MethodBindTIJiRKNS_6StringEEED1Ev, symObjAddr: 0x5D98, symBinAddr: 0x20C64, symSize: 0x4 }
  - { offset: 0xFBA15, size: 0x8, addend: 0x0, symName: __ZN5godot11MethodBindTIJiRKNS_6StringEEED0Ev, symObjAddr: 0x5D9C, symBinAddr: 0x20C68, symSize: 0x14 }
  - { offset: 0xFBAF2, size: 0x8, addend: 0x0, symName: __ZN5godot18create_method_bindIN6sentry11SentryEventENS_6StringEJiEEEPNS_10MethodBindEMT_KFT0_DpT1_E.cold.1, symObjAddr: 0x7220, symBinAddr: 0xFF4F4, symSize: 0x5C }
  - { offset: 0xFBB21, size: 0x8, addend: 0x0, symName: __ZNK5godot13MethodBindTRCINS_6StringEJiEE17gen_argument_typeEi, symObjAddr: 0x61E8, symBinAddr: 0x210B4, symSize: 0x14 }
  - { offset: 0xFBB57, size: 0x8, addend: 0x0, symName: __ZNK5godot13MethodBindTRCINS_6StringEJiEE22gen_argument_type_infoEi, symObjAddr: 0x61FC, symBinAddr: 0x210C8, symSize: 0x150 }
  - { offset: 0xFBCC9, size: 0x8, addend: 0x0, symName: __ZNK5godot13MethodBindTRCINS_6StringEJiEE21get_argument_metadataEi, symObjAddr: 0x634C, symBinAddr: 0x21218, symSize: 0x14 }
  - { offset: 0xFBCFF, size: 0x8, addend: 0x0, symName: __ZNK5godot13MethodBindTRCINS_6StringEJiEE4callEPvPKPKvxR20GDExtensionCallError, symObjAddr: 0x6360, symBinAddr: 0x2122C, symSize: 0x64 }
  - { offset: 0xFBDA7, size: 0x8, addend: 0x0, symName: __ZNK5godot13MethodBindTRCINS_6StringEJiEE7ptrcallEPvPKPKvS3_, symObjAddr: 0x63C4, symBinAddr: 0x21290, symSize: 0x88 }
  - { offset: 0xFBEB7, size: 0x8, addend: 0x0, symName: __ZN5godot13MethodBindTRCINS_6StringEJiEED1Ev, symObjAddr: 0x644C, symBinAddr: 0x21318, symSize: 0x4 }
  - { offset: 0xFBEDA, size: 0x8, addend: 0x0, symName: __ZN5godot13MethodBindTRCINS_6StringEJiEED1Ev, symObjAddr: 0x644C, symBinAddr: 0x21318, symSize: 0x4 }
  - { offset: 0xFBF12, size: 0x8, addend: 0x0, symName: __ZN5godot13MethodBindTRCINS_6StringEJiEED0Ev, symObjAddr: 0x6450, symBinAddr: 0x2131C, symSize: 0x14 }
  - { offset: 0xFBF7A, size: 0x8, addend: 0x0, symName: _OUTLINED_FUNCTION_0, symObjAddr: 0x727C, symBinAddr: 0x21488, symSize: 0x10 }
  - { offset: 0xFBF92, size: 0x8, addend: 0x0, symName: _OUTLINED_FUNCTION_1, symObjAddr: 0x728C, symBinAddr: 0x21498, symSize: 0xC }
  - { offset: 0xFBFAA, size: 0x8, addend: 0x0, symName: _OUTLINED_FUNCTION_2, symObjAddr: 0x7298, symBinAddr: 0x214A4, symSize: 0xC }
  - { offset: 0xFBFC2, size: 0x8, addend: 0x0, symName: _OUTLINED_FUNCTION_3, symObjAddr: 0x72A4, symBinAddr: 0x214B0, symSize: 0x8 }
  - { offset: 0xFBFDA, size: 0x8, addend: 0x0, symName: _OUTLINED_FUNCTION_4, symObjAddr: 0x72AC, symBinAddr: 0x214B8, symSize: 0x8 }
  - { offset: 0xFBFF2, size: 0x8, addend: 0x0, symName: _OUTLINED_FUNCTION_5, symObjAddr: 0x72B4, symBinAddr: 0x214C0, symSize: 0x8 }
  - { offset: 0xFC00A, size: 0x8, addend: 0x0, symName: _OUTLINED_FUNCTION_6, symObjAddr: 0x72BC, symBinAddr: 0x214C8, symSize: 0x8 }
  - { offset: 0xFFFEE, size: 0x8, addend: 0x0, symName: __ZN5godot18create_method_bindIN6sentry14SentryFeedbackEJRKNS_6StringEEEEPNS_10MethodBindEMT_FvDpT0_E, symObjAddr: 0x11AC, symBinAddr: 0x22248, symSize: 0x114 }
  - { offset: 0x100136, size: 0x8, addend: 0x0, symName: __ZN5godot18create_method_bindIN6sentry14SentryFeedbackENS_6StringEJEEEPNS_10MethodBindEMT_KFT0_DpT1_E, symObjAddr: 0x1790, symBinAddr: 0x2235C, symSize: 0x12C }
  - { offset: 0x10CC68, size: 0x8, addend: 0x0, symName: ___cxx_global_var_init, symObjAddr: 0x1FC4, symBinAddr: 0x2250C, symSize: 0x4C }
  - { offset: 0x10CCED, size: 0x8, addend: 0x0, symName: ___cxx_global_var_init.1, symObjAddr: 0x2010, symBinAddr: 0x22558, symSize: 0x4C }
  - { offset: 0x10CD72, size: 0x8, addend: 0x0, symName: ___cxx_global_var_init.2, symObjAddr: 0x205C, symBinAddr: 0x225A4, symSize: 0x4C }
  - { offset: 0x10D1CD, size: 0x8, addend: 0x0, symName: __ZN6sentry14SentryFeedback13_bind_methodsEv, symObjAddr: 0x0, symBinAddr: 0x216E4, symSize: 0xB50 }
  - { offset: 0x10EC3C, size: 0x8, addend: 0x0, symName: __ZN6sentry14SentryFeedback13_bind_methodsEv.cold.1, symObjAddr: 0x1B64, symBinAddr: 0xFF550, symSize: 0x5C }
  - { offset: 0x10EC6A, size: 0x8, addend: 0x0, symName: __ZN6sentry14SentryFeedback13_bind_methodsEv.cold.2, symObjAddr: 0x1BC0, symBinAddr: 0xFF5AC, symSize: 0x58 }
  - { offset: 0x10EC98, size: 0x8, addend: 0x0, symName: __ZN6sentry14SentryFeedback13_bind_methodsEv.cold.3, symObjAddr: 0x1C18, symBinAddr: 0xFF604, symSize: 0x58 }
  - { offset: 0x10ECC6, size: 0x8, addend: 0x0, symName: __ZN6sentry14SentryFeedback13_bind_methodsEv.cold.4, symObjAddr: 0x1C70, symBinAddr: 0xFF65C, symSize: 0x58 }
  - { offset: 0x10ECFB, size: 0x8, addend: 0x0, symName: __ZN5godot8internal23EngineClassRegistrationINS_6ObjectEE8callbackEv.cold.1, symObjAddr: 0x1CC8, symBinAddr: 0xFF6B4, symSize: 0x5C }
  - { offset: 0x10ED96, size: 0x8, addend: 0x0, symName: __ZN5godot6ObjectD1Ev.cold.1, symObjAddr: 0x1D24, symBinAddr: 0xFF710, symSize: 0x1C }
  - { offset: 0x10EDB1, size: 0x8, addend: 0x0, symName: __ZN5godot6ObjectD1Ev.cold.1, symObjAddr: 0x1D24, symBinAddr: 0xFF710, symSize: 0x1C }
  - { offset: 0x10EDC5, size: 0x8, addend: 0x0, symName: __ZN5godot6ObjectD1Ev.cold.1, symObjAddr: 0x1D24, symBinAddr: 0xFF710, symSize: 0x1C }
  - { offset: 0x10EDD9, size: 0x8, addend: 0x0, symName: __ZN5godot6ObjectD1Ev.cold.1, symObjAddr: 0x1D24, symBinAddr: 0xFF710, symSize: 0x1C }
  - { offset: 0x10EDEE, size: 0x8, addend: 0x0, symName: __ZN5godot6ObjectD1Ev.cold.1, symObjAddr: 0x1D24, symBinAddr: 0xFF710, symSize: 0x1C }
  - { offset: 0x10EE1E, size: 0x8, addend: 0x0, symName: __ZN5godot6ObjectD0Ev.cold.1, symObjAddr: 0x1D40, symBinAddr: 0xFF72C, symSize: 0x1C }
  - { offset: 0x10EE39, size: 0x8, addend: 0x0, symName: __ZN5godot6ObjectD0Ev.cold.1, symObjAddr: 0x1D40, symBinAddr: 0xFF72C, symSize: 0x1C }
  - { offset: 0x10EE4D, size: 0x8, addend: 0x0, symName: __ZN5godot6ObjectD0Ev.cold.1, symObjAddr: 0x1D40, symBinAddr: 0xFF72C, symSize: 0x1C }
  - { offset: 0x10EE61, size: 0x8, addend: 0x0, symName: __ZN5godot6ObjectD0Ev.cold.1, symObjAddr: 0x1D40, symBinAddr: 0xFF72C, symSize: 0x1C }
  - { offset: 0x10EE75, size: 0x8, addend: 0x0, symName: __ZN5godot6ObjectD0Ev.cold.1, symObjAddr: 0x1D40, symBinAddr: 0xFF72C, symSize: 0x1C }
  - { offset: 0x10EE8A, size: 0x8, addend: 0x0, symName: __ZN5godot6ObjectD0Ev.cold.1, symObjAddr: 0x1D40, symBinAddr: 0xFF72C, symSize: 0x1C }
  - { offset: 0x10EEA1, size: 0x8, addend: 0x0, symName: __ZN5godot7WrappedD1Ev.cold.1, symObjAddr: 0x1D5C, symBinAddr: 0xFF748, symSize: 0x1C }
  - { offset: 0x10EEBC, size: 0x8, addend: 0x0, symName: __ZN5godot7WrappedD1Ev.cold.1, symObjAddr: 0x1D5C, symBinAddr: 0xFF748, symSize: 0x1C }
  - { offset: 0x10EED0, size: 0x8, addend: 0x0, symName: __ZN5godot7WrappedD1Ev.cold.1, symObjAddr: 0x1D5C, symBinAddr: 0xFF748, symSize: 0x1C }
  - { offset: 0x10EEE5, size: 0x8, addend: 0x0, symName: __ZN5godot7WrappedD1Ev.cold.1, symObjAddr: 0x1D5C, symBinAddr: 0xFF748, symSize: 0x1C }
  - { offset: 0x10EF14, size: 0x8, addend: 0x0, symName: __ZN5godot7WrappedD0Ev.cold.1, symObjAddr: 0x1D78, symBinAddr: 0xFF764, symSize: 0x1C }
  - { offset: 0x10EF2F, size: 0x8, addend: 0x0, symName: __ZN5godot7WrappedD0Ev.cold.1, symObjAddr: 0x1D78, symBinAddr: 0xFF764, symSize: 0x1C }
  - { offset: 0x10EF43, size: 0x8, addend: 0x0, symName: __ZN5godot7WrappedD0Ev.cold.1, symObjAddr: 0x1D78, symBinAddr: 0xFF764, symSize: 0x1C }
  - { offset: 0x10EF57, size: 0x8, addend: 0x0, symName: __ZN5godot7WrappedD0Ev.cold.1, symObjAddr: 0x1D78, symBinAddr: 0xFF764, symSize: 0x1C }
  - { offset: 0x10EF6C, size: 0x8, addend: 0x0, symName: __ZN5godot7WrappedD0Ev.cold.1, symObjAddr: 0x1D78, symBinAddr: 0xFF764, symSize: 0x1C }
  - { offset: 0x10EF82, size: 0x8, addend: 0x0, symName: __ZN5godot4ListINS_12PropertyInfoENS_16DefaultAllocatorEE5_Data5eraseEPNS3_7ElementE.cold.2, symObjAddr: 0x1DB4, symBinAddr: 0xFF7A0, symSize: 0x20 }
  - { offset: 0x10EF9A, size: 0x8, addend: 0x0, symName: __ZN5godot4ListINS_12PropertyInfoENS_16DefaultAllocatorEE5_Data5eraseEPNS3_7ElementE.cold.1, symObjAddr: 0x1D94, symBinAddr: 0xFF780, symSize: 0x20 }
  - { offset: 0x10EFB9, size: 0x8, addend: 0x0, symName: __ZN5godot8internal23EngineClassRegistrationINS_16ClassDBSingletonEE8callbackEv.cold.1, symObjAddr: 0x1DD4, symBinAddr: 0xFF7C0, symSize: 0x5C }
  - { offset: 0x10EFEE, size: 0x8, addend: 0x0, symName: __ZN5godot8internal23EngineClassRegistrationINS_10RefCountedEE8callbackEv.cold.1, symObjAddr: 0x1E30, symBinAddr: 0xFF81C, symSize: 0x5C }
  - { offset: 0x10F038, size: 0x8, addend: 0x0, symName: __ZN5godot10RefCountedD1Ev.cold.1, symObjAddr: 0x1E8C, symBinAddr: 0xFF878, symSize: 0x1C }
  - { offset: 0x10F053, size: 0x8, addend: 0x0, symName: __ZN5godot10RefCountedD1Ev.cold.1, symObjAddr: 0x1E8C, symBinAddr: 0xFF878, symSize: 0x1C }
  - { offset: 0x10F067, size: 0x8, addend: 0x0, symName: __ZN5godot10RefCountedD1Ev.cold.1, symObjAddr: 0x1E8C, symBinAddr: 0xFF878, symSize: 0x1C }
  - { offset: 0x10F07B, size: 0x8, addend: 0x0, symName: __ZN5godot10RefCountedD1Ev.cold.1, symObjAddr: 0x1E8C, symBinAddr: 0xFF878, symSize: 0x1C }
  - { offset: 0x10F08F, size: 0x8, addend: 0x0, symName: __ZN5godot10RefCountedD1Ev.cold.1, symObjAddr: 0x1E8C, symBinAddr: 0xFF878, symSize: 0x1C }
  - { offset: 0x10F0A4, size: 0x8, addend: 0x0, symName: __ZN5godot10RefCountedD1Ev.cold.1, symObjAddr: 0x1E8C, symBinAddr: 0xFF878, symSize: 0x1C }
  - { offset: 0x10F0D7, size: 0x8, addend: 0x0, symName: __ZN5godot10RefCountedD0Ev.cold.1, symObjAddr: 0x1EA8, symBinAddr: 0xFF894, symSize: 0x1C }
  - { offset: 0x10F0F2, size: 0x8, addend: 0x0, symName: __ZN5godot10RefCountedD0Ev.cold.1, symObjAddr: 0x1EA8, symBinAddr: 0xFF894, symSize: 0x1C }
  - { offset: 0x10F106, size: 0x8, addend: 0x0, symName: __ZN5godot10RefCountedD0Ev.cold.1, symObjAddr: 0x1EA8, symBinAddr: 0xFF894, symSize: 0x1C }
  - { offset: 0x10F11A, size: 0x8, addend: 0x0, symName: __ZN5godot10RefCountedD0Ev.cold.1, symObjAddr: 0x1EA8, symBinAddr: 0xFF894, symSize: 0x1C }
  - { offset: 0x10F12E, size: 0x8, addend: 0x0, symName: __ZN5godot10RefCountedD0Ev.cold.1, symObjAddr: 0x1EA8, symBinAddr: 0xFF894, symSize: 0x1C }
  - { offset: 0x10F142, size: 0x8, addend: 0x0, symName: __ZN5godot10RefCountedD0Ev.cold.1, symObjAddr: 0x1EA8, symBinAddr: 0xFF894, symSize: 0x1C }
  - { offset: 0x10F157, size: 0x8, addend: 0x0, symName: __ZN5godot10RefCountedD0Ev.cold.1, symObjAddr: 0x1EA8, symBinAddr: 0xFF894, symSize: 0x1C }
  - { offset: 0x10F16F, size: 0x8, addend: 0x0, symName: __ZN6sentry14SentryFeedback8set_nameERKN5godot6StringE, symObjAddr: 0x1198, symBinAddr: 0x22234, symSize: 0x8 }
  - { offset: 0x10F1A4, size: 0x8, addend: 0x0, symName: __ZNK6sentry14SentryFeedback8get_nameEv, symObjAddr: 0x11A0, symBinAddr: 0x2223C, symSize: 0xC }
  - { offset: 0x10F2C4, size: 0x8, addend: 0x0, symName: __ZN5godot18create_method_bindIN6sentry14SentryFeedbackEJRKNS_6StringEEEEPNS_10MethodBindEMT_FvDpT0_E.cold.1, symObjAddr: 0x1EC4, symBinAddr: 0xFF8B0, symSize: 0x5C }
  - { offset: 0x10F35A, size: 0x8, addend: 0x0, symName: __ZN5godot18create_method_bindIN6sentry14SentryFeedbackENS_6StringEJEEEPNS_10MethodBindEMT_KFT0_DpT1_E.cold.1, symObjAddr: 0x1F20, symBinAddr: 0xFF90C, symSize: 0x5C }
  - { offset: 0x10F389, size: 0x8, addend: 0x0, symName: __ZN6sentry14SentryFeedback17set_contact_emailERKN5godot6StringE, symObjAddr: 0x1B28, symBinAddr: 0x22488, symSize: 0x8 }
  - { offset: 0x10F3BE, size: 0x8, addend: 0x0, symName: __ZNK6sentry14SentryFeedback17get_contact_emailEv, symObjAddr: 0x1B30, symBinAddr: 0x22490, symSize: 0xC }
  - { offset: 0x10F3E5, size: 0x8, addend: 0x0, symName: __ZN6sentry14SentryFeedback11set_messageERKN5godot6StringE, symObjAddr: 0x1B3C, symBinAddr: 0x2249C, symSize: 0x8 }
  - { offset: 0x10F41A, size: 0x8, addend: 0x0, symName: __ZNK6sentry14SentryFeedback11get_messageEv, symObjAddr: 0x1B44, symBinAddr: 0x224A4, symSize: 0xC }
  - { offset: 0x10F441, size: 0x8, addend: 0x0, symName: __ZN6sentry14SentryFeedback23set_associated_event_idERKN5godot6StringE, symObjAddr: 0x1B50, symBinAddr: 0x224B0, symSize: 0x8 }
  - { offset: 0x10F476, size: 0x8, addend: 0x0, symName: __ZNK6sentry14SentryFeedback23get_associated_event_idEv, symObjAddr: 0x1B58, symBinAddr: 0x224B8, symSize: 0xC }
  - { offset: 0x10F49D, size: 0x8, addend: 0x0, symName: _OUTLINED_FUNCTION_0, symObjAddr: 0x1F7C, symBinAddr: 0x224C4, symSize: 0x10 }
  - { offset: 0x10F4B5, size: 0x8, addend: 0x0, symName: _OUTLINED_FUNCTION_1, symObjAddr: 0x1F8C, symBinAddr: 0x224D4, symSize: 0xC }
  - { offset: 0x10F4CD, size: 0x8, addend: 0x0, symName: _OUTLINED_FUNCTION_2, symObjAddr: 0x1F98, symBinAddr: 0x224E0, symSize: 0x8 }
  - { offset: 0x10F4E5, size: 0x8, addend: 0x0, symName: _OUTLINED_FUNCTION_3, symObjAddr: 0x1FA0, symBinAddr: 0x224E8, symSize: 0x8 }
  - { offset: 0x10F4FD, size: 0x8, addend: 0x0, symName: _OUTLINED_FUNCTION_4, symObjAddr: 0x1FA8, symBinAddr: 0x224F0, symSize: 0x8 }
  - { offset: 0x10F515, size: 0x8, addend: 0x0, symName: _OUTLINED_FUNCTION_5, symObjAddr: 0x1FB0, symBinAddr: 0x224F8, symSize: 0xC }
  - { offset: 0x10F52D, size: 0x8, addend: 0x0, symName: _OUTLINED_FUNCTION_6, symObjAddr: 0x1FBC, symBinAddr: 0x22504, symSize: 0x8 }
  - { offset: 0x113647, size: 0x8, addend: 0x0, symName: __ZN5godot18create_method_bindIN6sentry9SentryLogEJNS1_8LogLevelEEEEPNS_10MethodBindEMT_FvDpT0_E, symObjAddr: 0x13B8, symBinAddr: 0x23360, symSize: 0x114 }
  - { offset: 0x11378F, size: 0x8, addend: 0x0, symName: __ZN5godot18create_method_bindIN6sentry9SentryLogENS1_8LogLevelEJEEEPNS_10MethodBindEMT_KFT0_DpT1_E, symObjAddr: 0x1AC8, symBinAddr: 0x23960, symSize: 0x12C }
  - { offset: 0x1138C5, size: 0x8, addend: 0x0, symName: __ZN5godot18create_method_bindIN6sentry9SentryLogEJRKNS_6StringEEEEPNS_10MethodBindEMT_FvDpT0_E, symObjAddr: 0x3390, symBinAddr: 0x24978, symSize: 0x114 }
  - { offset: 0x1139F8, size: 0x8, addend: 0x0, symName: __ZN5godot18create_method_bindIN6sentry9SentryLogENS_6StringEJEEEPNS_10MethodBindEMT_KFT0_DpT1_E, symObjAddr: 0x1D1C, symBinAddr: 0x23BB4, symSize: 0x12C }
  - { offset: 0x113B2E, size: 0x8, addend: 0x0, symName: __ZN5godot18create_method_bindIN6sentry9SentryLogENS_7VariantEJRKNS_6StringEEEEPNS_10MethodBindEMT_KFT0_DpT1_E, symObjAddr: 0x20B4, symBinAddr: 0x23CE0, symSize: 0x12C }
  - { offset: 0x113C6A, size: 0x8, addend: 0x0, symName: __ZN5godot18create_method_bindIN6sentry9SentryLogEJRKNS_6StringERKNS_7VariantEEEEPNS_10MethodBindEMT_FvDpT0_E, symObjAddr: 0x2730, symBinAddr: 0x241E8, symSize: 0x118 }
  - { offset: 0x113DA2, size: 0x8, addend: 0x0, symName: __ZN5godot18create_method_bindIN6sentry9SentryLogEJRKNS_10DictionaryEEEEPNS_10MethodBindEMT_FvDpT0_E, symObjAddr: 0x2DAC, symBinAddr: 0x24864, symSize: 0x114 }
  - { offset: 0x114048, size: 0x8, addend: 0x0, symName: __ZN5godot34call_get_argument_type_info_helperIN6sentry8LogLevelEEEviRiRNS_12PropertyInfoE, symObjAddr: 0x1694, symBinAddr: 0x2363C, symSize: 0xD4 }
  - { offset: 0x114100, size: 0x8, addend: 0x0, symName: __ZN5godot25call_with_variant_args_dvINS_20_gde_UnexistingClassEJN6sentry8LogLevelEEEEvPT_MS4_FvDpT0_EPKPKviR20GDExtensionCallErrorRKNSt3__16vectorINS_7VariantENSG_9allocatorISI_EEEE, symObjAddr: 0x19A0, symBinAddr: 0x23838, symSize: 0x128 }
  - { offset: 0x114AED, size: 0x8, addend: 0x0, symName: __ZN5godot30call_with_variant_args_retc_dvINS_20_gde_UnexistingClassENS_7VariantEJRKNS_6StringEEEEvPT_MS6_KFT0_DpT1_EPKPKviRS2_R20GDExtensionCallErrorRKNSt3__16vectorIS2_NSK_9allocatorIS2_EEEE, symObjAddr: 0x25E0, symBinAddr: 0x24098, symSize: 0x150 }
  - { offset: 0x114F8F, size: 0x8, addend: 0x0, symName: __ZN5godot34call_get_argument_type_info_helperIRKNS_7VariantEEEviRiRNS_12PropertyInfoE, symObjAddr: 0x2A94, symBinAddr: 0x2454C, symSize: 0x178 }
  - { offset: 0x1150B4, size: 0x8, addend: 0x0, symName: __ZN5godot25call_with_variant_args_dvINS_20_gde_UnexistingClassEJRKNS_6StringERKNS_7VariantEEEEvPT_MS8_FvDpT0_EPKPKviR20GDExtensionCallErrorRKNSt3__16vectorIS5_NSK_9allocatorIS5_EEEE, symObjAddr: 0x2C0C, symBinAddr: 0x246C4, symSize: 0x1A0 }
  - { offset: 0x121A9E, size: 0x8, addend: 0x0, symName: __ZN6sentry28make_log_level_enum_propertyERKN5godot6StringE, symObjAddr: 0xC68, symBinAddr: 0x23258, symSize: 0x108 }
  - { offset: 0x12281F, size: 0x8, addend: 0x0, symName: ___cxx_global_var_init, symObjAddr: 0x3F8C, symBinAddr: 0x24AD4, symSize: 0x4C }
  - { offset: 0x1228A4, size: 0x8, addend: 0x0, symName: ___cxx_global_var_init.1, symObjAddr: 0x3FD8, symBinAddr: 0x24B20, symSize: 0x4C }
  - { offset: 0x122929, size: 0x8, addend: 0x0, symName: ___cxx_global_var_init.2, symObjAddr: 0x4024, symBinAddr: 0x24B6C, symSize: 0x4C }
  - { offset: 0x1232E9, size: 0x8, addend: 0x0, symName: __ZN6sentry9SentryLog13_bind_methodsEv, symObjAddr: 0x0, symBinAddr: 0x225F0, symSize: 0xC68 }
  - { offset: 0x1250BB, size: 0x8, addend: 0x0, symName: __ZN5godot11GetTypeInfoIN6sentry8LogLevelEvE14get_class_infoEv, symObjAddr: 0x1768, symBinAddr: 0x23710, symSize: 0x128 }
  - { offset: 0x125163, size: 0x8, addend: 0x0, symName: __ZN6sentry9SentryLog13_bind_methodsEv.cold.1, symObjAddr: 0x3800, symBinAddr: 0xFF968, symSize: 0x5C }
  - { offset: 0x125191, size: 0x8, addend: 0x0, symName: __ZN6sentry9SentryLog13_bind_methodsEv.cold.2, symObjAddr: 0x385C, symBinAddr: 0xFF9C4, symSize: 0x58 }
  - { offset: 0x1251BF, size: 0x8, addend: 0x0, symName: __ZN6sentry9SentryLog13_bind_methodsEv.cold.3, symObjAddr: 0x38B4, symBinAddr: 0xFFA1C, symSize: 0x58 }
  - { offset: 0x1251ED, size: 0x8, addend: 0x0, symName: __ZN6sentry9SentryLog13_bind_methodsEv.cold.4, symObjAddr: 0x390C, symBinAddr: 0xFFA74, symSize: 0x58 }
  - { offset: 0x12521B, size: 0x8, addend: 0x0, symName: __ZN6sentry9SentryLog13_bind_methodsEv.cold.5, symObjAddr: 0x3964, symBinAddr: 0xFFACC, symSize: 0x58 }
  - { offset: 0x125249, size: 0x8, addend: 0x0, symName: __ZN6sentry9SentryLog13_bind_methodsEv.cold.6, symObjAddr: 0x39BC, symBinAddr: 0xFFB24, symSize: 0x58 }
  - { offset: 0x125277, size: 0x8, addend: 0x0, symName: __ZN6sentry9SentryLog13_bind_methodsEv.cold.7, symObjAddr: 0x3A14, symBinAddr: 0xFFB7C, symSize: 0x58 }
  - { offset: 0x1252A5, size: 0x8, addend: 0x0, symName: __ZN6sentry9SentryLog13_bind_methodsEv.cold.8, symObjAddr: 0x3A6C, symBinAddr: 0xFFBD4, symSize: 0x58 }
  - { offset: 0x1252DA, size: 0x8, addend: 0x0, symName: __ZN5godot8internal23EngineClassRegistrationINS_6ObjectEE8callbackEv.cold.1, symObjAddr: 0x3AC4, symBinAddr: 0xFFC2C, symSize: 0x5C }
  - { offset: 0x125375, size: 0x8, addend: 0x0, symName: __ZN5godot6ObjectD1Ev.cold.1, symObjAddr: 0x3B20, symBinAddr: 0xFFC88, symSize: 0x1C }
  - { offset: 0x125390, size: 0x8, addend: 0x0, symName: __ZN5godot6ObjectD1Ev.cold.1, symObjAddr: 0x3B20, symBinAddr: 0xFFC88, symSize: 0x1C }
  - { offset: 0x1253A4, size: 0x8, addend: 0x0, symName: __ZN5godot6ObjectD1Ev.cold.1, symObjAddr: 0x3B20, symBinAddr: 0xFFC88, symSize: 0x1C }
  - { offset: 0x1253B8, size: 0x8, addend: 0x0, symName: __ZN5godot6ObjectD1Ev.cold.1, symObjAddr: 0x3B20, symBinAddr: 0xFFC88, symSize: 0x1C }
  - { offset: 0x1253CD, size: 0x8, addend: 0x0, symName: __ZN5godot6ObjectD1Ev.cold.1, symObjAddr: 0x3B20, symBinAddr: 0xFFC88, symSize: 0x1C }
  - { offset: 0x1253FD, size: 0x8, addend: 0x0, symName: __ZN5godot6ObjectD0Ev.cold.1, symObjAddr: 0x3B3C, symBinAddr: 0xFFCA4, symSize: 0x1C }
  - { offset: 0x125418, size: 0x8, addend: 0x0, symName: __ZN5godot6ObjectD0Ev.cold.1, symObjAddr: 0x3B3C, symBinAddr: 0xFFCA4, symSize: 0x1C }
  - { offset: 0x12542C, size: 0x8, addend: 0x0, symName: __ZN5godot6ObjectD0Ev.cold.1, symObjAddr: 0x3B3C, symBinAddr: 0xFFCA4, symSize: 0x1C }
  - { offset: 0x125440, size: 0x8, addend: 0x0, symName: __ZN5godot6ObjectD0Ev.cold.1, symObjAddr: 0x3B3C, symBinAddr: 0xFFCA4, symSize: 0x1C }
  - { offset: 0x125454, size: 0x8, addend: 0x0, symName: __ZN5godot6ObjectD0Ev.cold.1, symObjAddr: 0x3B3C, symBinAddr: 0xFFCA4, symSize: 0x1C }
  - { offset: 0x125469, size: 0x8, addend: 0x0, symName: __ZN5godot6ObjectD0Ev.cold.1, symObjAddr: 0x3B3C, symBinAddr: 0xFFCA4, symSize: 0x1C }
  - { offset: 0x125480, size: 0x8, addend: 0x0, symName: __ZN5godot7WrappedD1Ev.cold.1, symObjAddr: 0x3B58, symBinAddr: 0xFFCC0, symSize: 0x1C }
  - { offset: 0x12549B, size: 0x8, addend: 0x0, symName: __ZN5godot7WrappedD1Ev.cold.1, symObjAddr: 0x3B58, symBinAddr: 0xFFCC0, symSize: 0x1C }
  - { offset: 0x1254AF, size: 0x8, addend: 0x0, symName: __ZN5godot7WrappedD1Ev.cold.1, symObjAddr: 0x3B58, symBinAddr: 0xFFCC0, symSize: 0x1C }
  - { offset: 0x1254C4, size: 0x8, addend: 0x0, symName: __ZN5godot7WrappedD1Ev.cold.1, symObjAddr: 0x3B58, symBinAddr: 0xFFCC0, symSize: 0x1C }
  - { offset: 0x1254F3, size: 0x8, addend: 0x0, symName: __ZN5godot7WrappedD0Ev.cold.1, symObjAddr: 0x3B74, symBinAddr: 0xFFCDC, symSize: 0x1C }
  - { offset: 0x12550E, size: 0x8, addend: 0x0, symName: __ZN5godot7WrappedD0Ev.cold.1, symObjAddr: 0x3B74, symBinAddr: 0xFFCDC, symSize: 0x1C }
  - { offset: 0x125522, size: 0x8, addend: 0x0, symName: __ZN5godot7WrappedD0Ev.cold.1, symObjAddr: 0x3B74, symBinAddr: 0xFFCDC, symSize: 0x1C }
  - { offset: 0x125536, size: 0x8, addend: 0x0, symName: __ZN5godot7WrappedD0Ev.cold.1, symObjAddr: 0x3B74, symBinAddr: 0xFFCDC, symSize: 0x1C }
  - { offset: 0x12554B, size: 0x8, addend: 0x0, symName: __ZN5godot7WrappedD0Ev.cold.1, symObjAddr: 0x3B74, symBinAddr: 0xFFCDC, symSize: 0x1C }
  - { offset: 0x125561, size: 0x8, addend: 0x0, symName: __ZN5godot4ListINS_12PropertyInfoENS_16DefaultAllocatorEE5_Data5eraseEPNS3_7ElementE.cold.2, symObjAddr: 0x3BB0, symBinAddr: 0xFFD18, symSize: 0x20 }
  - { offset: 0x125579, size: 0x8, addend: 0x0, symName: __ZN5godot4ListINS_12PropertyInfoENS_16DefaultAllocatorEE5_Data5eraseEPNS3_7ElementE.cold.1, symObjAddr: 0x3B90, symBinAddr: 0xFFCF8, symSize: 0x20 }
  - { offset: 0x125598, size: 0x8, addend: 0x0, symName: __ZN5godot8internal23EngineClassRegistrationINS_16ClassDBSingletonEE8callbackEv.cold.1, symObjAddr: 0x3BD0, symBinAddr: 0xFFD38, symSize: 0x5C }
  - { offset: 0x1255CD, size: 0x8, addend: 0x0, symName: __ZN5godot8internal23EngineClassRegistrationINS_10RefCountedEE8callbackEv.cold.1, symObjAddr: 0x3C2C, symBinAddr: 0xFFD94, symSize: 0x5C }
  - { offset: 0x125617, size: 0x8, addend: 0x0, symName: __ZN5godot10RefCountedD1Ev.cold.1, symObjAddr: 0x3C88, symBinAddr: 0xFFDF0, symSize: 0x1C }
  - { offset: 0x125632, size: 0x8, addend: 0x0, symName: __ZN5godot10RefCountedD1Ev.cold.1, symObjAddr: 0x3C88, symBinAddr: 0xFFDF0, symSize: 0x1C }
  - { offset: 0x125646, size: 0x8, addend: 0x0, symName: __ZN5godot10RefCountedD1Ev.cold.1, symObjAddr: 0x3C88, symBinAddr: 0xFFDF0, symSize: 0x1C }
  - { offset: 0x12565A, size: 0x8, addend: 0x0, symName: __ZN5godot10RefCountedD1Ev.cold.1, symObjAddr: 0x3C88, symBinAddr: 0xFFDF0, symSize: 0x1C }
  - { offset: 0x12566E, size: 0x8, addend: 0x0, symName: __ZN5godot10RefCountedD1Ev.cold.1, symObjAddr: 0x3C88, symBinAddr: 0xFFDF0, symSize: 0x1C }
  - { offset: 0x125683, size: 0x8, addend: 0x0, symName: __ZN5godot10RefCountedD1Ev.cold.1, symObjAddr: 0x3C88, symBinAddr: 0xFFDF0, symSize: 0x1C }
  - { offset: 0x1256B6, size: 0x8, addend: 0x0, symName: __ZN5godot10RefCountedD0Ev.cold.1, symObjAddr: 0x3CA4, symBinAddr: 0xFFE0C, symSize: 0x1C }
  - { offset: 0x1256D1, size: 0x8, addend: 0x0, symName: __ZN5godot10RefCountedD0Ev.cold.1, symObjAddr: 0x3CA4, symBinAddr: 0xFFE0C, symSize: 0x1C }
  - { offset: 0x1256E5, size: 0x8, addend: 0x0, symName: __ZN5godot10RefCountedD0Ev.cold.1, symObjAddr: 0x3CA4, symBinAddr: 0xFFE0C, symSize: 0x1C }
  - { offset: 0x1256F9, size: 0x8, addend: 0x0, symName: __ZN5godot10RefCountedD0Ev.cold.1, symObjAddr: 0x3CA4, symBinAddr: 0xFFE0C, symSize: 0x1C }
  - { offset: 0x12570D, size: 0x8, addend: 0x0, symName: __ZN5godot10RefCountedD0Ev.cold.1, symObjAddr: 0x3CA4, symBinAddr: 0xFFE0C, symSize: 0x1C }
  - { offset: 0x125721, size: 0x8, addend: 0x0, symName: __ZN5godot10RefCountedD0Ev.cold.1, symObjAddr: 0x3CA4, symBinAddr: 0xFFE0C, symSize: 0x1C }
  - { offset: 0x125736, size: 0x8, addend: 0x0, symName: __ZN5godot10RefCountedD0Ev.cold.1, symObjAddr: 0x3CA4, symBinAddr: 0xFFE0C, symSize: 0x1C }
  - { offset: 0x125847, size: 0x8, addend: 0x0, symName: __ZN5godot18create_method_bindIN6sentry9SentryLogEJNS1_8LogLevelEEEEPNS_10MethodBindEMT_FvDpT0_E.cold.1, symObjAddr: 0x3CC0, symBinAddr: 0xFFE28, symSize: 0x5C }
  - { offset: 0x125876, size: 0x8, addend: 0x0, symName: __ZNK5godot11MethodBindTIJN6sentry8LogLevelEEE17gen_argument_typeEi, symObjAddr: 0x14CC, symBinAddr: 0x23474, symSize: 0x10 }
  - { offset: 0x12590E, size: 0x8, addend: 0x0, symName: __ZNK5godot11MethodBindTIJN6sentry8LogLevelEEE22gen_argument_type_infoEi, symObjAddr: 0x14DC, symBinAddr: 0x23484, symSize: 0x138 }
  - { offset: 0x125A47, size: 0x8, addend: 0x0, symName: __ZNK5godot11MethodBindTIJN6sentry8LogLevelEEE21get_argument_metadataEi, symObjAddr: 0x1614, symBinAddr: 0x235BC, symSize: 0x8 }
  - { offset: 0x125A98, size: 0x8, addend: 0x0, symName: __ZNK5godot11MethodBindTIJN6sentry8LogLevelEEE4callEPvPKPKvxR20GDExtensionCallError, symObjAddr: 0x161C, symBinAddr: 0x235C4, symSize: 0x40 }
  - { offset: 0x125B58, size: 0x8, addend: 0x0, symName: __ZNK5godot11MethodBindTIJN6sentry8LogLevelEEE7ptrcallEPvPKPKvS4_, symObjAddr: 0x165C, symBinAddr: 0x23604, symSize: 0x20 }
  - { offset: 0x125C43, size: 0x8, addend: 0x0, symName: __ZN5godot11MethodBindTIJN6sentry8LogLevelEEED1Ev, symObjAddr: 0x167C, symBinAddr: 0x23624, symSize: 0x4 }
  - { offset: 0x125C66, size: 0x8, addend: 0x0, symName: __ZN5godot11MethodBindTIJN6sentry8LogLevelEEED1Ev, symObjAddr: 0x167C, symBinAddr: 0x23624, symSize: 0x4 }
  - { offset: 0x125C9E, size: 0x8, addend: 0x0, symName: __ZN5godot11MethodBindTIJN6sentry8LogLevelEEED0Ev, symObjAddr: 0x1680, symBinAddr: 0x23628, symSize: 0x14 }
  - { offset: 0x125DB9, size: 0x8, addend: 0x0, symName: __ZN5godot18create_method_bindIN6sentry9SentryLogENS1_8LogLevelEJEEEPNS_10MethodBindEMT_KFT0_DpT1_E.cold.1, symObjAddr: 0x3D1C, symBinAddr: 0xFFE84, symSize: 0x5C }
  - { offset: 0x125DE8, size: 0x8, addend: 0x0, symName: __ZNK5godot13MethodBindTRCIN6sentry8LogLevelEJEE17gen_argument_typeEi, symObjAddr: 0x1BF4, symBinAddr: 0x23A8C, symSize: 0x8 }
  - { offset: 0x125E1E, size: 0x8, addend: 0x0, symName: __ZNK5godot13MethodBindTRCIN6sentry8LogLevelEJEE22gen_argument_type_infoEi, symObjAddr: 0x1BFC, symBinAddr: 0x23A94, symSize: 0x4 }
  - { offset: 0x125E55, size: 0x8, addend: 0x0, symName: __ZNK5godot13MethodBindTRCIN6sentry8LogLevelEJEE22gen_argument_type_infoEi, symObjAddr: 0x1BFC, symBinAddr: 0x23A94, symSize: 0x4 }
  - { offset: 0x125E68, size: 0x8, addend: 0x0, symName: __ZNK5godot13MethodBindTRCIN6sentry8LogLevelEJEE21get_argument_metadataEi, symObjAddr: 0x1C00, symBinAddr: 0x23A98, symSize: 0x8 }
  - { offset: 0x125EFC, size: 0x8, addend: 0x0, symName: __ZNK5godot13MethodBindTRCIN6sentry8LogLevelEJEE4callEPvPKPKvxR20GDExtensionCallError, symObjAddr: 0x1C08, symBinAddr: 0x23AA0, symSize: 0xC0 }
  - { offset: 0x12603C, size: 0x8, addend: 0x0, symName: __ZNK5godot13MethodBindTRCIN6sentry8LogLevelEJEE7ptrcallEPvPKPKvS4_, symObjAddr: 0x1CC8, symBinAddr: 0x23B60, symSize: 0x3C }
  - { offset: 0x126129, size: 0x8, addend: 0x0, symName: __ZN5godot13MethodBindTRCIN6sentry8LogLevelEJEED1Ev, symObjAddr: 0x1D04, symBinAddr: 0x23B9C, symSize: 0x4 }
  - { offset: 0x12614C, size: 0x8, addend: 0x0, symName: __ZN5godot13MethodBindTRCIN6sentry8LogLevelEJEED1Ev, symObjAddr: 0x1D04, symBinAddr: 0x23B9C, symSize: 0x4 }
  - { offset: 0x126184, size: 0x8, addend: 0x0, symName: __ZN5godot13MethodBindTRCIN6sentry8LogLevelEJEED0Ev, symObjAddr: 0x1D08, symBinAddr: 0x23BA0, symSize: 0x14 }
  - { offset: 0x12624E, size: 0x8, addend: 0x0, symName: __ZN5godot18create_method_bindIN6sentry9SentryLogENS_6StringEJEEEPNS_10MethodBindEMT_KFT0_DpT1_E.cold.1, symObjAddr: 0x3D78, symBinAddr: 0xFFEE0, symSize: 0x5C }
  - { offset: 0x1262DF, size: 0x8, addend: 0x0, symName: __ZN5godot18create_method_bindIN6sentry9SentryLogENS_7VariantEJRKNS_6StringEEEEPNS_10MethodBindEMT_KFT0_DpT1_E.cold.1, symObjAddr: 0x3DD4, symBinAddr: 0xFFF3C, symSize: 0x5C }
  - { offset: 0x12630E, size: 0x8, addend: 0x0, symName: __ZNK5godot13MethodBindTRCINS_7VariantEJRKNS_6StringEEE17gen_argument_typeEi, symObjAddr: 0x21E0, symBinAddr: 0x23E0C, symSize: 0x10 }
  - { offset: 0x12634B, size: 0x8, addend: 0x0, symName: __ZNK5godot13MethodBindTRCINS_7VariantEJRKNS_6StringEEE22gen_argument_type_infoEi, symObjAddr: 0x21F0, symBinAddr: 0x23E1C, symSize: 0x154 }
  - { offset: 0x1264BF, size: 0x8, addend: 0x0, symName: __ZNK5godot13MethodBindTRCINS_7VariantEJRKNS_6StringEEE21get_argument_metadataEi, symObjAddr: 0x2344, symBinAddr: 0x23F70, symSize: 0x8 }
  - { offset: 0x1264F5, size: 0x8, addend: 0x0, symName: __ZNK5godot13MethodBindTRCINS_7VariantEJRKNS_6StringEEE4callEPvPKPKvxR20GDExtensionCallError, symObjAddr: 0x234C, symBinAddr: 0x23F78, symSize: 0x64 }
  - { offset: 0x1265CE, size: 0x8, addend: 0x0, symName: __ZNK5godot13MethodBindTRCINS_7VariantEJRKNS_6StringEEE7ptrcallEPvPKPKvS6_, symObjAddr: 0x23B0, symBinAddr: 0x23FDC, symSize: 0xA4 }
  - { offset: 0x1266EB, size: 0x8, addend: 0x0, symName: __ZN5godot13MethodBindTRCINS_7VariantEJRKNS_6StringEEED1Ev, symObjAddr: 0x2454, symBinAddr: 0x24080, symSize: 0x4 }
  - { offset: 0x12670E, size: 0x8, addend: 0x0, symName: __ZN5godot13MethodBindTRCINS_7VariantEJRKNS_6StringEEED1Ev, symObjAddr: 0x2454, symBinAddr: 0x24080, symSize: 0x4 }
  - { offset: 0x126746, size: 0x8, addend: 0x0, symName: __ZN5godot13MethodBindTRCINS_7VariantEJRKNS_6StringEEED0Ev, symObjAddr: 0x2458, symBinAddr: 0x24084, symSize: 0x14 }
  - { offset: 0x12682A, size: 0x8, addend: 0x0, symName: __ZN5godot18create_method_bindIN6sentry9SentryLogEJRKNS_6StringERKNS_7VariantEEEEPNS_10MethodBindEMT_FvDpT0_E.cold.1, symObjAddr: 0x3E30, symBinAddr: 0xFFF98, symSize: 0x5C }
  - { offset: 0x126859, size: 0x8, addend: 0x0, symName: __ZNK5godot11MethodBindTIJRKNS_6StringERKNS_7VariantEEE17gen_argument_typeEi, symObjAddr: 0x2848, symBinAddr: 0x24300, symSize: 0x10 }
  - { offset: 0x12689B, size: 0x8, addend: 0x0, symName: __ZNK5godot11MethodBindTIJRKNS_6StringERKNS_7VariantEEE22gen_argument_type_infoEi, symObjAddr: 0x2858, symBinAddr: 0x24310, symSize: 0x138 }
  - { offset: 0x1269FA, size: 0x8, addend: 0x0, symName: __ZNK5godot11MethodBindTIJRKNS_6StringERKNS_7VariantEEE21get_argument_metadataEi, symObjAddr: 0x2990, symBinAddr: 0x24448, symSize: 0x8 }
  - { offset: 0x126A30, size: 0x8, addend: 0x0, symName: __ZNK5godot11MethodBindTIJRKNS_6StringERKNS_7VariantEEE4callEPvPKPKvxR20GDExtensionCallError, symObjAddr: 0x2998, symBinAddr: 0x24450, symSize: 0x40 }
  - { offset: 0x126AF0, size: 0x8, addend: 0x0, symName: __ZNK5godot11MethodBindTIJRKNS_6StringERKNS_7VariantEEE7ptrcallEPvPKPKvS8_, symObjAddr: 0x29D8, symBinAddr: 0x24490, symSize: 0xA4 }
  - { offset: 0x126C0B, size: 0x8, addend: 0x0, symName: __ZN5godot11MethodBindTIJRKNS_6StringERKNS_7VariantEEED1Ev, symObjAddr: 0x2A7C, symBinAddr: 0x24534, symSize: 0x4 }
  - { offset: 0x126C2E, size: 0x8, addend: 0x0, symName: __ZN5godot11MethodBindTIJRKNS_6StringERKNS_7VariantEEED1Ev, symObjAddr: 0x2A7C, symBinAddr: 0x24534, symSize: 0x4 }
  - { offset: 0x126C66, size: 0x8, addend: 0x0, symName: __ZN5godot11MethodBindTIJRKNS_6StringERKNS_7VariantEEED0Ev, symObjAddr: 0x2A80, symBinAddr: 0x24538, symSize: 0x14 }
  - { offset: 0x126D4A, size: 0x8, addend: 0x0, symName: __ZN5godot18create_method_bindIN6sentry9SentryLogEJRKNS_10DictionaryEEEEPNS_10MethodBindEMT_FvDpT0_E.cold.1, symObjAddr: 0x3E8C, symBinAddr: 0xFFFF4, symSize: 0x5C }
  - { offset: 0x126DDB, size: 0x8, addend: 0x0, symName: __ZN5godot18create_method_bindIN6sentry9SentryLogEJRKNS_6StringEEEEPNS_10MethodBindEMT_FvDpT0_E.cold.1, symObjAddr: 0x3EE8, symBinAddr: 0x100050, symSize: 0x5C }
  - { offset: 0x126E0A, size: 0x8, addend: 0x0, symName: _OUTLINED_FUNCTION_0, symObjAddr: 0x3F44, symBinAddr: 0x24A8C, symSize: 0x10 }
  - { offset: 0x126E22, size: 0x8, addend: 0x0, symName: _OUTLINED_FUNCTION_1, symObjAddr: 0x3F54, symBinAddr: 0x24A9C, symSize: 0xC }
  - { offset: 0x126E3A, size: 0x8, addend: 0x0, symName: _OUTLINED_FUNCTION_2, symObjAddr: 0x3F60, symBinAddr: 0x24AA8, symSize: 0x8 }
  - { offset: 0x126E52, size: 0x8, addend: 0x0, symName: _OUTLINED_FUNCTION_3, symObjAddr: 0x3F68, symBinAddr: 0x24AB0, symSize: 0x8 }
  - { offset: 0x126E6A, size: 0x8, addend: 0x0, symName: _OUTLINED_FUNCTION_4, symObjAddr: 0x3F70, symBinAddr: 0x24AB8, symSize: 0x8 }
  - { offset: 0x126E82, size: 0x8, addend: 0x0, symName: _OUTLINED_FUNCTION_5, symObjAddr: 0x3F78, symBinAddr: 0x24AC0, symSize: 0x8 }
  - { offset: 0x126E9A, size: 0x8, addend: 0x0, symName: _OUTLINED_FUNCTION_6, symObjAddr: 0x3F80, symBinAddr: 0x24AC8, symSize: 0xC }
  - { offset: 0x12BF3A, size: 0x8, addend: 0x0, symName: __ZN5godot8D_METHODIJPKcS2_EEENS_16MethodDefinitionENS_10StringNameES4_DpT_, symObjAddr: 0xBA0, symBinAddr: 0x25758, symSize: 0x128 }
  - { offset: 0x12C49D, size: 0x8, addend: 0x0, symName: __ZN5godot18create_method_bindIN6sentry12SentryLoggerEJNS1_8LogLevelERKNS_6StringERKNS_5ArrayERKNS_10DictionaryEEEEPNS_10MethodBindEMT_FvDpT0_E, symObjAddr: 0x1B4C, symBinAddr: 0x25A98, symSize: 0x118 }
  - { offset: 0x12C5DF, size: 0x8, addend: 0x0, symName: __ZN5godot18create_method_bindIN6sentry12SentryLoggerEJRKNS_6StringERKNS_5ArrayERKNS_10DictionaryEEEEPNS_10MethodBindEMT_FvDpT0_E, symObjAddr: 0x2984, symBinAddr: 0x262DC, symSize: 0x118 }
  - { offset: 0x12CC24, size: 0x8, addend: 0x0, symName: __ZN5godot34call_get_argument_type_info_helperIRKNS_5ArrayEEEviRiRNS_12PropertyInfoE, symObjAddr: 0x20B0, symBinAddr: 0x25DB4, symSize: 0x174 }
  - { offset: 0x12CE1F, size: 0x8, addend: 0x0, symName: __ZN5godot25call_with_variant_args_dvINS_20_gde_UnexistingClassEJN6sentry8LogLevelERKNS_6StringERKNS_5ArrayERKNS_10DictionaryEEEEvPT_MSD_FvDpT0_EPKPKviR20GDExtensionCallErrorRKNSt3__16vectorINS_7VariantENSP_9allocatorISR_EEEE, symObjAddr: 0x25D0, symBinAddr: 0x25F28, symSize: 0x220 }
  - { offset: 0x12CFD0, size: 0x8, addend: 0x0, symName: __ZN5godot25call_with_ptr_args_helperINS_20_gde_UnexistingClassEJN6sentry8LogLevelERKNS_6StringERKNS_5ArrayERKNS_10DictionaryEEJLm0ELm1ELm2ELm3EEEEvPT_MSD_FvDpT0_EPKPKvNS_13IndexSequenceIJXspT1_EEEE, symObjAddr: 0x28C0, symBinAddr: 0x26218, symSize: 0xC4 }
  - { offset: 0x12D181, size: 0x8, addend: 0x0, symName: __ZN5godot29call_with_variant_args_helperINS_20_gde_UnexistingClassEJN6sentry8LogLevelERKNS_6StringERKNS_5ArrayERKNS_10DictionaryEEJLm0ELm1ELm2ELm3EEEEvPT_MSD_FvDpT0_EPPKNS_7VariantER20GDExtensionCallErrorNS_13IndexSequenceIJXspT1_EEEE, symObjAddr: 0x27F0, symBinAddr: 0x26148, symSize: 0xD0 }
  - { offset: 0x12D505, size: 0x8, addend: 0x0, symName: __ZN5godot25call_with_variant_args_dvINS_20_gde_UnexistingClassEJRKNS_6StringERKNS_5ArrayERKNS_10DictionaryEEEEvPT_MSB_FvDpT0_EPKPKviR20GDExtensionCallErrorRKNSt3__16vectorINS_7VariantENSN_9allocatorISP_EEEE, symObjAddr: 0x2C84, symBinAddr: 0x265DC, symSize: 0x1CC }
  - { offset: 0x12D6BA, size: 0x8, addend: 0x0, symName: __ZN5godot25call_with_ptr_args_helperINS_20_gde_UnexistingClassEJRKNS_6StringERKNS_5ArrayERKNS_10DictionaryEEJLm0ELm1ELm2EEEEvPT_MSB_FvDpT0_EPKPKvNS_13IndexSequenceIJXspT1_EEEE, symObjAddr: 0x2F10, symBinAddr: 0x26868, symSize: 0xBC }
  - { offset: 0x12D7B6, size: 0x8, addend: 0x0, symName: __ZN5godot29call_with_variant_args_helperINS_20_gde_UnexistingClassEJRKNS_6StringERKNS_5ArrayERKNS_10DictionaryEEJLm0ELm1ELm2EEEEvPT_MSB_FvDpT0_EPPKNS_7VariantER20GDExtensionCallErrorNS_13IndexSequenceIJXspT1_EEEE, symObjAddr: 0x2E50, symBinAddr: 0x267A8, symSize: 0xC0 }
  - { offset: 0x13AA98, size: 0x8, addend: 0x0, symName: ___cxx_global_var_init, symObjAddr: 0x3518, symBinAddr: 0x26964, symSize: 0x4C }
  - { offset: 0x13AB1D, size: 0x8, addend: 0x0, symName: ___cxx_global_var_init.1, symObjAddr: 0x3564, symBinAddr: 0x269B0, symSize: 0x4C }
  - { offset: 0x13ABA2, size: 0x8, addend: 0x0, symName: ___cxx_global_var_init.2, symObjAddr: 0x35B0, symBinAddr: 0x269FC, symSize: 0x4C }
  - { offset: 0x13AC27, size: 0x8, addend: 0x0, symName: ___cxx_global_var_init.3, symObjAddr: 0x35FC, symBinAddr: 0x26A48, symSize: 0x4C }
  - { offset: 0x13ACAC, size: 0x8, addend: 0x0, symName: ___cxx_global_var_init.4, symObjAddr: 0x3648, symBinAddr: 0x26A94, symSize: 0x4C }
  - { offset: 0x13AD31, size: 0x8, addend: 0x0, symName: ___cxx_global_var_init.5, symObjAddr: 0x3694, symBinAddr: 0x26AE0, symSize: 0x4C }
  - { offset: 0x13ADB6, size: 0x8, addend: 0x0, symName: ___cxx_global_var_init.6, symObjAddr: 0x36E0, symBinAddr: 0x26B2C, symSize: 0x4C }
  - { offset: 0x13AE73, size: 0x8, addend: 0x0, symName: __ZN6sentry12SentryLogger3logENS_8LogLevelERKN5godot6StringERKNS2_5ArrayERKNS2_10DictionaryE, symObjAddr: 0x0, symBinAddr: 0x24BB8, symSize: 0x1E0 }
  - { offset: 0x13AFFD, size: 0x8, addend: 0x0, symName: __ZN6sentry12SentryLogger5traceERKN5godot6StringERKNS1_5ArrayERKNS1_10DictionaryE, symObjAddr: 0x1E0, symBinAddr: 0x24D98, symSize: 0x14 }
  - { offset: 0x13B078, size: 0x8, addend: 0x0, symName: __ZN6sentry12SentryLogger5debugERKN5godot6StringERKNS1_5ArrayERKNS1_10DictionaryE, symObjAddr: 0x1F4, symBinAddr: 0x24DAC, symSize: 0x14 }
  - { offset: 0x13B0F3, size: 0x8, addend: 0x0, symName: __ZN6sentry12SentryLogger4infoERKN5godot6StringERKNS1_5ArrayERKNS1_10DictionaryE, symObjAddr: 0x208, symBinAddr: 0x24DC0, symSize: 0x14 }
  - { offset: 0x13B16E, size: 0x8, addend: 0x0, symName: __ZN6sentry12SentryLogger4warnERKN5godot6StringERKNS1_5ArrayERKNS1_10DictionaryE, symObjAddr: 0x21C, symBinAddr: 0x24DD4, symSize: 0x14 }
  - { offset: 0x13B1E9, size: 0x8, addend: 0x0, symName: __ZN6sentry12SentryLogger5errorERKN5godot6StringERKNS1_5ArrayERKNS1_10DictionaryE, symObjAddr: 0x230, symBinAddr: 0x24DE8, symSize: 0x14 }
  - { offset: 0x13B264, size: 0x8, addend: 0x0, symName: __ZN6sentry12SentryLogger5fatalERKN5godot6StringERKNS1_5ArrayERKNS1_10DictionaryE, symObjAddr: 0x244, symBinAddr: 0x24DFC, symSize: 0x14 }
  - { offset: 0x13B917, size: 0x8, addend: 0x0, symName: __ZN6sentry12SentryLogger13_bind_methodsEv, symObjAddr: 0x258, symBinAddr: 0x24E10, symSize: 0x948 }
  - { offset: 0x13D0FB, size: 0x8, addend: 0x0, symName: __ZN6sentry12SentryLoggerC2Ev, symObjAddr: 0xCC8, symBinAddr: 0x25880, symSize: 0x88 }
  - { offset: 0x13D17A, size: 0x8, addend: 0x0, symName: __ZN6sentry12SentryLoggerC1Ev, symObjAddr: 0xD50, symBinAddr: 0x25908, symSize: 0x88 }
  - { offset: 0x13D204, size: 0x8, addend: 0x0, symName: __ZNK6sentry12SentryLogger19_is_extension_classEv, symObjAddr: 0xDD8, symBinAddr: 0x25990, symSize: 0x8 }
  - { offset: 0x13D326, size: 0x8, addend: 0x0, symName: __ZN6sentry12SentryLoggerD1Ev, symObjAddr: 0xDE0, symBinAddr: 0x25998, symSize: 0x8C }
  - { offset: 0x13D548, size: 0x8, addend: 0x0, symName: __ZN6sentry12SentryLoggerD1Ev.cold.1, symObjAddr: 0x2FCC, symBinAddr: 0x1000AC, symSize: 0x1C }
  - { offset: 0x13D563, size: 0x8, addend: 0x0, symName: __ZN6sentry12SentryLoggerD1Ev.cold.1, symObjAddr: 0x2FCC, symBinAddr: 0x1000AC, symSize: 0x1C }
  - { offset: 0x13D577, size: 0x8, addend: 0x0, symName: __ZN6sentry12SentryLoggerD1Ev.cold.1, symObjAddr: 0x2FCC, symBinAddr: 0x1000AC, symSize: 0x1C }
  - { offset: 0x13D58B, size: 0x8, addend: 0x0, symName: __ZN6sentry12SentryLoggerD1Ev.cold.1, symObjAddr: 0x2FCC, symBinAddr: 0x1000AC, symSize: 0x1C }
  - { offset: 0x13D59F, size: 0x8, addend: 0x0, symName: __ZN6sentry12SentryLoggerD1Ev.cold.1, symObjAddr: 0x2FCC, symBinAddr: 0x1000AC, symSize: 0x1C }
  - { offset: 0x13D5B4, size: 0x8, addend: 0x0, symName: __ZN6sentry12SentryLoggerD1Ev.cold.1, symObjAddr: 0x2FCC, symBinAddr: 0x1000AC, symSize: 0x1C }
  - { offset: 0x13D5E7, size: 0x8, addend: 0x0, symName: __ZN6sentry12SentryLoggerD0Ev, symObjAddr: 0xE6C, symBinAddr: 0x25A24, symSize: 0x74 }
  - { offset: 0x13D71C, size: 0x8, addend: 0x0, symName: __ZN6sentry12SentryLoggerD0Ev.cold.1, symObjAddr: 0x2FE8, symBinAddr: 0x1000C8, symSize: 0x1C }
  - { offset: 0x13D737, size: 0x8, addend: 0x0, symName: __ZN6sentry12SentryLoggerD0Ev.cold.1, symObjAddr: 0x2FE8, symBinAddr: 0x1000C8, symSize: 0x1C }
  - { offset: 0x13D74B, size: 0x8, addend: 0x0, symName: __ZN6sentry12SentryLoggerD0Ev.cold.1, symObjAddr: 0x2FE8, symBinAddr: 0x1000C8, symSize: 0x1C }
  - { offset: 0x13D75F, size: 0x8, addend: 0x0, symName: __ZN6sentry12SentryLoggerD0Ev.cold.1, symObjAddr: 0x2FE8, symBinAddr: 0x1000C8, symSize: 0x1C }
  - { offset: 0x13D773, size: 0x8, addend: 0x0, symName: __ZN6sentry12SentryLoggerD0Ev.cold.1, symObjAddr: 0x2FE8, symBinAddr: 0x1000C8, symSize: 0x1C }
  - { offset: 0x13D787, size: 0x8, addend: 0x0, symName: __ZN6sentry12SentryLoggerD0Ev.cold.1, symObjAddr: 0x2FE8, symBinAddr: 0x1000C8, symSize: 0x1C }
  - { offset: 0x13D79C, size: 0x8, addend: 0x0, symName: __ZN6sentry12SentryLoggerD0Ev.cold.1, symObjAddr: 0x2FE8, symBinAddr: 0x1000C8, symSize: 0x1C }
  - { offset: 0x13D7B4, size: 0x8, addend: 0x0, symName: __ZN5godot6ObjectD1Ev.cold.1, symObjAddr: 0x3004, symBinAddr: 0x1000E4, symSize: 0x1C }
  - { offset: 0x13D7CF, size: 0x8, addend: 0x0, symName: __ZN5godot6ObjectD1Ev.cold.1, symObjAddr: 0x3004, symBinAddr: 0x1000E4, symSize: 0x1C }
  - { offset: 0x13D7E3, size: 0x8, addend: 0x0, symName: __ZN5godot6ObjectD1Ev.cold.1, symObjAddr: 0x3004, symBinAddr: 0x1000E4, symSize: 0x1C }
  - { offset: 0x13D7F7, size: 0x8, addend: 0x0, symName: __ZN5godot6ObjectD1Ev.cold.1, symObjAddr: 0x3004, symBinAddr: 0x1000E4, symSize: 0x1C }
  - { offset: 0x13D80C, size: 0x8, addend: 0x0, symName: __ZN5godot6ObjectD1Ev.cold.1, symObjAddr: 0x3004, symBinAddr: 0x1000E4, symSize: 0x1C }
  - { offset: 0x13D83C, size: 0x8, addend: 0x0, symName: __ZN5godot6ObjectD0Ev.cold.1, symObjAddr: 0x3020, symBinAddr: 0x100100, symSize: 0x1C }
  - { offset: 0x13D857, size: 0x8, addend: 0x0, symName: __ZN5godot6ObjectD0Ev.cold.1, symObjAddr: 0x3020, symBinAddr: 0x100100, symSize: 0x1C }
  - { offset: 0x13D86B, size: 0x8, addend: 0x0, symName: __ZN5godot6ObjectD0Ev.cold.1, symObjAddr: 0x3020, symBinAddr: 0x100100, symSize: 0x1C }
  - { offset: 0x13D87F, size: 0x8, addend: 0x0, symName: __ZN5godot6ObjectD0Ev.cold.1, symObjAddr: 0x3020, symBinAddr: 0x100100, symSize: 0x1C }
  - { offset: 0x13D893, size: 0x8, addend: 0x0, symName: __ZN5godot6ObjectD0Ev.cold.1, symObjAddr: 0x3020, symBinAddr: 0x100100, symSize: 0x1C }
  - { offset: 0x13D8A8, size: 0x8, addend: 0x0, symName: __ZN5godot6ObjectD0Ev.cold.1, symObjAddr: 0x3020, symBinAddr: 0x100100, symSize: 0x1C }
  - { offset: 0x13D8BF, size: 0x8, addend: 0x0, symName: __ZN5godot7WrappedD1Ev.cold.1, symObjAddr: 0x303C, symBinAddr: 0x10011C, symSize: 0x1C }
  - { offset: 0x13D8DA, size: 0x8, addend: 0x0, symName: __ZN5godot7WrappedD1Ev.cold.1, symObjAddr: 0x303C, symBinAddr: 0x10011C, symSize: 0x1C }
  - { offset: 0x13D8EE, size: 0x8, addend: 0x0, symName: __ZN5godot7WrappedD1Ev.cold.1, symObjAddr: 0x303C, symBinAddr: 0x10011C, symSize: 0x1C }
  - { offset: 0x13D903, size: 0x8, addend: 0x0, symName: __ZN5godot7WrappedD1Ev.cold.1, symObjAddr: 0x303C, symBinAddr: 0x10011C, symSize: 0x1C }
  - { offset: 0x13D932, size: 0x8, addend: 0x0, symName: __ZN5godot7WrappedD0Ev.cold.1, symObjAddr: 0x3058, symBinAddr: 0x100138, symSize: 0x1C }
  - { offset: 0x13D94D, size: 0x8, addend: 0x0, symName: __ZN5godot7WrappedD0Ev.cold.1, symObjAddr: 0x3058, symBinAddr: 0x100138, symSize: 0x1C }
  - { offset: 0x13D961, size: 0x8, addend: 0x0, symName: __ZN5godot7WrappedD0Ev.cold.1, symObjAddr: 0x3058, symBinAddr: 0x100138, symSize: 0x1C }
  - { offset: 0x13D975, size: 0x8, addend: 0x0, symName: __ZN5godot7WrappedD0Ev.cold.1, symObjAddr: 0x3058, symBinAddr: 0x100138, symSize: 0x1C }
  - { offset: 0x13D98A, size: 0x8, addend: 0x0, symName: __ZN5godot7WrappedD0Ev.cold.1, symObjAddr: 0x3058, symBinAddr: 0x100138, symSize: 0x1C }
  - { offset: 0x13DA10, size: 0x8, addend: 0x0, symName: __ZN5godot4ListINS_12PropertyInfoENS_16DefaultAllocatorEE5_Data5eraseEPNS3_7ElementE.cold.2, symObjAddr: 0x3094, symBinAddr: 0x100174, symSize: 0x20 }
  - { offset: 0x13DA28, size: 0x8, addend: 0x0, symName: __ZN5godot4ListINS_12PropertyInfoENS_16DefaultAllocatorEE5_Data5eraseEPNS3_7ElementE.cold.1, symObjAddr: 0x3074, symBinAddr: 0x100154, symSize: 0x20 }
  - { offset: 0x13DA47, size: 0x8, addend: 0x0, symName: __ZN5godot8internal23EngineClassRegistrationINS_6ObjectEE8callbackEv.cold.1, symObjAddr: 0x30B4, symBinAddr: 0x100194, symSize: 0x5C }
  - { offset: 0x13DA7C, size: 0x8, addend: 0x0, symName: __ZN5godot8internal23EngineClassRegistrationINS_16ClassDBSingletonEE8callbackEv.cold.1, symObjAddr: 0x3110, symBinAddr: 0x1001F0, symSize: 0x5C }
  - { offset: 0x13DAB1, size: 0x8, addend: 0x0, symName: __ZN5godot8internal23EngineClassRegistrationINS_10RefCountedEE8callbackEv.cold.1, symObjAddr: 0x316C, symBinAddr: 0x10024C, symSize: 0x5C }
  - { offset: 0x13DAFB, size: 0x8, addend: 0x0, symName: __ZN5godot10RefCountedD1Ev.cold.1, symObjAddr: 0x31C8, symBinAddr: 0x1002A8, symSize: 0x1C }
  - { offset: 0x13DB16, size: 0x8, addend: 0x0, symName: __ZN5godot10RefCountedD1Ev.cold.1, symObjAddr: 0x31C8, symBinAddr: 0x1002A8, symSize: 0x1C }
  - { offset: 0x13DB2A, size: 0x8, addend: 0x0, symName: __ZN5godot10RefCountedD1Ev.cold.1, symObjAddr: 0x31C8, symBinAddr: 0x1002A8, symSize: 0x1C }
  - { offset: 0x13DB3E, size: 0x8, addend: 0x0, symName: __ZN5godot10RefCountedD1Ev.cold.1, symObjAddr: 0x31C8, symBinAddr: 0x1002A8, symSize: 0x1C }
  - { offset: 0x13DB52, size: 0x8, addend: 0x0, symName: __ZN5godot10RefCountedD1Ev.cold.1, symObjAddr: 0x31C8, symBinAddr: 0x1002A8, symSize: 0x1C }
  - { offset: 0x13DB67, size: 0x8, addend: 0x0, symName: __ZN5godot10RefCountedD1Ev.cold.1, symObjAddr: 0x31C8, symBinAddr: 0x1002A8, symSize: 0x1C }
  - { offset: 0x13DB9A, size: 0x8, addend: 0x0, symName: __ZN5godot10RefCountedD0Ev.cold.1, symObjAddr: 0x31E4, symBinAddr: 0x1002C4, symSize: 0x1C }
  - { offset: 0x13DBB5, size: 0x8, addend: 0x0, symName: __ZN5godot10RefCountedD0Ev.cold.1, symObjAddr: 0x31E4, symBinAddr: 0x1002C4, symSize: 0x1C }
  - { offset: 0x13DBC9, size: 0x8, addend: 0x0, symName: __ZN5godot10RefCountedD0Ev.cold.1, symObjAddr: 0x31E4, symBinAddr: 0x1002C4, symSize: 0x1C }
  - { offset: 0x13DBDD, size: 0x8, addend: 0x0, symName: __ZN5godot10RefCountedD0Ev.cold.1, symObjAddr: 0x31E4, symBinAddr: 0x1002C4, symSize: 0x1C }
  - { offset: 0x13DBF1, size: 0x8, addend: 0x0, symName: __ZN5godot10RefCountedD0Ev.cold.1, symObjAddr: 0x31E4, symBinAddr: 0x1002C4, symSize: 0x1C }
  - { offset: 0x13DC05, size: 0x8, addend: 0x0, symName: __ZN5godot10RefCountedD0Ev.cold.1, symObjAddr: 0x31E4, symBinAddr: 0x1002C4, symSize: 0x1C }
  - { offset: 0x13DC1A, size: 0x8, addend: 0x0, symName: __ZN5godot10RefCountedD0Ev.cold.1, symObjAddr: 0x31E4, symBinAddr: 0x1002C4, symSize: 0x1C }
  - { offset: 0x13DC39, size: 0x8, addend: 0x0, symName: __ZN5godot8internal23EngineClassRegistrationINS_6LoggerEE8callbackEv.cold.1, symObjAddr: 0x3200, symBinAddr: 0x1002E0, symSize: 0x5C }
  - { offset: 0x13DC6E, size: 0x8, addend: 0x0, symName: __ZN5godot8internal23EngineClassRegistrationINS_15ScriptBacktraceEE8callbackEv.cold.1, symObjAddr: 0x325C, symBinAddr: 0x10033C, symSize: 0x5C }
  - { offset: 0x13DCB8, size: 0x8, addend: 0x0, symName: __ZN5godot15ScriptBacktraceD1Ev.cold.1, symObjAddr: 0x32B8, symBinAddr: 0x100398, symSize: 0x1C }
  - { offset: 0x13DCD3, size: 0x8, addend: 0x0, symName: __ZN5godot15ScriptBacktraceD1Ev.cold.1, symObjAddr: 0x32B8, symBinAddr: 0x100398, symSize: 0x1C }
  - { offset: 0x13DCE7, size: 0x8, addend: 0x0, symName: __ZN5godot15ScriptBacktraceD1Ev.cold.1, symObjAddr: 0x32B8, symBinAddr: 0x100398, symSize: 0x1C }
  - { offset: 0x13DCFB, size: 0x8, addend: 0x0, symName: __ZN5godot15ScriptBacktraceD1Ev.cold.1, symObjAddr: 0x32B8, symBinAddr: 0x100398, symSize: 0x1C }
  - { offset: 0x13DD0F, size: 0x8, addend: 0x0, symName: __ZN5godot15ScriptBacktraceD1Ev.cold.1, symObjAddr: 0x32B8, symBinAddr: 0x100398, symSize: 0x1C }
  - { offset: 0x13DD23, size: 0x8, addend: 0x0, symName: __ZN5godot15ScriptBacktraceD1Ev.cold.1, symObjAddr: 0x32B8, symBinAddr: 0x100398, symSize: 0x1C }
  - { offset: 0x13DD38, size: 0x8, addend: 0x0, symName: __ZN5godot15ScriptBacktraceD1Ev.cold.1, symObjAddr: 0x32B8, symBinAddr: 0x100398, symSize: 0x1C }
  - { offset: 0x13DD6C, size: 0x8, addend: 0x0, symName: __ZN5godot15ScriptBacktraceD0Ev.cold.1, symObjAddr: 0x32D4, symBinAddr: 0x1003B4, symSize: 0x1C }
  - { offset: 0x13DD87, size: 0x8, addend: 0x0, symName: __ZN5godot15ScriptBacktraceD0Ev.cold.1, symObjAddr: 0x32D4, symBinAddr: 0x1003B4, symSize: 0x1C }
  - { offset: 0x13DD9B, size: 0x8, addend: 0x0, symName: __ZN5godot15ScriptBacktraceD0Ev.cold.1, symObjAddr: 0x32D4, symBinAddr: 0x1003B4, symSize: 0x1C }
  - { offset: 0x13DDAF, size: 0x8, addend: 0x0, symName: __ZN5godot15ScriptBacktraceD0Ev.cold.1, symObjAddr: 0x32D4, symBinAddr: 0x1003B4, symSize: 0x1C }
  - { offset: 0x13DDC3, size: 0x8, addend: 0x0, symName: __ZN5godot15ScriptBacktraceD0Ev.cold.1, symObjAddr: 0x32D4, symBinAddr: 0x1003B4, symSize: 0x1C }
  - { offset: 0x13DDD7, size: 0x8, addend: 0x0, symName: __ZN5godot15ScriptBacktraceD0Ev.cold.1, symObjAddr: 0x32D4, symBinAddr: 0x1003B4, symSize: 0x1C }
  - { offset: 0x13DDEB, size: 0x8, addend: 0x0, symName: __ZN5godot15ScriptBacktraceD0Ev.cold.1, symObjAddr: 0x32D4, symBinAddr: 0x1003B4, symSize: 0x1C }
  - { offset: 0x13DE00, size: 0x8, addend: 0x0, symName: __ZN5godot15ScriptBacktraceD0Ev.cold.1, symObjAddr: 0x32D4, symBinAddr: 0x1003B4, symSize: 0x1C }
  - { offset: 0x13DE20, size: 0x8, addend: 0x0, symName: __ZN5godot8internal23EngineClassRegistrationINS_10ConfigFileEE8callbackEv.cold.1, symObjAddr: 0x32F0, symBinAddr: 0x1003D0, symSize: 0x5C }
  - { offset: 0x13DE6A, size: 0x8, addend: 0x0, symName: __ZN5godot10ConfigFileD1Ev.cold.1, symObjAddr: 0x334C, symBinAddr: 0x10042C, symSize: 0x1C }
  - { offset: 0x13DE85, size: 0x8, addend: 0x0, symName: __ZN5godot10ConfigFileD1Ev.cold.1, symObjAddr: 0x334C, symBinAddr: 0x10042C, symSize: 0x1C }
  - { offset: 0x13DE99, size: 0x8, addend: 0x0, symName: __ZN5godot10ConfigFileD1Ev.cold.1, symObjAddr: 0x334C, symBinAddr: 0x10042C, symSize: 0x1C }
  - { offset: 0x13DEAD, size: 0x8, addend: 0x0, symName: __ZN5godot10ConfigFileD1Ev.cold.1, symObjAddr: 0x334C, symBinAddr: 0x10042C, symSize: 0x1C }
  - { offset: 0x13DEC1, size: 0x8, addend: 0x0, symName: __ZN5godot10ConfigFileD1Ev.cold.1, symObjAddr: 0x334C, symBinAddr: 0x10042C, symSize: 0x1C }
  - { offset: 0x13DED5, size: 0x8, addend: 0x0, symName: __ZN5godot10ConfigFileD1Ev.cold.1, symObjAddr: 0x334C, symBinAddr: 0x10042C, symSize: 0x1C }
  - { offset: 0x13DEEA, size: 0x8, addend: 0x0, symName: __ZN5godot10ConfigFileD1Ev.cold.1, symObjAddr: 0x334C, symBinAddr: 0x10042C, symSize: 0x1C }
  - { offset: 0x13DF1E, size: 0x8, addend: 0x0, symName: __ZN5godot10ConfigFileD0Ev.cold.1, symObjAddr: 0x3368, symBinAddr: 0x100448, symSize: 0x1C }
  - { offset: 0x13DF39, size: 0x8, addend: 0x0, symName: __ZN5godot10ConfigFileD0Ev.cold.1, symObjAddr: 0x3368, symBinAddr: 0x100448, symSize: 0x1C }
  - { offset: 0x13DF4D, size: 0x8, addend: 0x0, symName: __ZN5godot10ConfigFileD0Ev.cold.1, symObjAddr: 0x3368, symBinAddr: 0x100448, symSize: 0x1C }
  - { offset: 0x13DF61, size: 0x8, addend: 0x0, symName: __ZN5godot10ConfigFileD0Ev.cold.1, symObjAddr: 0x3368, symBinAddr: 0x100448, symSize: 0x1C }
  - { offset: 0x13DF75, size: 0x8, addend: 0x0, symName: __ZN5godot10ConfigFileD0Ev.cold.1, symObjAddr: 0x3368, symBinAddr: 0x100448, symSize: 0x1C }
  - { offset: 0x13DF89, size: 0x8, addend: 0x0, symName: __ZN5godot10ConfigFileD0Ev.cold.1, symObjAddr: 0x3368, symBinAddr: 0x100448, symSize: 0x1C }
  - { offset: 0x13DF9D, size: 0x8, addend: 0x0, symName: __ZN5godot10ConfigFileD0Ev.cold.1, symObjAddr: 0x3368, symBinAddr: 0x100448, symSize: 0x1C }
  - { offset: 0x13DFB2, size: 0x8, addend: 0x0, symName: __ZN5godot10ConfigFileD0Ev.cold.1, symObjAddr: 0x3368, symBinAddr: 0x100448, symSize: 0x1C }
  - { offset: 0x13DFD2, size: 0x8, addend: 0x0, symName: __ZN5godot8internal23EngineClassRegistrationINS_5MutexEE8callbackEv.cold.1, symObjAddr: 0x3384, symBinAddr: 0x100464, symSize: 0x5C }
  - { offset: 0x13E01C, size: 0x8, addend: 0x0, symName: __ZN5godot5MutexD1Ev.cold.1, symObjAddr: 0x33E0, symBinAddr: 0x1004C0, symSize: 0x1C }
  - { offset: 0x13E037, size: 0x8, addend: 0x0, symName: __ZN5godot5MutexD1Ev.cold.1, symObjAddr: 0x33E0, symBinAddr: 0x1004C0, symSize: 0x1C }
  - { offset: 0x13E04B, size: 0x8, addend: 0x0, symName: __ZN5godot5MutexD1Ev.cold.1, symObjAddr: 0x33E0, symBinAddr: 0x1004C0, symSize: 0x1C }
  - { offset: 0x13E05F, size: 0x8, addend: 0x0, symName: __ZN5godot5MutexD1Ev.cold.1, symObjAddr: 0x33E0, symBinAddr: 0x1004C0, symSize: 0x1C }
  - { offset: 0x13E073, size: 0x8, addend: 0x0, symName: __ZN5godot5MutexD1Ev.cold.1, symObjAddr: 0x33E0, symBinAddr: 0x1004C0, symSize: 0x1C }
  - { offset: 0x13E087, size: 0x8, addend: 0x0, symName: __ZN5godot5MutexD1Ev.cold.1, symObjAddr: 0x33E0, symBinAddr: 0x1004C0, symSize: 0x1C }
  - { offset: 0x13E09C, size: 0x8, addend: 0x0, symName: __ZN5godot5MutexD1Ev.cold.1, symObjAddr: 0x33E0, symBinAddr: 0x1004C0, symSize: 0x1C }
  - { offset: 0x13E0D0, size: 0x8, addend: 0x0, symName: __ZN5godot5MutexD0Ev.cold.1, symObjAddr: 0x33FC, symBinAddr: 0x1004DC, symSize: 0x1C }
  - { offset: 0x13E0EB, size: 0x8, addend: 0x0, symName: __ZN5godot5MutexD0Ev.cold.1, symObjAddr: 0x33FC, symBinAddr: 0x1004DC, symSize: 0x1C }
  - { offset: 0x13E0FF, size: 0x8, addend: 0x0, symName: __ZN5godot5MutexD0Ev.cold.1, symObjAddr: 0x33FC, symBinAddr: 0x1004DC, symSize: 0x1C }
  - { offset: 0x13E113, size: 0x8, addend: 0x0, symName: __ZN5godot5MutexD0Ev.cold.1, symObjAddr: 0x33FC, symBinAddr: 0x1004DC, symSize: 0x1C }
  - { offset: 0x13E127, size: 0x8, addend: 0x0, symName: __ZN5godot5MutexD0Ev.cold.1, symObjAddr: 0x33FC, symBinAddr: 0x1004DC, symSize: 0x1C }
  - { offset: 0x13E13B, size: 0x8, addend: 0x0, symName: __ZN5godot5MutexD0Ev.cold.1, symObjAddr: 0x33FC, symBinAddr: 0x1004DC, symSize: 0x1C }
  - { offset: 0x13E14F, size: 0x8, addend: 0x0, symName: __ZN5godot5MutexD0Ev.cold.1, symObjAddr: 0x33FC, symBinAddr: 0x1004DC, symSize: 0x1C }
  - { offset: 0x13E164, size: 0x8, addend: 0x0, symName: __ZN5godot5MutexD0Ev.cold.1, symObjAddr: 0x33FC, symBinAddr: 0x1004DC, symSize: 0x1C }
  - { offset: 0x13E27D, size: 0x8, addend: 0x0, symName: __ZN5godot18create_method_bindIN6sentry12SentryLoggerEJNS1_8LogLevelERKNS_6StringERKNS_5ArrayERKNS_10DictionaryEEEEPNS_10MethodBindEMT_FvDpT0_E.cold.1, symObjAddr: 0x3418, symBinAddr: 0x1004F8, symSize: 0x60 }
  - { offset: 0x13E2C2, size: 0x8, addend: 0x0, symName: __ZNK5godot11MethodBindTIJN6sentry8LogLevelERKNS_6StringERKNS_5ArrayERKNS_10DictionaryEEE17gen_argument_typeEi, symObjAddr: 0x1C64, symBinAddr: 0x25BB0, symSize: 0x38 }
  - { offset: 0x13E2FB, size: 0x8, addend: 0x0, symName: __ZNK5godot11MethodBindTIJN6sentry8LogLevelERKNS_6StringERKNS_5ArrayERKNS_10DictionaryEEE17gen_argument_typeEi, symObjAddr: 0x1C64, symBinAddr: 0x25BB0, symSize: 0x38 }
  - { offset: 0x13E333, size: 0x8, addend: 0x0, symName: __ZNK5godot11MethodBindTIJN6sentry8LogLevelERKNS_6StringERKNS_5ArrayERKNS_10DictionaryEEE17gen_argument_typeEi, symObjAddr: 0x1C64, symBinAddr: 0x25BB0, symSize: 0x38 }
  - { offset: 0x13E3FF, size: 0x8, addend: 0x0, symName: __ZNK5godot11MethodBindTIJN6sentry8LogLevelERKNS_6StringERKNS_5ArrayERKNS_10DictionaryEEE22gen_argument_type_infoEi, symObjAddr: 0x1C9C, symBinAddr: 0x25BE8, symSize: 0x158 }
  - { offset: 0x13E5A0, size: 0x8, addend: 0x0, symName: __ZNK5godot11MethodBindTIJN6sentry8LogLevelERKNS_6StringERKNS_5ArrayERKNS_10DictionaryEEE21get_argument_metadataEi, symObjAddr: 0x1DF4, symBinAddr: 0x25D40, symSize: 0x8 }
  - { offset: 0x13E5F1, size: 0x8, addend: 0x0, symName: __ZNK5godot11MethodBindTIJN6sentry8LogLevelERKNS_6StringERKNS_5ArrayERKNS_10DictionaryEEE4callEPvPKPKvxR20GDExtensionCallError, symObjAddr: 0x1DFC, symBinAddr: 0x25D48, symSize: 0x40 }
  - { offset: 0x13E69E, size: 0x8, addend: 0x0, symName: __ZNK5godot11MethodBindTIJN6sentry8LogLevelERKNS_6StringERKNS_5ArrayERKNS_10DictionaryEEE7ptrcallEPvPKPKvSD_, symObjAddr: 0x1E3C, symBinAddr: 0x25D88, symSize: 0x14 }
  - { offset: 0x13E75E, size: 0x8, addend: 0x0, symName: __ZN5godot11MethodBindTIJN6sentry8LogLevelERKNS_6StringERKNS_5ArrayERKNS_10DictionaryEEED1Ev, symObjAddr: 0x1E50, symBinAddr: 0x25D9C, symSize: 0x4 }
  - { offset: 0x13E781, size: 0x8, addend: 0x0, symName: __ZN5godot11MethodBindTIJN6sentry8LogLevelERKNS_6StringERKNS_5ArrayERKNS_10DictionaryEEED1Ev, symObjAddr: 0x1E50, symBinAddr: 0x25D9C, symSize: 0x4 }
  - { offset: 0x13E7B9, size: 0x8, addend: 0x0, symName: __ZN5godot11MethodBindTIJN6sentry8LogLevelERKNS_6StringERKNS_5ArrayERKNS_10DictionaryEEED0Ev, symObjAddr: 0x1E54, symBinAddr: 0x25DA0, symSize: 0x14 }
  - { offset: 0x13E9E7, size: 0x8, addend: 0x0, symName: __ZN5godot18create_method_bindIN6sentry12SentryLoggerEJRKNS_6StringERKNS_5ArrayERKNS_10DictionaryEEEEPNS_10MethodBindEMT_FvDpT0_E.cold.1, symObjAddr: 0x3478, symBinAddr: 0x100558, symSize: 0x60 }
  - { offset: 0x13EA22, size: 0x8, addend: 0x0, symName: __ZNK5godot11MethodBindTIJRKNS_6StringERKNS_5ArrayERKNS_10DictionaryEEE17gen_argument_typeEi, symObjAddr: 0x2A9C, symBinAddr: 0x263F4, symSize: 0x2C }
  - { offset: 0x13EA5B, size: 0x8, addend: 0x0, symName: __ZNK5godot11MethodBindTIJRKNS_6StringERKNS_5ArrayERKNS_10DictionaryEEE17gen_argument_typeEi, symObjAddr: 0x2A9C, symBinAddr: 0x263F4, symSize: 0x2C }
  - { offset: 0x13EA93, size: 0x8, addend: 0x0, symName: __ZNK5godot11MethodBindTIJRKNS_6StringERKNS_5ArrayERKNS_10DictionaryEEE17gen_argument_typeEi, symObjAddr: 0x2A9C, symBinAddr: 0x263F4, symSize: 0x2C }
  - { offset: 0x13EAEB, size: 0x8, addend: 0x0, symName: __ZNK5godot11MethodBindTIJRKNS_6StringERKNS_5ArrayERKNS_10DictionaryEEE22gen_argument_type_infoEi, symObjAddr: 0x2AC8, symBinAddr: 0x26420, symSize: 0x148 }
  - { offset: 0x13EC6B, size: 0x8, addend: 0x0, symName: __ZNK5godot11MethodBindTIJRKNS_6StringERKNS_5ArrayERKNS_10DictionaryEEE21get_argument_metadataEi, symObjAddr: 0x2C10, symBinAddr: 0x26568, symSize: 0x8 }
  - { offset: 0x13ECA1, size: 0x8, addend: 0x0, symName: __ZNK5godot11MethodBindTIJRKNS_6StringERKNS_5ArrayERKNS_10DictionaryEEE4callEPvPKPKvxR20GDExtensionCallError, symObjAddr: 0x2C18, symBinAddr: 0x26570, symSize: 0x40 }
  - { offset: 0x13ED4E, size: 0x8, addend: 0x0, symName: __ZNK5godot11MethodBindTIJRKNS_6StringERKNS_5ArrayERKNS_10DictionaryEEE7ptrcallEPvPKPKvSB_, symObjAddr: 0x2C58, symBinAddr: 0x265B0, symSize: 0x14 }
  - { offset: 0x13EE0E, size: 0x8, addend: 0x0, symName: __ZN5godot11MethodBindTIJRKNS_6StringERKNS_5ArrayERKNS_10DictionaryEEED1Ev, symObjAddr: 0x2C6C, symBinAddr: 0x265C4, symSize: 0x4 }
  - { offset: 0x13EE31, size: 0x8, addend: 0x0, symName: __ZN5godot11MethodBindTIJRKNS_6StringERKNS_5ArrayERKNS_10DictionaryEEED1Ev, symObjAddr: 0x2C6C, symBinAddr: 0x265C4, symSize: 0x4 }
  - { offset: 0x13EE69, size: 0x8, addend: 0x0, symName: __ZN5godot11MethodBindTIJRKNS_6StringERKNS_5ArrayERKNS_10DictionaryEEED0Ev, symObjAddr: 0x2C70, symBinAddr: 0x265C8, symSize: 0x14 }
  - { offset: 0x13EED1, size: 0x8, addend: 0x0, symName: _OUTLINED_FUNCTION_0, symObjAddr: 0x34D8, symBinAddr: 0x26924, symSize: 0x10 }
  - { offset: 0x13EEE9, size: 0x8, addend: 0x0, symName: _OUTLINED_FUNCTION_1, symObjAddr: 0x34E8, symBinAddr: 0x26934, symSize: 0xC }
  - { offset: 0x13EF01, size: 0x8, addend: 0x0, symName: _OUTLINED_FUNCTION_2, symObjAddr: 0x34F4, symBinAddr: 0x26940, symSize: 0xC }
  - { offset: 0x13EF19, size: 0x8, addend: 0x0, symName: _OUTLINED_FUNCTION_3, symObjAddr: 0x3500, symBinAddr: 0x2694C, symSize: 0x8 }
  - { offset: 0x13EF31, size: 0x8, addend: 0x0, symName: _OUTLINED_FUNCTION_4, symObjAddr: 0x3508, symBinAddr: 0x26954, symSize: 0x8 }
  - { offset: 0x13EF49, size: 0x8, addend: 0x0, symName: _OUTLINED_FUNCTION_5, symObjAddr: 0x3510, symBinAddr: 0x2695C, symSize: 0x8 }
  - { offset: 0x143174, size: 0x8, addend: 0x0, symName: __ZN5godot18create_method_bindIN6sentry12SentryMetricEJRKNS_6StringEEEEPNS_10MethodBindEMT_FvDpT0_E, symObjAddr: 0x3F78, symBinAddr: 0x291A8, symSize: 0x114 }
  - { offset: 0x1432BC, size: 0x8, addend: 0x0, symName: __ZN5godot18create_method_bindIN6sentry12SentryMetricENS_6StringEJEEEPNS_10MethodBindEMT_KFT0_DpT1_E, symObjAddr: 0x16E0, symBinAddr: 0x27C10, symSize: 0x12C }
  - { offset: 0x1433F2, size: 0x8, addend: 0x0, symName: __ZN5godot18create_method_bindIN6sentry12SentryMetricEJNS2_10MetricTypeEEEEPNS_10MethodBindEMT_FvDpT0_E, symObjAddr: 0x1A78, symBinAddr: 0x27D3C, symSize: 0x114 }
  - { offset: 0x143525, size: 0x8, addend: 0x0, symName: __ZN5godot18create_method_bindIN6sentry12SentryMetricENS2_10MetricTypeEJEEEPNS_10MethodBindEMT_KFT0_DpT1_E, symObjAddr: 0x2188, symBinAddr: 0x2833C, symSize: 0x12C }
  - { offset: 0x14365B, size: 0x8, addend: 0x0, symName: __ZN5godot18create_method_bindIN6sentry12SentryMetricEJdEEEPNS_10MethodBindEMT_FvDpT0_E, symObjAddr: 0x23DC, symBinAddr: 0x28590, symSize: 0x114 }
  - { offset: 0x14378E, size: 0x8, addend: 0x0, symName: __ZN5godot18create_method_bindIN6sentry12SentryMetricEdJEEEPNS_10MethodBindEMT_KFT0_DpT1_E, symObjAddr: 0x2958, symBinAddr: 0x28B0C, symSize: 0x12C }
  - { offset: 0x1438C4, size: 0x8, addend: 0x0, symName: __ZN5godot18create_method_bindIN6sentry12SentryMetricENS_7VariantEJRKNS_6StringEEEEPNS_10MethodBindEMT_KFT0_DpT1_E, symObjAddr: 0x2C9C, symBinAddr: 0x28E50, symSize: 0x12C }
  - { offset: 0x143A00, size: 0x8, addend: 0x0, symName: __ZN5godot18create_method_bindIN6sentry12SentryMetricEJRKNS_6StringERKNS_7VariantEEEEPNS_10MethodBindEMT_FvDpT0_E, symObjAddr: 0x3318, symBinAddr: 0x28F7C, symSize: 0x118 }
  - { offset: 0x143B38, size: 0x8, addend: 0x0, symName: __ZN5godot18create_method_bindIN6sentry12SentryMetricEJRKNS_10DictionaryEEEEPNS_10MethodBindEMT_FvDpT0_E, symObjAddr: 0x3994, symBinAddr: 0x29094, symSize: 0x114 }
  - { offset: 0x143F66, size: 0x8, addend: 0x0, symName: __ZN5godot34call_get_argument_type_info_helperIN6sentry12SentryMetric10MetricTypeEEEviRiRNS_12PropertyInfoE, symObjAddr: 0x1D54, symBinAddr: 0x28018, symSize: 0xD4 }
  - { offset: 0x14401E, size: 0x8, addend: 0x0, symName: __ZN5godot25call_with_variant_args_dvINS_20_gde_UnexistingClassEJN6sentry12SentryMetric10MetricTypeEEEEvPT_MS5_FvDpT0_EPKPKviR20GDExtensionCallErrorRKNSt3__16vectorINS_7VariantENSH_9allocatorISJ_EEEE, symObjAddr: 0x2060, symBinAddr: 0x28214, symSize: 0x128 }
  - { offset: 0x1447A2, size: 0x8, addend: 0x0, symName: __ZN5godot34call_get_argument_type_info_helperIdEEviRiRNS_12PropertyInfoE, symObjAddr: 0x26C0, symBinAddr: 0x28874, symSize: 0x174 }
  - { offset: 0x144956, size: 0x8, addend: 0x0, symName: __ZN5godot25call_with_variant_args_dvINS_20_gde_UnexistingClassEJdEEEvPT_MS2_FvDpT0_EPKPKviR20GDExtensionCallErrorRKNSt3__16vectorINS_7VariantENSE_9allocatorISG_EEEE, symObjAddr: 0x2834, symBinAddr: 0x289E8, symSize: 0x124 }
  - { offset: 0x15230B, size: 0x8, addend: 0x0, symName: ___cxx_global_var_init, symObjAddr: 0x4BD4, symBinAddr: 0x29304, symSize: 0x4C }
  - { offset: 0x152390, size: 0x8, addend: 0x0, symName: ___cxx_global_var_init.1, symObjAddr: 0x4C20, symBinAddr: 0x29350, symSize: 0x4C }
  - { offset: 0x152415, size: 0x8, addend: 0x0, symName: ___cxx_global_var_init.2, symObjAddr: 0x4C6C, symBinAddr: 0x2939C, symSize: 0x4C }
  - { offset: 0x152EE1, size: 0x8, addend: 0x0, symName: __ZN6sentry12SentryMetric13_bind_methodsEv, symObjAddr: 0x0, symBinAddr: 0x26B78, symSize: 0x1098 }
  - { offset: 0x1558EC, size: 0x8, addend: 0x0, symName: __ZN5godot11GetTypeInfoIN6sentry12SentryMetric10MetricTypeEvE14get_class_infoEv, symObjAddr: 0x1E28, symBinAddr: 0x280EC, symSize: 0x128 }
  - { offset: 0x155994, size: 0x8, addend: 0x0, symName: __ZN6sentry12SentryMetric13_bind_methodsEv.cold.1, symObjAddr: 0x43E8, symBinAddr: 0x1005B8, symSize: 0x5C }
  - { offset: 0x1559C2, size: 0x8, addend: 0x0, symName: __ZN6sentry12SentryMetric13_bind_methodsEv.cold.2, symObjAddr: 0x4444, symBinAddr: 0x100614, symSize: 0x58 }
  - { offset: 0x1559F0, size: 0x8, addend: 0x0, symName: __ZN6sentry12SentryMetric13_bind_methodsEv.cold.3, symObjAddr: 0x449C, symBinAddr: 0x10066C, symSize: 0x58 }
  - { offset: 0x155A1E, size: 0x8, addend: 0x0, symName: __ZN6sentry12SentryMetric13_bind_methodsEv.cold.4, symObjAddr: 0x44F4, symBinAddr: 0x1006C4, symSize: 0x58 }
  - { offset: 0x155A4C, size: 0x8, addend: 0x0, symName: __ZN6sentry12SentryMetric13_bind_methodsEv.cold.5, symObjAddr: 0x454C, symBinAddr: 0x10071C, symSize: 0x58 }
  - { offset: 0x155A7A, size: 0x8, addend: 0x0, symName: __ZN6sentry12SentryMetric13_bind_methodsEv.cold.6, symObjAddr: 0x45A4, symBinAddr: 0x100774, symSize: 0x58 }
  - { offset: 0x155AA8, size: 0x8, addend: 0x0, symName: __ZN6sentry12SentryMetric13_bind_methodsEv.cold.7, symObjAddr: 0x45FC, symBinAddr: 0x1007CC, symSize: 0x58 }
  - { offset: 0x155ADD, size: 0x8, addend: 0x0, symName: __ZN5godot8internal23EngineClassRegistrationINS_6ObjectEE8callbackEv.cold.1, symObjAddr: 0x4654, symBinAddr: 0x100824, symSize: 0x5C }
  - { offset: 0x155B78, size: 0x8, addend: 0x0, symName: __ZN5godot6ObjectD1Ev.cold.1, symObjAddr: 0x46B0, symBinAddr: 0x100880, symSize: 0x1C }
  - { offset: 0x155B93, size: 0x8, addend: 0x0, symName: __ZN5godot6ObjectD1Ev.cold.1, symObjAddr: 0x46B0, symBinAddr: 0x100880, symSize: 0x1C }
  - { offset: 0x155BA7, size: 0x8, addend: 0x0, symName: __ZN5godot6ObjectD1Ev.cold.1, symObjAddr: 0x46B0, symBinAddr: 0x100880, symSize: 0x1C }
  - { offset: 0x155BBB, size: 0x8, addend: 0x0, symName: __ZN5godot6ObjectD1Ev.cold.1, symObjAddr: 0x46B0, symBinAddr: 0x100880, symSize: 0x1C }
  - { offset: 0x155BD0, size: 0x8, addend: 0x0, symName: __ZN5godot6ObjectD1Ev.cold.1, symObjAddr: 0x46B0, symBinAddr: 0x100880, symSize: 0x1C }
  - { offset: 0x155C00, size: 0x8, addend: 0x0, symName: __ZN5godot6ObjectD0Ev.cold.1, symObjAddr: 0x46CC, symBinAddr: 0x10089C, symSize: 0x1C }
  - { offset: 0x155C1B, size: 0x8, addend: 0x0, symName: __ZN5godot6ObjectD0Ev.cold.1, symObjAddr: 0x46CC, symBinAddr: 0x10089C, symSize: 0x1C }
  - { offset: 0x155C2F, size: 0x8, addend: 0x0, symName: __ZN5godot6ObjectD0Ev.cold.1, symObjAddr: 0x46CC, symBinAddr: 0x10089C, symSize: 0x1C }
  - { offset: 0x155C43, size: 0x8, addend: 0x0, symName: __ZN5godot6ObjectD0Ev.cold.1, symObjAddr: 0x46CC, symBinAddr: 0x10089C, symSize: 0x1C }
  - { offset: 0x155C57, size: 0x8, addend: 0x0, symName: __ZN5godot6ObjectD0Ev.cold.1, symObjAddr: 0x46CC, symBinAddr: 0x10089C, symSize: 0x1C }
  - { offset: 0x155C6C, size: 0x8, addend: 0x0, symName: __ZN5godot6ObjectD0Ev.cold.1, symObjAddr: 0x46CC, symBinAddr: 0x10089C, symSize: 0x1C }
  - { offset: 0x155C83, size: 0x8, addend: 0x0, symName: __ZN5godot7WrappedD1Ev.cold.1, symObjAddr: 0x46E8, symBinAddr: 0x1008B8, symSize: 0x1C }
  - { offset: 0x155C9E, size: 0x8, addend: 0x0, symName: __ZN5godot7WrappedD1Ev.cold.1, symObjAddr: 0x46E8, symBinAddr: 0x1008B8, symSize: 0x1C }
  - { offset: 0x155CB2, size: 0x8, addend: 0x0, symName: __ZN5godot7WrappedD1Ev.cold.1, symObjAddr: 0x46E8, symBinAddr: 0x1008B8, symSize: 0x1C }
  - { offset: 0x155CC7, size: 0x8, addend: 0x0, symName: __ZN5godot7WrappedD1Ev.cold.1, symObjAddr: 0x46E8, symBinAddr: 0x1008B8, symSize: 0x1C }
  - { offset: 0x155CF6, size: 0x8, addend: 0x0, symName: __ZN5godot7WrappedD0Ev.cold.1, symObjAddr: 0x4704, symBinAddr: 0x1008D4, symSize: 0x1C }
  - { offset: 0x155D11, size: 0x8, addend: 0x0, symName: __ZN5godot7WrappedD0Ev.cold.1, symObjAddr: 0x4704, symBinAddr: 0x1008D4, symSize: 0x1C }
  - { offset: 0x155D25, size: 0x8, addend: 0x0, symName: __ZN5godot7WrappedD0Ev.cold.1, symObjAddr: 0x4704, symBinAddr: 0x1008D4, symSize: 0x1C }
  - { offset: 0x155D39, size: 0x8, addend: 0x0, symName: __ZN5godot7WrappedD0Ev.cold.1, symObjAddr: 0x4704, symBinAddr: 0x1008D4, symSize: 0x1C }
  - { offset: 0x155D4E, size: 0x8, addend: 0x0, symName: __ZN5godot7WrappedD0Ev.cold.1, symObjAddr: 0x4704, symBinAddr: 0x1008D4, symSize: 0x1C }
  - { offset: 0x155D64, size: 0x8, addend: 0x0, symName: __ZN5godot4ListINS_12PropertyInfoENS_16DefaultAllocatorEE5_Data5eraseEPNS3_7ElementE.cold.2, symObjAddr: 0x4740, symBinAddr: 0x100910, symSize: 0x20 }
  - { offset: 0x155D7C, size: 0x8, addend: 0x0, symName: __ZN5godot4ListINS_12PropertyInfoENS_16DefaultAllocatorEE5_Data5eraseEPNS3_7ElementE.cold.1, symObjAddr: 0x4720, symBinAddr: 0x1008F0, symSize: 0x20 }
  - { offset: 0x155D9B, size: 0x8, addend: 0x0, symName: __ZN5godot8internal23EngineClassRegistrationINS_16ClassDBSingletonEE8callbackEv.cold.1, symObjAddr: 0x4760, symBinAddr: 0x100930, symSize: 0x5C }
  - { offset: 0x155DD0, size: 0x8, addend: 0x0, symName: __ZN5godot8internal23EngineClassRegistrationINS_10RefCountedEE8callbackEv.cold.1, symObjAddr: 0x47BC, symBinAddr: 0x10098C, symSize: 0x5C }
  - { offset: 0x155E1A, size: 0x8, addend: 0x0, symName: __ZN5godot10RefCountedD1Ev.cold.1, symObjAddr: 0x4818, symBinAddr: 0x1009E8, symSize: 0x1C }
  - { offset: 0x155E35, size: 0x8, addend: 0x0, symName: __ZN5godot10RefCountedD1Ev.cold.1, symObjAddr: 0x4818, symBinAddr: 0x1009E8, symSize: 0x1C }
  - { offset: 0x155E49, size: 0x8, addend: 0x0, symName: __ZN5godot10RefCountedD1Ev.cold.1, symObjAddr: 0x4818, symBinAddr: 0x1009E8, symSize: 0x1C }
  - { offset: 0x155E5D, size: 0x8, addend: 0x0, symName: __ZN5godot10RefCountedD1Ev.cold.1, symObjAddr: 0x4818, symBinAddr: 0x1009E8, symSize: 0x1C }
  - { offset: 0x155E71, size: 0x8, addend: 0x0, symName: __ZN5godot10RefCountedD1Ev.cold.1, symObjAddr: 0x4818, symBinAddr: 0x1009E8, symSize: 0x1C }
  - { offset: 0x155E86, size: 0x8, addend: 0x0, symName: __ZN5godot10RefCountedD1Ev.cold.1, symObjAddr: 0x4818, symBinAddr: 0x1009E8, symSize: 0x1C }
  - { offset: 0x155EB9, size: 0x8, addend: 0x0, symName: __ZN5godot10RefCountedD0Ev.cold.1, symObjAddr: 0x4834, symBinAddr: 0x100A04, symSize: 0x1C }
  - { offset: 0x155ED4, size: 0x8, addend: 0x0, symName: __ZN5godot10RefCountedD0Ev.cold.1, symObjAddr: 0x4834, symBinAddr: 0x100A04, symSize: 0x1C }
  - { offset: 0x155EE8, size: 0x8, addend: 0x0, symName: __ZN5godot10RefCountedD0Ev.cold.1, symObjAddr: 0x4834, symBinAddr: 0x100A04, symSize: 0x1C }
  - { offset: 0x155EFC, size: 0x8, addend: 0x0, symName: __ZN5godot10RefCountedD0Ev.cold.1, symObjAddr: 0x4834, symBinAddr: 0x100A04, symSize: 0x1C }
  - { offset: 0x155F10, size: 0x8, addend: 0x0, symName: __ZN5godot10RefCountedD0Ev.cold.1, symObjAddr: 0x4834, symBinAddr: 0x100A04, symSize: 0x1C }
  - { offset: 0x155F24, size: 0x8, addend: 0x0, symName: __ZN5godot10RefCountedD0Ev.cold.1, symObjAddr: 0x4834, symBinAddr: 0x100A04, symSize: 0x1C }
  - { offset: 0x155F39, size: 0x8, addend: 0x0, symName: __ZN5godot10RefCountedD0Ev.cold.1, symObjAddr: 0x4834, symBinAddr: 0x100A04, symSize: 0x1C }
  - { offset: 0x15604A, size: 0x8, addend: 0x0, symName: __ZN5godot18create_method_bindIN6sentry12SentryMetricENS_6StringEJEEEPNS_10MethodBindEMT_KFT0_DpT1_E.cold.1, symObjAddr: 0x4850, symBinAddr: 0x100A20, symSize: 0x5C }
  - { offset: 0x156148, size: 0x8, addend: 0x0, symName: __ZN5godot18create_method_bindIN6sentry12SentryMetricEJNS2_10MetricTypeEEEEPNS_10MethodBindEMT_FvDpT0_E.cold.1, symObjAddr: 0x48AC, symBinAddr: 0x100A7C, symSize: 0x5C }
  - { offset: 0x156177, size: 0x8, addend: 0x0, symName: __ZNK5godot11MethodBindTIJN6sentry12SentryMetric10MetricTypeEEE17gen_argument_typeEi, symObjAddr: 0x1B8C, symBinAddr: 0x27E50, symSize: 0x10 }
  - { offset: 0x1561DB, size: 0x8, addend: 0x0, symName: __ZNK5godot11MethodBindTIJN6sentry12SentryMetric10MetricTypeEEE22gen_argument_type_infoEi, symObjAddr: 0x1B9C, symBinAddr: 0x27E60, symSize: 0x138 }
  - { offset: 0x156314, size: 0x8, addend: 0x0, symName: __ZNK5godot11MethodBindTIJN6sentry12SentryMetric10MetricTypeEEE21get_argument_metadataEi, symObjAddr: 0x1CD4, symBinAddr: 0x27F98, symSize: 0x8 }
  - { offset: 0x156365, size: 0x8, addend: 0x0, symName: __ZNK5godot11MethodBindTIJN6sentry12SentryMetric10MetricTypeEEE4callEPvPKPKvxR20GDExtensionCallError, symObjAddr: 0x1CDC, symBinAddr: 0x27FA0, symSize: 0x40 }
  - { offset: 0x156425, size: 0x8, addend: 0x0, symName: __ZNK5godot11MethodBindTIJN6sentry12SentryMetric10MetricTypeEEE7ptrcallEPvPKPKvS5_, symObjAddr: 0x1D1C, symBinAddr: 0x27FE0, symSize: 0x20 }
  - { offset: 0x156510, size: 0x8, addend: 0x0, symName: __ZN5godot11MethodBindTIJN6sentry12SentryMetric10MetricTypeEEED1Ev, symObjAddr: 0x1D3C, symBinAddr: 0x28000, symSize: 0x4 }
  - { offset: 0x156533, size: 0x8, addend: 0x0, symName: __ZN5godot11MethodBindTIJN6sentry12SentryMetric10MetricTypeEEED1Ev, symObjAddr: 0x1D3C, symBinAddr: 0x28000, symSize: 0x4 }
  - { offset: 0x15656B, size: 0x8, addend: 0x0, symName: __ZN5godot11MethodBindTIJN6sentry12SentryMetric10MetricTypeEEED0Ev, symObjAddr: 0x1D40, symBinAddr: 0x28004, symSize: 0x14 }
  - { offset: 0x156686, size: 0x8, addend: 0x0, symName: __ZN5godot18create_method_bindIN6sentry12SentryMetricENS2_10MetricTypeEJEEEPNS_10MethodBindEMT_KFT0_DpT1_E.cold.1, symObjAddr: 0x4908, symBinAddr: 0x100AD8, symSize: 0x5C }
  - { offset: 0x1566B5, size: 0x8, addend: 0x0, symName: __ZNK5godot13MethodBindTRCIN6sentry12SentryMetric10MetricTypeEJEE17gen_argument_typeEi, symObjAddr: 0x22B4, symBinAddr: 0x28468, symSize: 0x8 }
  - { offset: 0x1566EB, size: 0x8, addend: 0x0, symName: __ZNK5godot13MethodBindTRCIN6sentry12SentryMetric10MetricTypeEJEE22gen_argument_type_infoEi, symObjAddr: 0x22BC, symBinAddr: 0x28470, symSize: 0x4 }
  - { offset: 0x156722, size: 0x8, addend: 0x0, symName: __ZNK5godot13MethodBindTRCIN6sentry12SentryMetric10MetricTypeEJEE22gen_argument_type_infoEi, symObjAddr: 0x22BC, symBinAddr: 0x28470, symSize: 0x4 }
  - { offset: 0x156735, size: 0x8, addend: 0x0, symName: __ZNK5godot13MethodBindTRCIN6sentry12SentryMetric10MetricTypeEJEE21get_argument_metadataEi, symObjAddr: 0x22C0, symBinAddr: 0x28474, symSize: 0x8 }
  - { offset: 0x156790, size: 0x8, addend: 0x0, symName: __ZNK5godot13MethodBindTRCIN6sentry12SentryMetric10MetricTypeEJEE4callEPvPKPKvxR20GDExtensionCallError, symObjAddr: 0x22C8, symBinAddr: 0x2847C, symSize: 0xC0 }
  - { offset: 0x1568D0, size: 0x8, addend: 0x0, symName: __ZNK5godot13MethodBindTRCIN6sentry12SentryMetric10MetricTypeEJEE7ptrcallEPvPKPKvS5_, symObjAddr: 0x2388, symBinAddr: 0x2853C, symSize: 0x3C }
  - { offset: 0x1569BD, size: 0x8, addend: 0x0, symName: __ZN5godot13MethodBindTRCIN6sentry12SentryMetric10MetricTypeEJEED1Ev, symObjAddr: 0x23C4, symBinAddr: 0x28578, symSize: 0x4 }
  - { offset: 0x1569E0, size: 0x8, addend: 0x0, symName: __ZN5godot13MethodBindTRCIN6sentry12SentryMetric10MetricTypeEJEED1Ev, symObjAddr: 0x23C4, symBinAddr: 0x28578, symSize: 0x4 }
  - { offset: 0x156A18, size: 0x8, addend: 0x0, symName: __ZN5godot13MethodBindTRCIN6sentry12SentryMetric10MetricTypeEJEED0Ev, symObjAddr: 0x23C8, symBinAddr: 0x2857C, symSize: 0x14 }
  - { offset: 0x156AE2, size: 0x8, addend: 0x0, symName: __ZN5godot18create_method_bindIN6sentry12SentryMetricEJdEEEPNS_10MethodBindEMT_FvDpT0_E.cold.1, symObjAddr: 0x4964, symBinAddr: 0x100B34, symSize: 0x5C }
  - { offset: 0x156B11, size: 0x8, addend: 0x0, symName: __ZNK5godot11MethodBindTIJdEE17gen_argument_typeEi, symObjAddr: 0x24F0, symBinAddr: 0x286A4, symSize: 0x10 }
  - { offset: 0x156B47, size: 0x8, addend: 0x0, symName: __ZNK5godot11MethodBindTIJdEE22gen_argument_type_infoEi, symObjAddr: 0x2500, symBinAddr: 0x286B4, symSize: 0x138 }
  - { offset: 0x156C8A, size: 0x8, addend: 0x0, symName: __ZNK5godot11MethodBindTIJdEE21get_argument_metadataEi, symObjAddr: 0x2638, symBinAddr: 0x287EC, symSize: 0x10 }
  - { offset: 0x156CC3, size: 0x8, addend: 0x0, symName: __ZNK5godot11MethodBindTIJdEE21get_argument_metadataEi, symObjAddr: 0x2638, symBinAddr: 0x287EC, symSize: 0x10 }
  - { offset: 0x156CFC, size: 0x8, addend: 0x0, symName: __ZNK5godot11MethodBindTIJdEE21get_argument_metadataEi, symObjAddr: 0x2638, symBinAddr: 0x287EC, symSize: 0x10 }
  - { offset: 0x156D18, size: 0x8, addend: 0x0, symName: __ZNK5godot11MethodBindTIJdEE4callEPvPKPKvxR20GDExtensionCallError, symObjAddr: 0x2648, symBinAddr: 0x287FC, symSize: 0x40 }
  - { offset: 0x156DD8, size: 0x8, addend: 0x0, symName: __ZNK5godot11MethodBindTIJdEE7ptrcallEPvPKPKvS2_, symObjAddr: 0x2688, symBinAddr: 0x2883C, symSize: 0x20 }
  - { offset: 0x156EBD, size: 0x8, addend: 0x0, symName: __ZN5godot11MethodBindTIJdEED1Ev, symObjAddr: 0x26A8, symBinAddr: 0x2885C, symSize: 0x4 }
  - { offset: 0x156EE0, size: 0x8, addend: 0x0, symName: __ZN5godot11MethodBindTIJdEED1Ev, symObjAddr: 0x26A8, symBinAddr: 0x2885C, symSize: 0x4 }
  - { offset: 0x156F18, size: 0x8, addend: 0x0, symName: __ZN5godot11MethodBindTIJdEED0Ev, symObjAddr: 0x26AC, symBinAddr: 0x28860, symSize: 0x14 }
  - { offset: 0x156FFC, size: 0x8, addend: 0x0, symName: __ZN5godot18create_method_bindIN6sentry12SentryMetricEdJEEEPNS_10MethodBindEMT_KFT0_DpT1_E.cold.1, symObjAddr: 0x49C0, symBinAddr: 0x100B90, symSize: 0x5C }
  - { offset: 0x15702B, size: 0x8, addend: 0x0, symName: __ZNK5godot13MethodBindTRCIdJEE17gen_argument_typeEi, symObjAddr: 0x2A84, symBinAddr: 0x28C38, symSize: 0x8 }
  - { offset: 0x157061, size: 0x8, addend: 0x0, symName: __ZNK5godot13MethodBindTRCIdJEE22gen_argument_type_infoEi, symObjAddr: 0x2A8C, symBinAddr: 0x28C40, symSize: 0xF8 }
  - { offset: 0x157124, size: 0x8, addend: 0x0, symName: __ZNK5godot13MethodBindTRCIdJEE21get_argument_metadataEi, symObjAddr: 0x2B84, symBinAddr: 0x28D38, symSize: 0xC }
  - { offset: 0x15715A, size: 0x8, addend: 0x0, symName: __ZNK5godot13MethodBindTRCIdJEE4callEPvPKPKvxR20GDExtensionCallError, symObjAddr: 0x2B90, symBinAddr: 0x28D44, symSize: 0xBC }
  - { offset: 0x157271, size: 0x8, addend: 0x0, symName: __ZNK5godot13MethodBindTRCIdJEE7ptrcallEPvPKPKvS2_, symObjAddr: 0x2C4C, symBinAddr: 0x28E00, symSize: 0x38 }
  - { offset: 0x15735F, size: 0x8, addend: 0x0, symName: __ZN5godot13MethodBindTRCIdJEED1Ev, symObjAddr: 0x2C84, symBinAddr: 0x28E38, symSize: 0x4 }
  - { offset: 0x157382, size: 0x8, addend: 0x0, symName: __ZN5godot13MethodBindTRCIdJEED1Ev, symObjAddr: 0x2C84, symBinAddr: 0x28E38, symSize: 0x4 }
  - { offset: 0x1573BA, size: 0x8, addend: 0x0, symName: __ZN5godot13MethodBindTRCIdJEED0Ev, symObjAddr: 0x2C88, symBinAddr: 0x28E3C, symSize: 0x14 }
  - { offset: 0x157484, size: 0x8, addend: 0x0, symName: __ZN5godot18create_method_bindIN6sentry12SentryMetricENS_7VariantEJRKNS_6StringEEEEPNS_10MethodBindEMT_KFT0_DpT1_E.cold.1, symObjAddr: 0x4A1C, symBinAddr: 0x100BEC, symSize: 0x5C }
  - { offset: 0x157515, size: 0x8, addend: 0x0, symName: __ZN5godot18create_method_bindIN6sentry12SentryMetricEJRKNS_6StringERKNS_7VariantEEEEPNS_10MethodBindEMT_FvDpT0_E.cold.1, symObjAddr: 0x4A78, symBinAddr: 0x100C48, symSize: 0x5C }
  - { offset: 0x1575A6, size: 0x8, addend: 0x0, symName: __ZN5godot18create_method_bindIN6sentry12SentryMetricEJRKNS_10DictionaryEEEEPNS_10MethodBindEMT_FvDpT0_E.cold.1, symObjAddr: 0x4AD4, symBinAddr: 0x100CA4, symSize: 0x5C }
  - { offset: 0x157637, size: 0x8, addend: 0x0, symName: __ZN5godot18create_method_bindIN6sentry12SentryMetricEJRKNS_6StringEEEEPNS_10MethodBindEMT_FvDpT0_E.cold.1, symObjAddr: 0x4B30, symBinAddr: 0x100D00, symSize: 0x5C }
  - { offset: 0x157666, size: 0x8, addend: 0x0, symName: _OUTLINED_FUNCTION_0, symObjAddr: 0x4B8C, symBinAddr: 0x292BC, symSize: 0x10 }
  - { offset: 0x15767E, size: 0x8, addend: 0x0, symName: _OUTLINED_FUNCTION_1, symObjAddr: 0x4B9C, symBinAddr: 0x292CC, symSize: 0xC }
  - { offset: 0x157696, size: 0x8, addend: 0x0, symName: _OUTLINED_FUNCTION_2, symObjAddr: 0x4BA8, symBinAddr: 0x292D8, symSize: 0x8 }
  - { offset: 0x1576AE, size: 0x8, addend: 0x0, symName: _OUTLINED_FUNCTION_3, symObjAddr: 0x4BB0, symBinAddr: 0x292E0, symSize: 0x8 }
  - { offset: 0x1576C6, size: 0x8, addend: 0x0, symName: _OUTLINED_FUNCTION_4, symObjAddr: 0x4BB8, symBinAddr: 0x292E8, symSize: 0x8 }
  - { offset: 0x1576DE, size: 0x8, addend: 0x0, symName: _OUTLINED_FUNCTION_5, symObjAddr: 0x4BC0, symBinAddr: 0x292F0, symSize: 0x8 }
  - { offset: 0x1576F6, size: 0x8, addend: 0x0, symName: _OUTLINED_FUNCTION_6, symObjAddr: 0x4BC8, symBinAddr: 0x292F8, symSize: 0xC }
  - { offset: 0x15CC62, size: 0x8, addend: 0x0, symName: __ZN5godot18create_method_bindIN6sentry13SentryMetricsEJRKNS_6StringExRKNS_10DictionaryEEEEPNS_10MethodBindEMT_FvDpT0_E, symObjAddr: 0x1588, symBinAddr: 0x29BDC, symSize: 0x118 }
  - { offset: 0x15CD9F, size: 0x8, addend: 0x0, symName: __ZN5godot18create_method_bindIN6sentry13SentryMetricsEJRKNS_6StringEdS5_RKNS_10DictionaryEEEEPNS_10MethodBindEMT_FvDpT0_E, symObjAddr: 0x1F84, symBinAddr: 0x2A2F0, symSize: 0x118 }
  - { offset: 0x15D2BD, size: 0x8, addend: 0x0, symName: __ZN5godot34call_get_argument_type_info_helperIxEEviRiRNS_12PropertyInfoE, symObjAddr: 0x1A9C, symBinAddr: 0x29F7C, symSize: 0x174 }
  - { offset: 0x15D553, size: 0x8, addend: 0x0, symName: __ZN5godot25call_with_variant_args_dvINS_20_gde_UnexistingClassEJRKNS_6StringExRKNS_10DictionaryEEEEvPT_MS8_FvDpT0_EPKPKviR20GDExtensionCallErrorRKNSt3__16vectorINS_7VariantENSK_9allocatorISM_EEEE, symObjAddr: 0x1D84, symBinAddr: 0x2A0F0, symSize: 0x200 }
  - { offset: 0x15DCAF, size: 0x8, addend: 0x0, symName: __ZN5godot25call_with_variant_args_dvINS_20_gde_UnexistingClassEJRKNS_6StringEdS4_RKNS_10DictionaryEEEEvPT_MS8_FvDpT0_EPKPKviR20GDExtensionCallErrorRKNSt3__16vectorINS_7VariantENSK_9allocatorISM_EEEE, symObjAddr: 0x241C, symBinAddr: 0x2A614, symSize: 0x220 }
  - { offset: 0x15DE60, size: 0x8, addend: 0x0, symName: __ZN5godot25call_with_ptr_args_helperINS_20_gde_UnexistingClassEJRKNS_6StringEdS4_RKNS_10DictionaryEEJLm0ELm1ELm2ELm3EEEEvPT_MS8_FvDpT0_EPKPKvNS_13IndexSequenceIJXspT1_EEEE, symObjAddr: 0x2714, symBinAddr: 0x2A90C, symSize: 0xCC }
  - { offset: 0x15DF83, size: 0x8, addend: 0x0, symName: __ZN5godot29call_with_variant_args_helperINS_20_gde_UnexistingClassEJRKNS_6StringEdS4_RKNS_10DictionaryEEJLm0ELm1ELm2ELm3EEEEvPT_MS8_FvDpT0_EPPKNS_7VariantER20GDExtensionCallErrorNS_13IndexSequenceIJXspT1_EEEE, symObjAddr: 0x263C, symBinAddr: 0x2A834, symSize: 0xD8 }
  - { offset: 0x16BD81, size: 0x8, addend: 0x0, symName: ___cxx_global_var_init, symObjAddr: 0x2D78, symBinAddr: 0x2AA24, symSize: 0x4C }
  - { offset: 0x16BE06, size: 0x8, addend: 0x0, symName: ___cxx_global_var_init.1, symObjAddr: 0x2DC4, symBinAddr: 0x2AA70, symSize: 0x4C }
  - { offset: 0x16BE8B, size: 0x8, addend: 0x0, symName: ___cxx_global_var_init.2, symObjAddr: 0x2E10, symBinAddr: 0x2AABC, symSize: 0x4C }
  - { offset: 0x16BF10, size: 0x8, addend: 0x0, symName: ___cxx_global_var_init.3, symObjAddr: 0x2E5C, symBinAddr: 0x2AB08, symSize: 0x4C }
  - { offset: 0x16BF95, size: 0x8, addend: 0x0, symName: ___cxx_global_var_init.4, symObjAddr: 0x2EA8, symBinAddr: 0x2AB54, symSize: 0x4C }
  - { offset: 0x16C01A, size: 0x8, addend: 0x0, symName: ___cxx_global_var_init.5, symObjAddr: 0x2EF4, symBinAddr: 0x2ABA0, symSize: 0x4C }
  - { offset: 0x16C09F, size: 0x8, addend: 0x0, symName: ___cxx_global_var_init.6, symObjAddr: 0x2F40, symBinAddr: 0x2ABEC, symSize: 0x4C }
  - { offset: 0x16C2ED, size: 0x8, addend: 0x0, symName: __ZN6sentry13SentryMetrics5countERKN5godot6StringExRKNS1_10DictionaryE, symObjAddr: 0x0, symBinAddr: 0x293E8, symSize: 0x114 }
  - { offset: 0x16C565, size: 0x8, addend: 0x0, symName: __ZN6sentry13SentryMetrics5countERKN5godot6StringExRKNS1_10DictionaryE.cold.1, symObjAddr: 0x27E0, symBinAddr: 0x100D5C, symSize: 0x28 }
  - { offset: 0x16C57D, size: 0x8, addend: 0x0, symName: __ZN6sentry13SentryMetrics5gaugeERKN5godot6StringEdS4_RKNS1_10DictionaryE, symObjAddr: 0x114, symBinAddr: 0x294FC, symSize: 0x114 }
  - { offset: 0x16C804, size: 0x8, addend: 0x0, symName: __ZN6sentry13SentryMetrics5gaugeERKN5godot6StringEdS4_RKNS1_10DictionaryE.cold.1, symObjAddr: 0x2808, symBinAddr: 0x100D84, symSize: 0x28 }
  - { offset: 0x16C81C, size: 0x8, addend: 0x0, symName: __ZN6sentry13SentryMetrics12distributionERKN5godot6StringEdS4_RKNS1_10DictionaryE, symObjAddr: 0x228, symBinAddr: 0x29610, symSize: 0x114 }
  - { offset: 0x16CAA3, size: 0x8, addend: 0x0, symName: __ZN6sentry13SentryMetrics12distributionERKN5godot6StringEdS4_RKNS1_10DictionaryE.cold.1, symObjAddr: 0x2830, symBinAddr: 0x100DAC, symSize: 0x28 }
  - { offset: 0x16D118, size: 0x8, addend: 0x0, symName: __ZN6sentry13SentryMetrics13_bind_methodsEv, symObjAddr: 0x33C, symBinAddr: 0x29724, symSize: 0x4B8 }
  - { offset: 0x16DFD0, size: 0x8, addend: 0x0, symName: __ZN5godot8internal23EngineClassRegistrationINS_6ObjectEE8callbackEv.cold.1, symObjAddr: 0x2858, symBinAddr: 0x100DD4, symSize: 0x5C }
  - { offset: 0x16E06B, size: 0x8, addend: 0x0, symName: __ZN5godot6ObjectD1Ev.cold.1, symObjAddr: 0x28B4, symBinAddr: 0x100E30, symSize: 0x1C }
  - { offset: 0x16E086, size: 0x8, addend: 0x0, symName: __ZN5godot6ObjectD1Ev.cold.1, symObjAddr: 0x28B4, symBinAddr: 0x100E30, symSize: 0x1C }
  - { offset: 0x16E09A, size: 0x8, addend: 0x0, symName: __ZN5godot6ObjectD1Ev.cold.1, symObjAddr: 0x28B4, symBinAddr: 0x100E30, symSize: 0x1C }
  - { offset: 0x16E0AE, size: 0x8, addend: 0x0, symName: __ZN5godot6ObjectD1Ev.cold.1, symObjAddr: 0x28B4, symBinAddr: 0x100E30, symSize: 0x1C }
  - { offset: 0x16E0C3, size: 0x8, addend: 0x0, symName: __ZN5godot6ObjectD1Ev.cold.1, symObjAddr: 0x28B4, symBinAddr: 0x100E30, symSize: 0x1C }
  - { offset: 0x16E0F3, size: 0x8, addend: 0x0, symName: __ZN5godot6ObjectD0Ev.cold.1, symObjAddr: 0x28D0, symBinAddr: 0x100E4C, symSize: 0x1C }
  - { offset: 0x16E10E, size: 0x8, addend: 0x0, symName: __ZN5godot6ObjectD0Ev.cold.1, symObjAddr: 0x28D0, symBinAddr: 0x100E4C, symSize: 0x1C }
  - { offset: 0x16E122, size: 0x8, addend: 0x0, symName: __ZN5godot6ObjectD0Ev.cold.1, symObjAddr: 0x28D0, symBinAddr: 0x100E4C, symSize: 0x1C }
  - { offset: 0x16E136, size: 0x8, addend: 0x0, symName: __ZN5godot6ObjectD0Ev.cold.1, symObjAddr: 0x28D0, symBinAddr: 0x100E4C, symSize: 0x1C }
  - { offset: 0x16E14A, size: 0x8, addend: 0x0, symName: __ZN5godot6ObjectD0Ev.cold.1, symObjAddr: 0x28D0, symBinAddr: 0x100E4C, symSize: 0x1C }
  - { offset: 0x16E15F, size: 0x8, addend: 0x0, symName: __ZN5godot6ObjectD0Ev.cold.1, symObjAddr: 0x28D0, symBinAddr: 0x100E4C, symSize: 0x1C }
  - { offset: 0x16E176, size: 0x8, addend: 0x0, symName: __ZN5godot7WrappedD1Ev.cold.1, symObjAddr: 0x28EC, symBinAddr: 0x100E68, symSize: 0x1C }
  - { offset: 0x16E191, size: 0x8, addend: 0x0, symName: __ZN5godot7WrappedD1Ev.cold.1, symObjAddr: 0x28EC, symBinAddr: 0x100E68, symSize: 0x1C }
  - { offset: 0x16E1A5, size: 0x8, addend: 0x0, symName: __ZN5godot7WrappedD1Ev.cold.1, symObjAddr: 0x28EC, symBinAddr: 0x100E68, symSize: 0x1C }
  - { offset: 0x16E1BA, size: 0x8, addend: 0x0, symName: __ZN5godot7WrappedD1Ev.cold.1, symObjAddr: 0x28EC, symBinAddr: 0x100E68, symSize: 0x1C }
  - { offset: 0x16E1E9, size: 0x8, addend: 0x0, symName: __ZN5godot7WrappedD0Ev.cold.1, symObjAddr: 0x2908, symBinAddr: 0x100E84, symSize: 0x1C }
  - { offset: 0x16E204, size: 0x8, addend: 0x0, symName: __ZN5godot7WrappedD0Ev.cold.1, symObjAddr: 0x2908, symBinAddr: 0x100E84, symSize: 0x1C }
  - { offset: 0x16E218, size: 0x8, addend: 0x0, symName: __ZN5godot7WrappedD0Ev.cold.1, symObjAddr: 0x2908, symBinAddr: 0x100E84, symSize: 0x1C }
  - { offset: 0x16E22C, size: 0x8, addend: 0x0, symName: __ZN5godot7WrappedD0Ev.cold.1, symObjAddr: 0x2908, symBinAddr: 0x100E84, symSize: 0x1C }
  - { offset: 0x16E241, size: 0x8, addend: 0x0, symName: __ZN5godot7WrappedD0Ev.cold.1, symObjAddr: 0x2908, symBinAddr: 0x100E84, symSize: 0x1C }
  - { offset: 0x16E28F, size: 0x8, addend: 0x0, symName: __ZN5godot4ListINS_12PropertyInfoENS_16DefaultAllocatorEE5_Data5eraseEPNS3_7ElementE.cold.2, symObjAddr: 0x2944, symBinAddr: 0x100EC0, symSize: 0x20 }
  - { offset: 0x16E2A7, size: 0x8, addend: 0x0, symName: __ZN5godot4ListINS_12PropertyInfoENS_16DefaultAllocatorEE5_Data5eraseEPNS3_7ElementE.cold.1, symObjAddr: 0x2924, symBinAddr: 0x100EA0, symSize: 0x20 }
  - { offset: 0x16E2C6, size: 0x8, addend: 0x0, symName: __ZN5godot8internal23EngineClassRegistrationINS_16ClassDBSingletonEE8callbackEv.cold.1, symObjAddr: 0x2964, symBinAddr: 0x100EE0, symSize: 0x5C }
  - { offset: 0x16E2FB, size: 0x8, addend: 0x0, symName: __ZN5godot8internal23EngineClassRegistrationINS_10RefCountedEE8callbackEv.cold.1, symObjAddr: 0x29C0, symBinAddr: 0x100F3C, symSize: 0x5C }
  - { offset: 0x16E345, size: 0x8, addend: 0x0, symName: __ZN5godot10RefCountedD1Ev.cold.1, symObjAddr: 0x2A1C, symBinAddr: 0x100F98, symSize: 0x1C }
  - { offset: 0x16E360, size: 0x8, addend: 0x0, symName: __ZN5godot10RefCountedD1Ev.cold.1, symObjAddr: 0x2A1C, symBinAddr: 0x100F98, symSize: 0x1C }
  - { offset: 0x16E374, size: 0x8, addend: 0x0, symName: __ZN5godot10RefCountedD1Ev.cold.1, symObjAddr: 0x2A1C, symBinAddr: 0x100F98, symSize: 0x1C }
  - { offset: 0x16E388, size: 0x8, addend: 0x0, symName: __ZN5godot10RefCountedD1Ev.cold.1, symObjAddr: 0x2A1C, symBinAddr: 0x100F98, symSize: 0x1C }
  - { offset: 0x16E39C, size: 0x8, addend: 0x0, symName: __ZN5godot10RefCountedD1Ev.cold.1, symObjAddr: 0x2A1C, symBinAddr: 0x100F98, symSize: 0x1C }
  - { offset: 0x16E3B1, size: 0x8, addend: 0x0, symName: __ZN5godot10RefCountedD1Ev.cold.1, symObjAddr: 0x2A1C, symBinAddr: 0x100F98, symSize: 0x1C }
  - { offset: 0x16E3E4, size: 0x8, addend: 0x0, symName: __ZN5godot10RefCountedD0Ev.cold.1, symObjAddr: 0x2A38, symBinAddr: 0x100FB4, symSize: 0x1C }
  - { offset: 0x16E3FF, size: 0x8, addend: 0x0, symName: __ZN5godot10RefCountedD0Ev.cold.1, symObjAddr: 0x2A38, symBinAddr: 0x100FB4, symSize: 0x1C }
  - { offset: 0x16E413, size: 0x8, addend: 0x0, symName: __ZN5godot10RefCountedD0Ev.cold.1, symObjAddr: 0x2A38, symBinAddr: 0x100FB4, symSize: 0x1C }
  - { offset: 0x16E427, size: 0x8, addend: 0x0, symName: __ZN5godot10RefCountedD0Ev.cold.1, symObjAddr: 0x2A38, symBinAddr: 0x100FB4, symSize: 0x1C }
  - { offset: 0x16E43B, size: 0x8, addend: 0x0, symName: __ZN5godot10RefCountedD0Ev.cold.1, symObjAddr: 0x2A38, symBinAddr: 0x100FB4, symSize: 0x1C }
  - { offset: 0x16E44F, size: 0x8, addend: 0x0, symName: __ZN5godot10RefCountedD0Ev.cold.1, symObjAddr: 0x2A38, symBinAddr: 0x100FB4, symSize: 0x1C }
  - { offset: 0x16E464, size: 0x8, addend: 0x0, symName: __ZN5godot10RefCountedD0Ev.cold.1, symObjAddr: 0x2A38, symBinAddr: 0x100FB4, symSize: 0x1C }
  - { offset: 0x16E483, size: 0x8, addend: 0x0, symName: __ZN5godot8internal23EngineClassRegistrationINS_6LoggerEE8callbackEv.cold.1, symObjAddr: 0x2A54, symBinAddr: 0x100FD0, symSize: 0x5C }
  - { offset: 0x16E4B8, size: 0x8, addend: 0x0, symName: __ZN5godot8internal23EngineClassRegistrationINS_15ScriptBacktraceEE8callbackEv.cold.1, symObjAddr: 0x2AB0, symBinAddr: 0x10102C, symSize: 0x5C }
  - { offset: 0x16E502, size: 0x8, addend: 0x0, symName: __ZN5godot15ScriptBacktraceD1Ev.cold.1, symObjAddr: 0x2B0C, symBinAddr: 0x101088, symSize: 0x1C }
  - { offset: 0x16E51D, size: 0x8, addend: 0x0, symName: __ZN5godot15ScriptBacktraceD1Ev.cold.1, symObjAddr: 0x2B0C, symBinAddr: 0x101088, symSize: 0x1C }
  - { offset: 0x16E531, size: 0x8, addend: 0x0, symName: __ZN5godot15ScriptBacktraceD1Ev.cold.1, symObjAddr: 0x2B0C, symBinAddr: 0x101088, symSize: 0x1C }
  - { offset: 0x16E545, size: 0x8, addend: 0x0, symName: __ZN5godot15ScriptBacktraceD1Ev.cold.1, symObjAddr: 0x2B0C, symBinAddr: 0x101088, symSize: 0x1C }
  - { offset: 0x16E559, size: 0x8, addend: 0x0, symName: __ZN5godot15ScriptBacktraceD1Ev.cold.1, symObjAddr: 0x2B0C, symBinAddr: 0x101088, symSize: 0x1C }
  - { offset: 0x16E56D, size: 0x8, addend: 0x0, symName: __ZN5godot15ScriptBacktraceD1Ev.cold.1, symObjAddr: 0x2B0C, symBinAddr: 0x101088, symSize: 0x1C }
  - { offset: 0x16E582, size: 0x8, addend: 0x0, symName: __ZN5godot15ScriptBacktraceD1Ev.cold.1, symObjAddr: 0x2B0C, symBinAddr: 0x101088, symSize: 0x1C }
  - { offset: 0x16E5B6, size: 0x8, addend: 0x0, symName: __ZN5godot15ScriptBacktraceD0Ev.cold.1, symObjAddr: 0x2B28, symBinAddr: 0x1010A4, symSize: 0x1C }
  - { offset: 0x16E5D1, size: 0x8, addend: 0x0, symName: __ZN5godot15ScriptBacktraceD0Ev.cold.1, symObjAddr: 0x2B28, symBinAddr: 0x1010A4, symSize: 0x1C }
  - { offset: 0x16E5E5, size: 0x8, addend: 0x0, symName: __ZN5godot15ScriptBacktraceD0Ev.cold.1, symObjAddr: 0x2B28, symBinAddr: 0x1010A4, symSize: 0x1C }
  - { offset: 0x16E5F9, size: 0x8, addend: 0x0, symName: __ZN5godot15ScriptBacktraceD0Ev.cold.1, symObjAddr: 0x2B28, symBinAddr: 0x1010A4, symSize: 0x1C }
  - { offset: 0x16E60D, size: 0x8, addend: 0x0, symName: __ZN5godot15ScriptBacktraceD0Ev.cold.1, symObjAddr: 0x2B28, symBinAddr: 0x1010A4, symSize: 0x1C }
  - { offset: 0x16E621, size: 0x8, addend: 0x0, symName: __ZN5godot15ScriptBacktraceD0Ev.cold.1, symObjAddr: 0x2B28, symBinAddr: 0x1010A4, symSize: 0x1C }
  - { offset: 0x16E635, size: 0x8, addend: 0x0, symName: __ZN5godot15ScriptBacktraceD0Ev.cold.1, symObjAddr: 0x2B28, symBinAddr: 0x1010A4, symSize: 0x1C }
  - { offset: 0x16E64A, size: 0x8, addend: 0x0, symName: __ZN5godot15ScriptBacktraceD0Ev.cold.1, symObjAddr: 0x2B28, symBinAddr: 0x1010A4, symSize: 0x1C }
  - { offset: 0x16E66A, size: 0x8, addend: 0x0, symName: __ZN5godot8internal23EngineClassRegistrationINS_10ConfigFileEE8callbackEv.cold.1, symObjAddr: 0x2B44, symBinAddr: 0x1010C0, symSize: 0x5C }
  - { offset: 0x16E6B4, size: 0x8, addend: 0x0, symName: __ZN5godot10ConfigFileD1Ev.cold.1, symObjAddr: 0x2BA0, symBinAddr: 0x10111C, symSize: 0x1C }
  - { offset: 0x16E6CF, size: 0x8, addend: 0x0, symName: __ZN5godot10ConfigFileD1Ev.cold.1, symObjAddr: 0x2BA0, symBinAddr: 0x10111C, symSize: 0x1C }
  - { offset: 0x16E6E3, size: 0x8, addend: 0x0, symName: __ZN5godot10ConfigFileD1Ev.cold.1, symObjAddr: 0x2BA0, symBinAddr: 0x10111C, symSize: 0x1C }
  - { offset: 0x16E6F7, size: 0x8, addend: 0x0, symName: __ZN5godot10ConfigFileD1Ev.cold.1, symObjAddr: 0x2BA0, symBinAddr: 0x10111C, symSize: 0x1C }
  - { offset: 0x16E70B, size: 0x8, addend: 0x0, symName: __ZN5godot10ConfigFileD1Ev.cold.1, symObjAddr: 0x2BA0, symBinAddr: 0x10111C, symSize: 0x1C }
  - { offset: 0x16E71F, size: 0x8, addend: 0x0, symName: __ZN5godot10ConfigFileD1Ev.cold.1, symObjAddr: 0x2BA0, symBinAddr: 0x10111C, symSize: 0x1C }
  - { offset: 0x16E734, size: 0x8, addend: 0x0, symName: __ZN5godot10ConfigFileD1Ev.cold.1, symObjAddr: 0x2BA0, symBinAddr: 0x10111C, symSize: 0x1C }
  - { offset: 0x16E768, size: 0x8, addend: 0x0, symName: __ZN5godot10ConfigFileD0Ev.cold.1, symObjAddr: 0x2BBC, symBinAddr: 0x101138, symSize: 0x1C }
  - { offset: 0x16E783, size: 0x8, addend: 0x0, symName: __ZN5godot10ConfigFileD0Ev.cold.1, symObjAddr: 0x2BBC, symBinAddr: 0x101138, symSize: 0x1C }
  - { offset: 0x16E797, size: 0x8, addend: 0x0, symName: __ZN5godot10ConfigFileD0Ev.cold.1, symObjAddr: 0x2BBC, symBinAddr: 0x101138, symSize: 0x1C }
  - { offset: 0x16E7AB, size: 0x8, addend: 0x0, symName: __ZN5godot10ConfigFileD0Ev.cold.1, symObjAddr: 0x2BBC, symBinAddr: 0x101138, symSize: 0x1C }
  - { offset: 0x16E7BF, size: 0x8, addend: 0x0, symName: __ZN5godot10ConfigFileD0Ev.cold.1, symObjAddr: 0x2BBC, symBinAddr: 0x101138, symSize: 0x1C }
  - { offset: 0x16E7D3, size: 0x8, addend: 0x0, symName: __ZN5godot10ConfigFileD0Ev.cold.1, symObjAddr: 0x2BBC, symBinAddr: 0x101138, symSize: 0x1C }
  - { offset: 0x16E7E7, size: 0x8, addend: 0x0, symName: __ZN5godot10ConfigFileD0Ev.cold.1, symObjAddr: 0x2BBC, symBinAddr: 0x101138, symSize: 0x1C }
  - { offset: 0x16E7FC, size: 0x8, addend: 0x0, symName: __ZN5godot10ConfigFileD0Ev.cold.1, symObjAddr: 0x2BBC, symBinAddr: 0x101138, symSize: 0x1C }
  - { offset: 0x16E81C, size: 0x8, addend: 0x0, symName: __ZN5godot8internal23EngineClassRegistrationINS_5MutexEE8callbackEv.cold.1, symObjAddr: 0x2BD8, symBinAddr: 0x101154, symSize: 0x5C }
  - { offset: 0x16E866, size: 0x8, addend: 0x0, symName: __ZN5godot5MutexD1Ev.cold.1, symObjAddr: 0x2C34, symBinAddr: 0x1011B0, symSize: 0x1C }
  - { offset: 0x16E881, size: 0x8, addend: 0x0, symName: __ZN5godot5MutexD1Ev.cold.1, symObjAddr: 0x2C34, symBinAddr: 0x1011B0, symSize: 0x1C }
  - { offset: 0x16E895, size: 0x8, addend: 0x0, symName: __ZN5godot5MutexD1Ev.cold.1, symObjAddr: 0x2C34, symBinAddr: 0x1011B0, symSize: 0x1C }
  - { offset: 0x16E8A9, size: 0x8, addend: 0x0, symName: __ZN5godot5MutexD1Ev.cold.1, symObjAddr: 0x2C34, symBinAddr: 0x1011B0, symSize: 0x1C }
  - { offset: 0x16E8BD, size: 0x8, addend: 0x0, symName: __ZN5godot5MutexD1Ev.cold.1, symObjAddr: 0x2C34, symBinAddr: 0x1011B0, symSize: 0x1C }
  - { offset: 0x16E8D1, size: 0x8, addend: 0x0, symName: __ZN5godot5MutexD1Ev.cold.1, symObjAddr: 0x2C34, symBinAddr: 0x1011B0, symSize: 0x1C }
  - { offset: 0x16E8E6, size: 0x8, addend: 0x0, symName: __ZN5godot5MutexD1Ev.cold.1, symObjAddr: 0x2C34, symBinAddr: 0x1011B0, symSize: 0x1C }
  - { offset: 0x16E91A, size: 0x8, addend: 0x0, symName: __ZN5godot5MutexD0Ev.cold.1, symObjAddr: 0x2C50, symBinAddr: 0x1011CC, symSize: 0x1C }
  - { offset: 0x16E935, size: 0x8, addend: 0x0, symName: __ZN5godot5MutexD0Ev.cold.1, symObjAddr: 0x2C50, symBinAddr: 0x1011CC, symSize: 0x1C }
  - { offset: 0x16E949, size: 0x8, addend: 0x0, symName: __ZN5godot5MutexD0Ev.cold.1, symObjAddr: 0x2C50, symBinAddr: 0x1011CC, symSize: 0x1C }
  - { offset: 0x16E95D, size: 0x8, addend: 0x0, symName: __ZN5godot5MutexD0Ev.cold.1, symObjAddr: 0x2C50, symBinAddr: 0x1011CC, symSize: 0x1C }
  - { offset: 0x16E971, size: 0x8, addend: 0x0, symName: __ZN5godot5MutexD0Ev.cold.1, symObjAddr: 0x2C50, symBinAddr: 0x1011CC, symSize: 0x1C }
  - { offset: 0x16E985, size: 0x8, addend: 0x0, symName: __ZN5godot5MutexD0Ev.cold.1, symObjAddr: 0x2C50, symBinAddr: 0x1011CC, symSize: 0x1C }
  - { offset: 0x16E999, size: 0x8, addend: 0x0, symName: __ZN5godot5MutexD0Ev.cold.1, symObjAddr: 0x2C50, symBinAddr: 0x1011CC, symSize: 0x1C }
  - { offset: 0x16E9AE, size: 0x8, addend: 0x0, symName: __ZN5godot5MutexD0Ev.cold.1, symObjAddr: 0x2C50, symBinAddr: 0x1011CC, symSize: 0x1C }
  - { offset: 0x16EAC7, size: 0x8, addend: 0x0, symName: __ZN5godot18create_method_bindIN6sentry13SentryMetricsEJRKNS_6StringExRKNS_10DictionaryEEEEPNS_10MethodBindEMT_FvDpT0_E.cold.1, symObjAddr: 0x2C6C, symBinAddr: 0x1011E8, symSize: 0x60 }
  - { offset: 0x16EB0C, size: 0x8, addend: 0x0, symName: __ZNK5godot11MethodBindTIJRKNS_6StringExRKNS_10DictionaryEEE17gen_argument_typeEi, symObjAddr: 0x16A0, symBinAddr: 0x29CF4, symSize: 0x2C }
  - { offset: 0x16EB45, size: 0x8, addend: 0x0, symName: __ZNK5godot11MethodBindTIJRKNS_6StringExRKNS_10DictionaryEEE17gen_argument_typeEi, symObjAddr: 0x16A0, symBinAddr: 0x29CF4, symSize: 0x2C }
  - { offset: 0x16EB7D, size: 0x8, addend: 0x0, symName: __ZNK5godot11MethodBindTIJRKNS_6StringExRKNS_10DictionaryEEE17gen_argument_typeEi, symObjAddr: 0x16A0, symBinAddr: 0x29CF4, symSize: 0x2C }
  - { offset: 0x16EC2B, size: 0x8, addend: 0x0, symName: __ZNK5godot11MethodBindTIJRKNS_6StringExRKNS_10DictionaryEEE22gen_argument_type_infoEi, symObjAddr: 0x16CC, symBinAddr: 0x29D20, symSize: 0x148 }
  - { offset: 0x16EDB0, size: 0x8, addend: 0x0, symName: __ZNK5godot11MethodBindTIJRKNS_6StringExRKNS_10DictionaryEEE21get_argument_metadataEi, symObjAddr: 0x1814, symBinAddr: 0x29E68, symSize: 0x10 }
  - { offset: 0x16EE58, size: 0x8, addend: 0x0, symName: __ZNK5godot11MethodBindTIJRKNS_6StringExRKNS_10DictionaryEEE4callEPvPKPKvxR20GDExtensionCallError, symObjAddr: 0x1824, symBinAddr: 0x29E78, symSize: 0x40 }
  - { offset: 0x16EF3E, size: 0x8, addend: 0x0, symName: __ZNK5godot11MethodBindTIJRKNS_6StringExRKNS_10DictionaryEEE7ptrcallEPvPKPKvS8_, symObjAddr: 0x1864, symBinAddr: 0x29EB8, symSize: 0xAC }
  - { offset: 0x16F07B, size: 0x8, addend: 0x0, symName: __ZN5godot11MethodBindTIJRKNS_6StringExRKNS_10DictionaryEEED1Ev, symObjAddr: 0x1910, symBinAddr: 0x29F64, symSize: 0x4 }
  - { offset: 0x16F09E, size: 0x8, addend: 0x0, symName: __ZN5godot11MethodBindTIJRKNS_6StringExRKNS_10DictionaryEEED1Ev, symObjAddr: 0x1910, symBinAddr: 0x29F64, symSize: 0x4 }
  - { offset: 0x16F0D6, size: 0x8, addend: 0x0, symName: __ZN5godot11MethodBindTIJRKNS_6StringExRKNS_10DictionaryEEED0Ev, symObjAddr: 0x1914, symBinAddr: 0x29F68, symSize: 0x14 }
  - { offset: 0x16F22C, size: 0x8, addend: 0x0, symName: __ZN5godot18create_method_bindIN6sentry13SentryMetricsEJRKNS_6StringEdS5_RKNS_10DictionaryEEEEPNS_10MethodBindEMT_FvDpT0_E.cold.1, symObjAddr: 0x2CCC, symBinAddr: 0x101248, symSize: 0x60 }
  - { offset: 0x16F267, size: 0x8, addend: 0x0, symName: __ZNK5godot11MethodBindTIJRKNS_6StringEdS3_RKNS_10DictionaryEEE17gen_argument_typeEi, symObjAddr: 0x209C, symBinAddr: 0x2A408, symSize: 0x38 }
  - { offset: 0x16F2A0, size: 0x8, addend: 0x0, symName: __ZNK5godot11MethodBindTIJRKNS_6StringEdS3_RKNS_10DictionaryEEE17gen_argument_typeEi, symObjAddr: 0x209C, symBinAddr: 0x2A408, symSize: 0x38 }
  - { offset: 0x16F2D8, size: 0x8, addend: 0x0, symName: __ZNK5godot11MethodBindTIJRKNS_6StringEdS3_RKNS_10DictionaryEEE17gen_argument_typeEi, symObjAddr: 0x209C, symBinAddr: 0x2A408, symSize: 0x38 }
  - { offset: 0x16F34E, size: 0x8, addend: 0x0, symName: __ZNK5godot11MethodBindTIJRKNS_6StringEdS3_RKNS_10DictionaryEEE22gen_argument_type_infoEi, symObjAddr: 0x20D4, symBinAddr: 0x2A440, symSize: 0x158 }
  - { offset: 0x16F4EF, size: 0x8, addend: 0x0, symName: __ZNK5godot11MethodBindTIJRKNS_6StringEdS3_RKNS_10DictionaryEEE21get_argument_metadataEi, symObjAddr: 0x222C, symBinAddr: 0x2A598, symSize: 0x10 }
  - { offset: 0x16F528, size: 0x8, addend: 0x0, symName: __ZNK5godot11MethodBindTIJRKNS_6StringEdS3_RKNS_10DictionaryEEE21get_argument_metadataEi, symObjAddr: 0x222C, symBinAddr: 0x2A598, symSize: 0x10 }
  - { offset: 0x16F560, size: 0x8, addend: 0x0, symName: __ZNK5godot11MethodBindTIJRKNS_6StringEdS3_RKNS_10DictionaryEEE21get_argument_metadataEi, symObjAddr: 0x222C, symBinAddr: 0x2A598, symSize: 0x10 }
  - { offset: 0x16F57C, size: 0x8, addend: 0x0, symName: __ZNK5godot11MethodBindTIJRKNS_6StringEdS3_RKNS_10DictionaryEEE4callEPvPKPKvxR20GDExtensionCallError, symObjAddr: 0x223C, symBinAddr: 0x2A5A8, symSize: 0x40 }
  - { offset: 0x16F629, size: 0x8, addend: 0x0, symName: __ZNK5godot11MethodBindTIJRKNS_6StringEdS3_RKNS_10DictionaryEEE7ptrcallEPvPKPKvS8_, symObjAddr: 0x227C, symBinAddr: 0x2A5E8, symSize: 0x14 }
  - { offset: 0x16F6E9, size: 0x8, addend: 0x0, symName: __ZN5godot11MethodBindTIJRKNS_6StringEdS3_RKNS_10DictionaryEEED1Ev, symObjAddr: 0x2290, symBinAddr: 0x2A5FC, symSize: 0x4 }
  - { offset: 0x16F70C, size: 0x8, addend: 0x0, symName: __ZN5godot11MethodBindTIJRKNS_6StringEdS3_RKNS_10DictionaryEEED1Ev, symObjAddr: 0x2290, symBinAddr: 0x2A5FC, symSize: 0x4 }
  - { offset: 0x16F744, size: 0x8, addend: 0x0, symName: __ZN5godot11MethodBindTIJRKNS_6StringEdS3_RKNS_10DictionaryEEED0Ev, symObjAddr: 0x2294, symBinAddr: 0x2A600, symSize: 0x14 }
  - { offset: 0x16F7D9, size: 0x8, addend: 0x0, symName: _OUTLINED_FUNCTION_0, symObjAddr: 0x2D2C, symBinAddr: 0x2A9D8, symSize: 0x10 }
  - { offset: 0x16F7F1, size: 0x8, addend: 0x0, symName: _OUTLINED_FUNCTION_1, symObjAddr: 0x2D3C, symBinAddr: 0x2A9E8, symSize: 0xC }
  - { offset: 0x16F809, size: 0x8, addend: 0x0, symName: _OUTLINED_FUNCTION_2, symObjAddr: 0x2D48, symBinAddr: 0x2A9F4, symSize: 0xC }
  - { offset: 0x16F821, size: 0x8, addend: 0x0, symName: _OUTLINED_FUNCTION_3, symObjAddr: 0x2D54, symBinAddr: 0x2AA00, symSize: 0x8 }
  - { offset: 0x16F839, size: 0x8, addend: 0x0, symName: _OUTLINED_FUNCTION_4, symObjAddr: 0x2D5C, symBinAddr: 0x2AA08, symSize: 0x8 }
  - { offset: 0x16F851, size: 0x8, addend: 0x0, symName: _OUTLINED_FUNCTION_5, symObjAddr: 0x2D64, symBinAddr: 0x2AA10, symSize: 0x8 }
  - { offset: 0x16F869, size: 0x8, addend: 0x0, symName: _OUTLINED_FUNCTION_6, symObjAddr: 0x2D6C, symBinAddr: 0x2AA18, symSize: 0xC }
  - { offset: 0x175EB1, size: 0x8, addend: 0x0, symName: __ZN5godot18create_method_bindIN6sentry18SentryLoggerLimitsEJiEEEPNS_10MethodBindEMT_FvDpT0_E, symObjAddr: 0xAD04, symBinAddr: 0x34B38, symSize: 0x114 }
  - { offset: 0x175FF9, size: 0x8, addend: 0x0, symName: __ZN5godot18create_method_bindIN6sentry18SentryLoggerLimitsEiJEEEPNS_10MethodBindEMT_FT0_DpT1_E, symObjAddr: 0xB284, symBinAddr: 0x34F44, symSize: 0x120 }
  - { offset: 0x17615E, size: 0x8, addend: 0x0, symName: __ZN5godot18create_method_bindIN6sentry18SentryExperimentalEJbEEEPNS_10MethodBindEMT_FvDpT0_E, symObjAddr: 0xB604, symBinAddr: 0x352C4, symSize: 0x114 }
  - { offset: 0x176291, size: 0x8, addend: 0x0, symName: __ZN5godot18create_method_bindIN6sentry18SentryExperimentalEbJEEEPNS_10MethodBindEMT_KFT0_DpT1_E, symObjAddr: 0xBB80, symBinAddr: 0x35840, symSize: 0x12C }
  - { offset: 0x1763C7, size: 0x8, addend: 0x0, symName: __ZN5godot18create_method_bindIN6sentry18SentryExperimentalEJRKNS_8CallableEEEEPNS_10MethodBindEMT_FvDpT0_E, symObjAddr: 0xBED8, symBinAddr: 0x35980, symSize: 0x114 }
  - { offset: 0x1764FA, size: 0x8, addend: 0x0, symName: __ZN5godot18create_method_bindIN6sentry18SentryExperimentalENS_8CallableEJEEEPNS_10MethodBindEMT_KFT0_DpT1_E, symObjAddr: 0xC4BC, symBinAddr: 0x35F64, symSize: 0x12C }
  - { offset: 0x176630, size: 0x8, addend: 0x0, symName: __ZN5godot18create_method_bindIN6sentry18SentryExperimentalEbJEEEPNS_10MethodBindEMT_FT0_DpT1_E, symObjAddr: 0xC854, symBinAddr: 0x362FC, symSize: 0x120 }
  - { offset: 0x176766, size: 0x8, addend: 0x0, symName: __ZN5godot18create_method_bindIN6sentry18SentryExperimentalEJNS_8CallableEEEEPNS_10MethodBindEMT_FvDpT0_E, symObjAddr: 0xCB8C, symBinAddr: 0x36634, symSize: 0x114 }
  - { offset: 0x176899, size: 0x8, addend: 0x0, symName: __ZN5godot18create_method_bindIN6sentry18SentryExperimentalENS_8CallableEJEEEPNS_10MethodBindEMT_FT0_DpT1_E, symObjAddr: 0xD170, symBinAddr: 0x36C18, symSize: 0x120 }
  - { offset: 0x176B36, size: 0x8, addend: 0x0, symName: __ZN5godot18create_method_bindIN6sentry13SentryOptionsEJRKNS_6StringEEEEPNS_10MethodBindEMT_FvDpT0_E, symObjAddr: 0xDB68, symBinAddr: 0x374E0, symSize: 0x114 }
  - { offset: 0x176C69, size: 0x8, addend: 0x0, symName: __ZN5godot18create_method_bindIN6sentry13SentryOptionsENS_6StringEJEEEPNS_10MethodBindEMT_KFT0_DpT1_E, symObjAddr: 0xE14C, symBinAddr: 0x375F4, symSize: 0x12C }
  - { offset: 0x176D9F, size: 0x8, addend: 0x0, symName: __ZN5godot18create_method_bindIN6sentry13SentryOptionsEJbEEEPNS_10MethodBindEMT_FvDpT0_E, symObjAddr: 0xE514, symBinAddr: 0x37750, symSize: 0x114 }
  - { offset: 0x176ED2, size: 0x8, addend: 0x0, symName: __ZN5godot18create_method_bindIN6sentry13SentryOptionsEbJEEEPNS_10MethodBindEMT_KFT0_DpT1_E, symObjAddr: 0xE628, symBinAddr: 0x37864, symSize: 0x12C }
  - { offset: 0x177008, size: 0x8, addend: 0x0, symName: __ZN5godot18create_method_bindIN6sentry13SentryOptionsEJNS1_5LevelEEEEPNS_10MethodBindEMT_FvDpT0_E, symObjAddr: 0xE764, symBinAddr: 0x379A0, symSize: 0x114 }
  - { offset: 0x17713B, size: 0x8, addend: 0x0, symName: __ZN5godot18create_method_bindIN6sentry13SentryOptionsENS1_5LevelEJEEEPNS_10MethodBindEMT_KFT0_DpT1_E, symObjAddr: 0xEE74, symBinAddr: 0x37AB4, symSize: 0x12C }
  - { offset: 0x177271, size: 0x8, addend: 0x0, symName: __ZN5godot18create_method_bindIN6sentry13SentryOptionsEJdEEEPNS_10MethodBindEMT_FvDpT0_E, symObjAddr: 0xF0E4, symBinAddr: 0x37BFC, symSize: 0x114 }
  - { offset: 0x1773A4, size: 0x8, addend: 0x0, symName: __ZN5godot18create_method_bindIN6sentry13SentryOptionsEdJEEEPNS_10MethodBindEMT_KFT0_DpT1_E, symObjAddr: 0xF660, symBinAddr: 0x37D10, symSize: 0x12C }
  - { offset: 0x1774DA, size: 0x8, addend: 0x0, symName: __ZN5godot18create_method_bindIN6sentry13SentryOptionsEJiEEEPNS_10MethodBindEMT_FvDpT0_E, symObjAddr: 0xF9B4, symBinAddr: 0x37E4C, symSize: 0x114 }
  - { offset: 0x17760D, size: 0x8, addend: 0x0, symName: __ZN5godot18create_method_bindIN6sentry13SentryOptionsEiJEEEPNS_10MethodBindEMT_KFT0_DpT1_E, symObjAddr: 0xFAC8, symBinAddr: 0x37F60, symSize: 0x12C }
  - { offset: 0x177743, size: 0x8, addend: 0x0, symName: __ZN5godot18create_method_bindIN6sentry13SentryOptionsEJRKNS_8CallableEEEEPNS_10MethodBindEMT_FvDpT0_E, symObjAddr: 0xFE74, symBinAddr: 0x380EC, symSize: 0x114 }
  - { offset: 0x177876, size: 0x8, addend: 0x0, symName: __ZN5godot18create_method_bindIN6sentry13SentryOptionsENS_8CallableEJEEEPNS_10MethodBindEMT_KFT0_DpT1_E, symObjAddr: 0xFF88, symBinAddr: 0x38200, symSize: 0x12C }
  - { offset: 0x1779AC, size: 0x8, addend: 0x0, symName: __ZN5godot18create_method_bindIN6sentry13SentryOptionsEJNS_8BitFieldINS1_14GodotErrorMaskEEEEEEPNS_10MethodBindEMT_FvDpT0_E, symObjAddr: 0x10124, symBinAddr: 0x3839C, symSize: 0x114 }
  - { offset: 0x177ADF, size: 0x8, addend: 0x0, symName: __ZN5godot18create_method_bindIN6sentry13SentryOptionsENS_8BitFieldINS1_14GodotErrorMaskEEEJEEEPNS_10MethodBindEMT_KFT0_DpT1_E, symObjAddr: 0x10720, symBinAddr: 0x38998, symSize: 0x12C }
  - { offset: 0x177C15, size: 0x8, addend: 0x0, symName: __ZN5godot18create_method_bindIN6sentry13SentryOptionsEJRKNS_3RefINS1_18SentryLoggerLimitsEEEEEEPNS_10MethodBindEMT_FvDpT0_E, symObjAddr: 0x10998, symBinAddr: 0x38C10, symSize: 0x114 }
  - { offset: 0x177D48, size: 0x8, addend: 0x0, symName: __ZN5godot18create_method_bindIN6sentry13SentryOptionsENS_3RefINS1_18SentryLoggerLimitsEEEJEEEPNS_10MethodBindEMT_KFT0_DpT1_E, symObjAddr: 0x1116C, symBinAddr: 0x393E4, symSize: 0x12C }
  - { offset: 0x177E7E, size: 0x8, addend: 0x0, symName: __ZN5godot18create_method_bindIN6sentry13SentryOptionsENS_3RefINS1_18SentryExperimentalEEEJEEEPNS_10MethodBindEMT_KFT0_DpT1_E, symObjAddr: 0x115FC, symBinAddr: 0x39874, symSize: 0x12C }
  - { offset: 0x178326, size: 0x8, addend: 0x0, symName: __ZN5godot25call_with_variant_args_dvINS_20_gde_UnexistingClassEJiEEEvPT_MS2_FvDpT0_EPKPKviR20GDExtensionCallErrorRKNSt3__16vectorINS_7VariantENSE_9allocatorISG_EEEE, symObjAddr: 0xB15C, symBinAddr: 0x34E1C, symSize: 0x128 }
  - { offset: 0x178A7C, size: 0x8, addend: 0x0, symName: __ZN5godot34call_get_argument_type_info_helperIbEEviRiRNS_12PropertyInfoE, symObjAddr: 0xB8E4, symBinAddr: 0x355A4, symSize: 0x174 }
  - { offset: 0x178B9F, size: 0x8, addend: 0x0, symName: __ZN5godot25call_with_variant_args_dvINS_20_gde_UnexistingClassEJbEEEvPT_MS2_FvDpT0_EPKPKviR20GDExtensionCallErrorRKNSt3__16vectorINS_7VariantENSE_9allocatorISG_EEEE, symObjAddr: 0xBA58, symBinAddr: 0x35718, symSize: 0x128 }
  - { offset: 0x1790D7, size: 0x8, addend: 0x0, symName: __ZN5godot34call_get_argument_type_info_helperIRKNS_8CallableEEEviRiRNS_12PropertyInfoE, symObjAddr: 0xC214, symBinAddr: 0x35CBC, symSize: 0x174 }
  - { offset: 0x1791FA, size: 0x8, addend: 0x0, symName: __ZN5godot25call_with_variant_args_dvINS_20_gde_UnexistingClassEJRKNS_8CallableEEEEvPT_MS5_FvDpT0_EPKPKviR20GDExtensionCallErrorRKNSt3__16vectorINS_7VariantENSH_9allocatorISJ_EEEE, symObjAddr: 0xC388, symBinAddr: 0x35E30, symSize: 0x134 }
  - { offset: 0x179CA8, size: 0x8, addend: 0x0, symName: __ZN5godot34call_get_argument_type_info_helperINS_8CallableEEEviRiRNS_12PropertyInfoE, symObjAddr: 0xCEC8, symBinAddr: 0x36970, symSize: 0x174 }
  - { offset: 0x179DCB, size: 0x8, addend: 0x0, symName: __ZN5godot25call_with_variant_args_dvINS_20_gde_UnexistingClassEJNS_8CallableEEEEvPT_MS3_FvDpT0_EPKPKviR20GDExtensionCallErrorRKNSt3__16vectorINS_7VariantENSF_9allocatorISH_EEEE, symObjAddr: 0xD03C, symBinAddr: 0x36AE4, symSize: 0x134 }
  - { offset: 0x17AD26, size: 0x8, addend: 0x0, symName: __ZN5godot34call_get_argument_type_info_helperINS_8BitFieldIN6sentry14GodotErrorMaskEEEEEviRiRNS_12PropertyInfoE, symObjAddr: 0x10400, symBinAddr: 0x38678, symSize: 0xD4 }
  - { offset: 0x17ADDE, size: 0x8, addend: 0x0, symName: __ZN5godot25call_with_variant_args_dvINS_20_gde_UnexistingClassEJNS_8BitFieldIN6sentry14GodotErrorMaskEEEEEEvPT_MS6_FvDpT0_EPKPKviR20GDExtensionCallErrorRKNSt3__16vectorINS_7VariantENSI_9allocatorISK_EEEE, symObjAddr: 0x105F8, symBinAddr: 0x38870, symSize: 0x128 }
  - { offset: 0x17B53A, size: 0x8, addend: 0x0, symName: __ZN5godot34call_get_argument_type_info_helperIRKNS_3RefIN6sentry18SentryLoggerLimitsEEEEEviRiRNS_12PropertyInfoE, symObjAddr: 0x10D14, symBinAddr: 0x38F8C, symSize: 0xD4 }
  - { offset: 0x17B5F2, size: 0x8, addend: 0x0, symName: __ZN5godot25call_with_variant_args_dvINS_20_gde_UnexistingClassEJRKNS_3RefIN6sentry18SentryLoggerLimitsEEEEEEvPT_MS8_FvDpT0_EPKPKviR20GDExtensionCallErrorRKNSt3__16vectorINS_7VariantENSK_9allocatorISM_EEEE, symObjAddr: 0x10F14, symBinAddr: 0x3918C, symSize: 0x170 }
  - { offset: 0x17BAE7, size: 0x8, addend: 0x0, symName: __ZN5godot30call_with_variant_args_retc_dvINS_20_gde_UnexistingClassENS_3RefIN6sentry18SentryLoggerLimitsEEEJEEEvPT_MS6_KFT0_DpT1_EPKPKviRNS_7VariantER20GDExtensionCallErrorRKNSt3__16vectorISH_NSL_9allocatorISH_EEEE, symObjAddr: 0x114F0, symBinAddr: 0x39768, symSize: 0xE4 }
  - { offset: 0x17BF2E, size: 0x8, addend: 0x0, symName: __ZN5godot30call_with_variant_args_retc_dvINS_20_gde_UnexistingClassENS_3RefIN6sentry18SentryExperimentalEEEJEEEvPT_MS6_KFT0_DpT1_EPKPKviRNS_7VariantER20GDExtensionCallErrorRKNSt3__16vectorISH_NSL_9allocatorISH_EEEE, symObjAddr: 0x11980, symBinAddr: 0x39BF8, symSize: 0xE4 }
  - { offset: 0x18A2FF, size: 0x8, addend: 0x0, symName: __ZN6sentry18SentryExperimental15set_enable_logsEb, symObjAddr: 0xB50, symBinAddr: 0x2B788, symSize: 0x90 }
  - { offset: 0x18A325, size: 0x8, addend: 0x0, symName: __ZZN6sentry18SentryExperimental15set_enable_logsEbE13warning_shown.0, symObjAddr: 0x1AF080, symBinAddr: 0x186934, symSize: 0x0 }
  - { offset: 0x18A419, size: 0x8, addend: 0x0, symName: __ZN6sentry18SentryExperimental19set_before_send_logEN5godot8CallableE, symObjAddr: 0xC04, symBinAddr: 0x2B83C, symSize: 0x98 }
  - { offset: 0x18A43F, size: 0x8, addend: 0x0, symName: __ZZN6sentry18SentryExperimental19set_before_send_logEN5godot8CallableEE13warning_shown.0, symObjAddr: 0x1AF081, symBinAddr: 0x186935, symSize: 0x0 }
  - { offset: 0x18A535, size: 0x8, addend: 0x0, symName: __ZN6sentry13SentryOptions28create_from_project_settingsEv, symObjAddr: 0x3E0C, symBinAddr: 0x2EA44, symSize: 0xAC }
  - { offset: 0x18A557, size: 0x8, addend: 0x0, symName: __ZZN6sentry13SentryOptions28create_from_project_settingsEvE20are_settings_defined, symObjAddr: 0x1AF082, symBinAddr: 0x186936, symSize: 0x0 }
  - { offset: 0x18A699, size: 0x8, addend: 0x0, symName: __ZN12_GLOBAL__N_115_define_settingERKN5godot6StringERKNS0_7VariantEb, symObjAddr: 0x2934, symBinAddr: 0x2D56C, symSize: 0x104 }
  - { offset: 0x18A6BF, size: 0x8, addend: 0x0, symName: __ZZN12_GLOBAL__N_115_define_settingERKN5godot6StringERKNS0_7VariantEbE18config_value_order, symObjAddr: 0x1AF084, symBinAddr: 0x186938, symSize: 0x0 }
  - { offset: 0x18A743, size: 0x8, addend: 0x0, symName: __ZN12_GLOBAL__N_115_define_settingERKN5godot12PropertyInfoERKNS0_7VariantEb, symObjAddr: 0x2A38, symBinAddr: 0x2D670, symSize: 0xDC }
  - { offset: 0x18B5B8, size: 0x8, addend: 0x0, symName: ___cxx_global_var_init, symObjAddr: 0x14204, symBinAddr: 0x39D98, symSize: 0x4C }
  - { offset: 0x18B63D, size: 0x8, addend: 0x0, symName: ___cxx_global_var_init.1, symObjAddr: 0x14250, symBinAddr: 0x39DE4, symSize: 0x4C }
  - { offset: 0x18B6C2, size: 0x8, addend: 0x0, symName: ___cxx_global_var_init.2, symObjAddr: 0x1429C, symBinAddr: 0x39E30, symSize: 0x4C }
  - { offset: 0x18B747, size: 0x8, addend: 0x0, symName: ___cxx_global_var_init.3, symObjAddr: 0x142E8, symBinAddr: 0x39E7C, symSize: 0x4C }
  - { offset: 0x18B7CC, size: 0x8, addend: 0x0, symName: ___cxx_global_var_init.4, symObjAddr: 0x14334, symBinAddr: 0x39EC8, symSize: 0x4C }
  - { offset: 0x18B851, size: 0x8, addend: 0x0, symName: ___cxx_global_var_init.5, symObjAddr: 0x14380, symBinAddr: 0x39F14, symSize: 0x4C }
  - { offset: 0x18B8D6, size: 0x8, addend: 0x0, symName: ___cxx_global_var_init.6, symObjAddr: 0x143CC, symBinAddr: 0x39F60, symSize: 0x4C }
  - { offset: 0x18B95B, size: 0x8, addend: 0x0, symName: ___cxx_global_var_init.7, symObjAddr: 0x14418, symBinAddr: 0x39FAC, symSize: 0x4C }
  - { offset: 0x18B9E0, size: 0x8, addend: 0x0, symName: ___cxx_global_var_init.8, symObjAddr: 0x14464, symBinAddr: 0x39FF8, symSize: 0x4C }
  - { offset: 0x18BE3B, size: 0x8, addend: 0x0, symName: __ZN6sentry18SentryLoggerLimits13_bind_methodsEv, symObjAddr: 0x0, symBinAddr: 0x2AC38, symSize: 0xB50 }
  - { offset: 0x18D8AA, size: 0x8, addend: 0x0, symName: __ZN6sentry18SentryLoggerLimits13_bind_methodsEv.cold.1, symObjAddr: 0x11BA0, symBinAddr: 0x1012A8, symSize: 0x5C }
  - { offset: 0x18D8D8, size: 0x8, addend: 0x0, symName: __ZN6sentry18SentryLoggerLimits13_bind_methodsEv.cold.2, symObjAddr: 0x11BFC, symBinAddr: 0x101304, symSize: 0x58 }
  - { offset: 0x18D906, size: 0x8, addend: 0x0, symName: __ZN6sentry18SentryLoggerLimits13_bind_methodsEv.cold.3, symObjAddr: 0x11C54, symBinAddr: 0x10135C, symSize: 0x58 }
  - { offset: 0x18D934, size: 0x8, addend: 0x0, symName: __ZN6sentry18SentryLoggerLimits13_bind_methodsEv.cold.4, symObjAddr: 0x11CAC, symBinAddr: 0x1013B4, symSize: 0x58 }
  - { offset: 0x18D9E9, size: 0x8, addend: 0x0, symName: __ZN6sentry18SentryExperimental15set_enable_logsEb.cold.1, symObjAddr: 0x11D04, symBinAddr: 0x10140C, symSize: 0x20 }
  - { offset: 0x18DA01, size: 0x8, addend: 0x0, symName: __ZN6sentry13SentryOptions15set_enable_logsEb, symObjAddr: 0xBE0, symBinAddr: 0x2B818, symSize: 0x8 }
  - { offset: 0x18DA3D, size: 0x8, addend: 0x0, symName: __ZN6sentry18SentryExperimental15get_enable_logsEv, symObjAddr: 0xBE8, symBinAddr: 0x2B820, symSize: 0x14 }
  - { offset: 0x18DA82, size: 0x8, addend: 0x0, symName: __ZNK6sentry13SentryOptions15get_enable_logsEv, symObjAddr: 0xBFC, symBinAddr: 0x2B834, symSize: 0x8 }
  - { offset: 0x18DAC5, size: 0x8, addend: 0x0, symName: __ZN6sentry18SentryExperimental19set_before_send_logEN5godot8CallableE.cold.1, symObjAddr: 0x11D24, symBinAddr: 0x10142C, symSize: 0x20 }
  - { offset: 0x18DADD, size: 0x8, addend: 0x0, symName: __ZN6sentry13SentryOptions19set_before_send_logERKN5godot8CallableE, symObjAddr: 0xC9C, symBinAddr: 0x2B8D4, symSize: 0x8 }
  - { offset: 0x18DB1C, size: 0x8, addend: 0x0, symName: __ZN6sentry18SentryExperimental19get_before_send_logEv, symObjAddr: 0xCA4, symBinAddr: 0x2B8DC, symSize: 0x1C }
  - { offset: 0x18DB61, size: 0x8, addend: 0x0, symName: __ZNK6sentry13SentryOptions19get_before_send_logEv, symObjAddr: 0xCC0, symBinAddr: 0x2B8F8, symSize: 0xC }
  - { offset: 0x18DF34, size: 0x8, addend: 0x0, symName: __ZN6sentry18SentryExperimental13_bind_methodsEv, symObjAddr: 0xCCC, symBinAddr: 0x2B904, symSize: 0xB50 }
  - { offset: 0x18F9A3, size: 0x8, addend: 0x0, symName: __ZN6sentry18SentryExperimental13_bind_methodsEv.cold.1, symObjAddr: 0x11D44, symBinAddr: 0x10144C, symSize: 0x5C }
  - { offset: 0x18F9D1, size: 0x8, addend: 0x0, symName: __ZN6sentry18SentryExperimental13_bind_methodsEv.cold.2, symObjAddr: 0x11DA0, symBinAddr: 0x1014A8, symSize: 0x58 }
  - { offset: 0x18F9FF, size: 0x8, addend: 0x0, symName: __ZN6sentry18SentryExperimental13_bind_methodsEv.cold.3, symObjAddr: 0x11DF8, symBinAddr: 0x101500, symSize: 0x58 }
  - { offset: 0x18FA2D, size: 0x8, addend: 0x0, symName: __ZN6sentry18SentryExperimental13_bind_methodsEv.cold.4, symObjAddr: 0x11E50, symBinAddr: 0x101558, symSize: 0x58 }
  - { offset: 0x18FBDC, size: 0x8, addend: 0x0, symName: __ZN6sentry13SentryOptions24_define_project_settingsERKN5godot3RefIS0_EE, symObjAddr: 0x181C, symBinAddr: 0x2C454, symSize: 0x1118 }
  - { offset: 0x190E73, size: 0x8, addend: 0x0, symName: __ZN6sentry13SentryOptions24_define_project_settingsERKN5godot3RefIS0_EE.cold.2, symObjAddr: 0x11EC8, symBinAddr: 0x1015D0, symSize: 0x20 }
  - { offset: 0x190E8B, size: 0x8, addend: 0x0, symName: __ZN6sentry13SentryOptions24_define_project_settingsERKN5godot3RefIS0_EE.cold.1, symObjAddr: 0x11EA8, symBinAddr: 0x1015B0, symSize: 0x20 }
  - { offset: 0x190EC8, size: 0x8, addend: 0x0, symName: __ZNK5godot12PropertyInfocvNS_10DictionaryEEv, symObjAddr: 0x975C, symBinAddr: 0x34394, symSize: 0x254 }
  - { offset: 0x191037, size: 0x8, addend: 0x0, symName: __ZNK6sentry13SentryOptions16get_experimentalEv, symObjAddr: 0x2B14, symBinAddr: 0x2D74C, symSize: 0x18 }
  - { offset: 0x19105B, size: 0x8, addend: 0x0, symName: __ZNK6sentry13SentryOptions16get_experimentalEv, symObjAddr: 0x2B14, symBinAddr: 0x2D74C, symSize: 0x18 }
  - { offset: 0x19107F, size: 0x8, addend: 0x0, symName: __ZNK6sentry13SentryOptions16get_experimentalEv, symObjAddr: 0x2B14, symBinAddr: 0x2D74C, symSize: 0x18 }
  - { offset: 0x191132, size: 0x8, addend: 0x0, symName: __ZN6sentry13SentryOptions22_load_project_settingsERKN5godot3RefIS0_EE, symObjAddr: 0x2B2C, symBinAddr: 0x2D764, symSize: 0xF34 }
  - { offset: 0x191E7A, size: 0x8, addend: 0x0, symName: __ZN6sentry13SentryOptions11set_releaseERKN5godot6StringE, symObjAddr: 0x3A68, symBinAddr: 0x2E6A0, symSize: 0x284 }
  - { offset: 0x191F96, size: 0x8, addend: 0x0, symName: __ZN6sentry13SentryOptions22_load_project_settingsERKN5godot3RefIS0_EE.cold.4, symObjAddr: 0x11F58, symBinAddr: 0x101660, symSize: 0x20 }
  - { offset: 0x191FAE, size: 0x8, addend: 0x0, symName: __ZN6sentry13SentryOptions22_load_project_settingsERKN5godot3RefIS0_EE.cold.3, symObjAddr: 0x11F38, symBinAddr: 0x101640, symSize: 0x20 }
  - { offset: 0x191FC6, size: 0x8, addend: 0x0, symName: __ZN6sentry13SentryOptions22_load_project_settingsERKN5godot3RefIS0_EE.cold.2, symObjAddr: 0x11F18, symBinAddr: 0x101620, symSize: 0x20 }
  - { offset: 0x191FDE, size: 0x8, addend: 0x0, symName: __ZN6sentry13SentryOptions22_load_project_settingsERKN5godot3RefIS0_EE.cold.1, symObjAddr: 0x11EE8, symBinAddr: 0x1015F0, symSize: 0x30 }
  - { offset: 0x19200C, size: 0x8, addend: 0x0, symName: __ZN6sentry13SentryOptions7set_dsnERKN5godot6StringE, symObjAddr: 0x3A60, symBinAddr: 0x2E698, symSize: 0x8 }
  - { offset: 0x192035, size: 0x8, addend: 0x0, symName: __ZN6sentry13SentryOptions11set_releaseERKN5godot6StringE.cold.1, symObjAddr: 0x11F78, symBinAddr: 0x101680, symSize: 0x20 }
  - { offset: 0x19204D, size: 0x8, addend: 0x0, symName: __ZN6sentry13SentryOptions15set_environmentERKN5godot6StringE, symObjAddr: 0x3CEC, symBinAddr: 0x2E924, symSize: 0xA4 }
  - { offset: 0x19208D, size: 0x8, addend: 0x0, symName: __ZN6sentry13SentryOptions18_init_debug_optionENS0_9DebugModeE, symObjAddr: 0x3D90, symBinAddr: 0x2E9C8, symSize: 0x7C }
  - { offset: 0x1920C5, size: 0x8, addend: 0x0, symName: __ZN6sentry13SentryOptions18_init_debug_optionENS0_9DebugModeE.cold.1, symObjAddr: 0x11F98, symBinAddr: 0x1016A0, symSize: 0x20 }
  - { offset: 0x192196, size: 0x8, addend: 0x0, symName: __ZN6sentry13SentryOptionsC2Ev, symObjAddr: 0x9108, symBinAddr: 0x33D40, symSize: 0x1AC }
  - { offset: 0x1924BE, size: 0x8, addend: 0x0, symName: __ZN6sentry13SentryOptions28create_from_project_settingsEv.cold.1, symObjAddr: 0x11FB8, symBinAddr: 0x1016C0, symSize: 0x5C }
  - { offset: 0x19252B, size: 0x8, addend: 0x0, symName: __ZN6sentry13SentryOptionsC1Ev, symObjAddr: 0x3EB8, symBinAddr: 0x2EAF0, symSize: 0x4 }
  - { offset: 0x19254E, size: 0x8, addend: 0x0, symName: __ZN6sentry13SentryOptionsC1Ev, symObjAddr: 0x3EB8, symBinAddr: 0x2EAF0, symSize: 0x4 }
  - { offset: 0x1925D4, size: 0x8, addend: 0x0, symName: __ZN6sentry13SentryOptions17set_logger_limitsERKN5godot3RefINS_18SentryLoggerLimitsEEE, symObjAddr: 0x3EBC, symBinAddr: 0x2EAF4, symSize: 0x80 }
  - { offset: 0x1926C1, size: 0x8, addend: 0x0, symName: __ZN5godot3RefIN6sentry18SentryLoggerLimitsEE11instantiateEv, symObjAddr: 0x3F3C, symBinAddr: 0x2EB74, symSize: 0x174 }
  - { offset: 0x192A4B, size: 0x8, addend: 0x0, symName: __ZN5godot3RefIN6sentry18SentryLoggerLimitsEE11instantiateEv.cold.1, symObjAddr: 0x12014, symBinAddr: 0x10171C, symSize: 0x5C }
  - { offset: 0x192B83, size: 0x8, addend: 0x0, symName: __ZN6sentry13SentryOptions19add_event_processorERKN5godot3RefINS_20SentryEventProcessorEEE, symObjAddr: 0x40B0, symBinAddr: 0x2ECE8, symSize: 0x7C }
  - { offset: 0x192CE5, size: 0x8, addend: 0x0, symName: __ZN5godot6VectorINS_3RefIN6sentry20SentryEventProcessorEEEE9push_backES4_, symObjAddr: 0x412C, symBinAddr: 0x2ED64, symSize: 0x114 }
  - { offset: 0x192F0A, size: 0x8, addend: 0x0, symName: __ZN6sentry13SentryOptions19add_event_processorERKN5godot3RefINS_20SentryEventProcessorEEE.cold.1, symObjAddr: 0x12070, symBinAddr: 0x101778, symSize: 0x20 }
  - { offset: 0x193019, size: 0x8, addend: 0x0, symName: __ZN5godot7CowDataINS_3RefIN6sentry20SentryEventProcessorEEEE6resizeILb0EEENS_5ErrorEx, symObjAddr: 0xD62C, symBinAddr: 0x36FA4, symSize: 0x338 }
  - { offset: 0x193784, size: 0x8, addend: 0x0, symName: __ZN5godot7CowDataINS_3RefIN6sentry20SentryEventProcessorEEEE14_copy_on_writeEv, symObjAddr: 0xDA10, symBinAddr: 0x37388, symSize: 0x48 }
  - { offset: 0x1938CC, size: 0x8, addend: 0x0, symName: __ZN5godot6VectorINS_3RefIN6sentry20SentryEventProcessorEEEE9push_backES4_.cold.2, symObjAddr: 0x120E0, symBinAddr: 0x1017E8, symSize: 0x20 }
  - { offset: 0x1938E4, size: 0x8, addend: 0x0, symName: __ZN5godot6VectorINS_3RefIN6sentry20SentryEventProcessorEEEE9push_backES4_.cold.1, symObjAddr: 0x12090, symBinAddr: 0x101798, symSize: 0x50 }
  - { offset: 0x1939F2, size: 0x8, addend: 0x0, symName: __ZN6sentry13SentryOptions22remove_event_processorERKN5godot3RefINS_20SentryEventProcessorEEE, symObjAddr: 0x4240, symBinAddr: 0x2EE78, symSize: 0x60 }
  - { offset: 0x193B43, size: 0x8, addend: 0x0, symName: __ZN5godot6VectorINS_3RefIN6sentry20SentryEventProcessorEEEE9remove_atEx, symObjAddr: 0xDA58, symBinAddr: 0x373D0, symSize: 0x104 }
  - { offset: 0x193CC9, size: 0x8, addend: 0x0, symName: __ZN6sentry13SentryOptions22remove_event_processorERKN5godot3RefINS_20SentryEventProcessorEEE.cold.1, symObjAddr: 0x12100, symBinAddr: 0x101808, symSize: 0x20 }
  - { offset: 0x193DE8, size: 0x8, addend: 0x0, symName: __ZN6sentry13SentryOptions22add_default_attachmentERKN5godot3RefINS_16SentryAttachmentEEE, symObjAddr: 0x42A0, symBinAddr: 0x2EED8, symSize: 0xE0 }
  - { offset: 0x193F8F, size: 0x8, addend: 0x0, symName: __ZN5godot6VectorINS_3RefIN6sentry16SentryAttachmentEEEE9push_backES4_, symObjAddr: 0xA0C4, symBinAddr: 0x345E8, symSize: 0x114 }
  - { offset: 0x1941B4, size: 0x8, addend: 0x0, symName: __ZN6sentry13SentryOptions22add_default_attachmentERKN5godot3RefINS_16SentryAttachmentEEE.cold.2, symObjAddr: 0x12160, symBinAddr: 0x101868, symSize: 0x30 }
  - { offset: 0x1941CC, size: 0x8, addend: 0x0, symName: __ZN6sentry13SentryOptions22add_default_attachmentERKN5godot3RefINS_16SentryAttachmentEEE.cold.1, symObjAddr: 0x12120, symBinAddr: 0x101828, symSize: 0x40 }
  - { offset: 0x194ACA, size: 0x8, addend: 0x0, symName: __ZN6sentry13SentryOptions13_bind_methodsEv, symObjAddr: 0x4380, symBinAddr: 0x2EFB8, symSize: 0x4D88 }
  - { offset: 0x1A030B, size: 0x8, addend: 0x0, symName: __ZN5godot11GetTypeInfoINS_8BitFieldIN6sentry14GodotErrorMaskEEEvE14get_class_infoEv, symObjAddr: 0x104D4, symBinAddr: 0x3874C, symSize: 0x124 }
  - { offset: 0x1A03B2, size: 0x8, addend: 0x0, symName: __ZN6sentry13SentryOptions13_bind_methodsEv.cold.1, symObjAddr: 0x12190, symBinAddr: 0x101898, symSize: 0x5C }
  - { offset: 0x1A03E1, size: 0x8, addend: 0x0, symName: __ZN6sentry13SentryOptions13_bind_methodsEv.cold.2, symObjAddr: 0x121EC, symBinAddr: 0x1018F4, symSize: 0x58 }
  - { offset: 0x1A0410, size: 0x8, addend: 0x0, symName: __ZN6sentry13SentryOptions13_bind_methodsEv.cold.3, symObjAddr: 0x12244, symBinAddr: 0x10194C, symSize: 0x58 }
  - { offset: 0x1A043F, size: 0x8, addend: 0x0, symName: __ZN6sentry13SentryOptions13_bind_methodsEv.cold.4, symObjAddr: 0x1229C, symBinAddr: 0x1019A4, symSize: 0x58 }
  - { offset: 0x1A046E, size: 0x8, addend: 0x0, symName: __ZN6sentry13SentryOptions13_bind_methodsEv.cold.5, symObjAddr: 0x122F4, symBinAddr: 0x1019FC, symSize: 0x58 }
  - { offset: 0x1A049D, size: 0x8, addend: 0x0, symName: __ZN6sentry13SentryOptions13_bind_methodsEv.cold.6, symObjAddr: 0x1234C, symBinAddr: 0x101A54, symSize: 0x58 }
  - { offset: 0x1A04CC, size: 0x8, addend: 0x0, symName: __ZN6sentry13SentryOptions13_bind_methodsEv.cold.7, symObjAddr: 0x123A4, symBinAddr: 0x101AAC, symSize: 0x58 }
  - { offset: 0x1A04FB, size: 0x8, addend: 0x0, symName: __ZN6sentry13SentryOptions13_bind_methodsEv.cold.8, symObjAddr: 0x123FC, symBinAddr: 0x101B04, symSize: 0x58 }
  - { offset: 0x1A052A, size: 0x8, addend: 0x0, symName: __ZN6sentry13SentryOptions13_bind_methodsEv.cold.9, symObjAddr: 0x12454, symBinAddr: 0x101B5C, symSize: 0x58 }
  - { offset: 0x1A0559, size: 0x8, addend: 0x0, symName: __ZN6sentry13SentryOptions13_bind_methodsEv.cold.10, symObjAddr: 0x124AC, symBinAddr: 0x101BB4, symSize: 0x58 }
  - { offset: 0x1A0588, size: 0x8, addend: 0x0, symName: __ZN6sentry13SentryOptions13_bind_methodsEv.cold.11, symObjAddr: 0x12504, symBinAddr: 0x101C0C, symSize: 0x58 }
  - { offset: 0x1A05B7, size: 0x8, addend: 0x0, symName: __ZN6sentry13SentryOptions13_bind_methodsEv.cold.12, symObjAddr: 0x1255C, symBinAddr: 0x101C64, symSize: 0x58 }
  - { offset: 0x1A05E6, size: 0x8, addend: 0x0, symName: __ZN6sentry13SentryOptions13_bind_methodsEv.cold.13, symObjAddr: 0x125B4, symBinAddr: 0x101CBC, symSize: 0x58 }
  - { offset: 0x1A0615, size: 0x8, addend: 0x0, symName: __ZN6sentry13SentryOptions13_bind_methodsEv.cold.14, symObjAddr: 0x1260C, symBinAddr: 0x101D14, symSize: 0x58 }
  - { offset: 0x1A0644, size: 0x8, addend: 0x0, symName: __ZN6sentry13SentryOptions13_bind_methodsEv.cold.15, symObjAddr: 0x12664, symBinAddr: 0x101D6C, symSize: 0x58 }
  - { offset: 0x1A0673, size: 0x8, addend: 0x0, symName: __ZN6sentry13SentryOptions13_bind_methodsEv.cold.16, symObjAddr: 0x126BC, symBinAddr: 0x101DC4, symSize: 0x58 }
  - { offset: 0x1A06A2, size: 0x8, addend: 0x0, symName: __ZN6sentry13SentryOptions13_bind_methodsEv.cold.17, symObjAddr: 0x12714, symBinAddr: 0x101E1C, symSize: 0x58 }
  - { offset: 0x1A06D1, size: 0x8, addend: 0x0, symName: __ZN6sentry13SentryOptions13_bind_methodsEv.cold.18, symObjAddr: 0x1276C, symBinAddr: 0x101E74, symSize: 0x58 }
  - { offset: 0x1A0700, size: 0x8, addend: 0x0, symName: __ZN6sentry13SentryOptions13_bind_methodsEv.cold.19, symObjAddr: 0x127C4, symBinAddr: 0x101ECC, symSize: 0x58 }
  - { offset: 0x1A072F, size: 0x8, addend: 0x0, symName: __ZN6sentry13SentryOptions13_bind_methodsEv.cold.20, symObjAddr: 0x1281C, symBinAddr: 0x101F24, symSize: 0x58 }
  - { offset: 0x1A075E, size: 0x8, addend: 0x0, symName: __ZN6sentry13SentryOptions13_bind_methodsEv.cold.21, symObjAddr: 0x12874, symBinAddr: 0x101F7C, symSize: 0x58 }
  - { offset: 0x1A078D, size: 0x8, addend: 0x0, symName: __ZN6sentry13SentryOptions13_bind_methodsEv.cold.22, symObjAddr: 0x128CC, symBinAddr: 0x101FD4, symSize: 0x58 }
  - { offset: 0x1A07BC, size: 0x8, addend: 0x0, symName: __ZN6sentry13SentryOptions13_bind_methodsEv.cold.23, symObjAddr: 0x12924, symBinAddr: 0x10202C, symSize: 0x58 }
  - { offset: 0x1A07EB, size: 0x8, addend: 0x0, symName: __ZN6sentry13SentryOptions13_bind_methodsEv.cold.24, symObjAddr: 0x1297C, symBinAddr: 0x102084, symSize: 0x58 }
  - { offset: 0x1A081A, size: 0x8, addend: 0x0, symName: __ZN6sentry13SentryOptions13_bind_methodsEv.cold.25, symObjAddr: 0x129D4, symBinAddr: 0x1020DC, symSize: 0x58 }
  - { offset: 0x1A0849, size: 0x8, addend: 0x0, symName: __ZN6sentry13SentryOptions13_bind_methodsEv.cold.26, symObjAddr: 0x12A2C, symBinAddr: 0x102134, symSize: 0x58 }
  - { offset: 0x1A0878, size: 0x8, addend: 0x0, symName: __ZN6sentry13SentryOptions13_bind_methodsEv.cold.27, symObjAddr: 0x12A84, symBinAddr: 0x10218C, symSize: 0x58 }
  - { offset: 0x1A08A7, size: 0x8, addend: 0x0, symName: __ZN6sentry13SentryOptions13_bind_methodsEv.cold.28, symObjAddr: 0x12ADC, symBinAddr: 0x1021E4, symSize: 0x58 }
  - { offset: 0x1A08D6, size: 0x8, addend: 0x0, symName: __ZN6sentry13SentryOptions13_bind_methodsEv.cold.29, symObjAddr: 0x12B34, symBinAddr: 0x10223C, symSize: 0x58 }
  - { offset: 0x1A0905, size: 0x8, addend: 0x0, symName: __ZN6sentry13SentryOptions13_bind_methodsEv.cold.30, symObjAddr: 0x12B8C, symBinAddr: 0x102294, symSize: 0x58 }
  - { offset: 0x1A0934, size: 0x8, addend: 0x0, symName: __ZN6sentry13SentryOptions13_bind_methodsEv.cold.31, symObjAddr: 0x12BE4, symBinAddr: 0x1022EC, symSize: 0x58 }
  - { offset: 0x1A0963, size: 0x8, addend: 0x0, symName: __ZN6sentry13SentryOptions13_bind_methodsEv.cold.32, symObjAddr: 0x12C3C, symBinAddr: 0x102344, symSize: 0x58 }
  - { offset: 0x1A0992, size: 0x8, addend: 0x0, symName: __ZN6sentry13SentryOptions13_bind_methodsEv.cold.33, symObjAddr: 0x12C94, symBinAddr: 0x10239C, symSize: 0x58 }
  - { offset: 0x1A0B38, size: 0x8, addend: 0x0, symName: __ZN5godot3RefIN6sentry18SentryExperimentalEE11instantiateEv, symObjAddr: 0x92B4, symBinAddr: 0x33EEC, symSize: 0x180 }
  - { offset: 0x1A0D62, size: 0x8, addend: 0x0, symName: __ZN6sentry13SentryOptionsC2Ev.cold.1, symObjAddr: 0x12CEC, symBinAddr: 0x1023F4, symSize: 0x30 }
  - { offset: 0x1A0E59, size: 0x8, addend: 0x0, symName: __ZN5godot3RefIN6sentry18SentryExperimentalEE11instantiateEv.cold.1, symObjAddr: 0x12D1C, symBinAddr: 0x102424, symSize: 0x5C }
  - { offset: 0x1A11CE, size: 0x8, addend: 0x0, symName: __ZN6sentry13SentryOptionsD2Ev, symObjAddr: 0x9434, symBinAddr: 0x3406C, symSize: 0x308 }
  - { offset: 0x1A1A20, size: 0x8, addend: 0x0, symName: __ZN6sentry13SentryOptionsD2Ev.cold.1, symObjAddr: 0x12D78, symBinAddr: 0x102480, symSize: 0x1C }
  - { offset: 0x1A1A3C, size: 0x8, addend: 0x0, symName: __ZN6sentry13SentryOptionsD2Ev.cold.1, symObjAddr: 0x12D78, symBinAddr: 0x102480, symSize: 0x1C }
  - { offset: 0x1A1A51, size: 0x8, addend: 0x0, symName: __ZN6sentry13SentryOptionsD2Ev.cold.1, symObjAddr: 0x12D78, symBinAddr: 0x102480, symSize: 0x1C }
  - { offset: 0x1A1A65, size: 0x8, addend: 0x0, symName: __ZN6sentry13SentryOptionsD2Ev.cold.1, symObjAddr: 0x12D78, symBinAddr: 0x102480, symSize: 0x1C }
  - { offset: 0x1A1A79, size: 0x8, addend: 0x0, symName: __ZN6sentry13SentryOptionsD2Ev.cold.1, symObjAddr: 0x12D78, symBinAddr: 0x102480, symSize: 0x1C }
  - { offset: 0x1A1A8E, size: 0x8, addend: 0x0, symName: __ZN6sentry13SentryOptionsD2Ev.cold.1, symObjAddr: 0x12D78, symBinAddr: 0x102480, symSize: 0x1C }
  - { offset: 0x1A1AA5, size: 0x8, addend: 0x0, symName: __ZN6sentry13SentryOptionsD1Ev, symObjAddr: 0x973C, symBinAddr: 0x34374, symSize: 0x4 }
  - { offset: 0x1A1AC8, size: 0x8, addend: 0x0, symName: __ZN6sentry13SentryOptionsD1Ev, symObjAddr: 0x973C, symBinAddr: 0x34374, symSize: 0x4 }
  - { offset: 0x1A1AF8, size: 0x8, addend: 0x0, symName: __ZN6sentry13SentryOptionsD0Ev, symObjAddr: 0x9740, symBinAddr: 0x34378, symSize: 0x14 }
  - { offset: 0x1A1B58, size: 0x8, addend: 0x0, symName: __ZNK6sentry13SentryOptions19_is_extension_classEv, symObjAddr: 0x9754, symBinAddr: 0x3438C, symSize: 0x8 }
  - { offset: 0x1A1BA4, size: 0x8, addend: 0x0, symName: __ZN5godot10RefCountedD1Ev.cold.1, symObjAddr: 0x12D94, symBinAddr: 0x10249C, symSize: 0x1C }
  - { offset: 0x1A1BBF, size: 0x8, addend: 0x0, symName: __ZN5godot10RefCountedD1Ev.cold.1, symObjAddr: 0x12D94, symBinAddr: 0x10249C, symSize: 0x1C }
  - { offset: 0x1A1BD3, size: 0x8, addend: 0x0, symName: __ZN5godot10RefCountedD1Ev.cold.1, symObjAddr: 0x12D94, symBinAddr: 0x10249C, symSize: 0x1C }
  - { offset: 0x1A1BE7, size: 0x8, addend: 0x0, symName: __ZN5godot10RefCountedD1Ev.cold.1, symObjAddr: 0x12D94, symBinAddr: 0x10249C, symSize: 0x1C }
  - { offset: 0x1A1BFB, size: 0x8, addend: 0x0, symName: __ZN5godot10RefCountedD1Ev.cold.1, symObjAddr: 0x12D94, symBinAddr: 0x10249C, symSize: 0x1C }
  - { offset: 0x1A1C10, size: 0x8, addend: 0x0, symName: __ZN5godot10RefCountedD1Ev.cold.1, symObjAddr: 0x12D94, symBinAddr: 0x10249C, symSize: 0x1C }
  - { offset: 0x1A1C43, size: 0x8, addend: 0x0, symName: __ZN5godot10RefCountedD0Ev.cold.1, symObjAddr: 0x12DB0, symBinAddr: 0x1024B8, symSize: 0x1C }
  - { offset: 0x1A1C5E, size: 0x8, addend: 0x0, symName: __ZN5godot10RefCountedD0Ev.cold.1, symObjAddr: 0x12DB0, symBinAddr: 0x1024B8, symSize: 0x1C }
  - { offset: 0x1A1C72, size: 0x8, addend: 0x0, symName: __ZN5godot10RefCountedD0Ev.cold.1, symObjAddr: 0x12DB0, symBinAddr: 0x1024B8, symSize: 0x1C }
  - { offset: 0x1A1C86, size: 0x8, addend: 0x0, symName: __ZN5godot10RefCountedD0Ev.cold.1, symObjAddr: 0x12DB0, symBinAddr: 0x1024B8, symSize: 0x1C }
  - { offset: 0x1A1C9A, size: 0x8, addend: 0x0, symName: __ZN5godot10RefCountedD0Ev.cold.1, symObjAddr: 0x12DB0, symBinAddr: 0x1024B8, symSize: 0x1C }
  - { offset: 0x1A1CAE, size: 0x8, addend: 0x0, symName: __ZN5godot10RefCountedD0Ev.cold.1, symObjAddr: 0x12DB0, symBinAddr: 0x1024B8, symSize: 0x1C }
  - { offset: 0x1A1CC3, size: 0x8, addend: 0x0, symName: __ZN5godot10RefCountedD0Ev.cold.1, symObjAddr: 0x12DB0, symBinAddr: 0x1024B8, symSize: 0x1C }
  - { offset: 0x1A1CDB, size: 0x8, addend: 0x0, symName: __ZN5godot6ObjectD1Ev.cold.1, symObjAddr: 0x12DCC, symBinAddr: 0x1024D4, symSize: 0x1C }
  - { offset: 0x1A1CF6, size: 0x8, addend: 0x0, symName: __ZN5godot6ObjectD1Ev.cold.1, symObjAddr: 0x12DCC, symBinAddr: 0x1024D4, symSize: 0x1C }
  - { offset: 0x1A1D0A, size: 0x8, addend: 0x0, symName: __ZN5godot6ObjectD1Ev.cold.1, symObjAddr: 0x12DCC, symBinAddr: 0x1024D4, symSize: 0x1C }
  - { offset: 0x1A1D1E, size: 0x8, addend: 0x0, symName: __ZN5godot6ObjectD1Ev.cold.1, symObjAddr: 0x12DCC, symBinAddr: 0x1024D4, symSize: 0x1C }
  - { offset: 0x1A1D33, size: 0x8, addend: 0x0, symName: __ZN5godot6ObjectD1Ev.cold.1, symObjAddr: 0x12DCC, symBinAddr: 0x1024D4, symSize: 0x1C }
  - { offset: 0x1A1D63, size: 0x8, addend: 0x0, symName: __ZN5godot6ObjectD0Ev.cold.1, symObjAddr: 0x12DE8, symBinAddr: 0x1024F0, symSize: 0x1C }
  - { offset: 0x1A1D7E, size: 0x8, addend: 0x0, symName: __ZN5godot6ObjectD0Ev.cold.1, symObjAddr: 0x12DE8, symBinAddr: 0x1024F0, symSize: 0x1C }
  - { offset: 0x1A1D92, size: 0x8, addend: 0x0, symName: __ZN5godot6ObjectD0Ev.cold.1, symObjAddr: 0x12DE8, symBinAddr: 0x1024F0, symSize: 0x1C }
  - { offset: 0x1A1DA6, size: 0x8, addend: 0x0, symName: __ZN5godot6ObjectD0Ev.cold.1, symObjAddr: 0x12DE8, symBinAddr: 0x1024F0, symSize: 0x1C }
  - { offset: 0x1A1DBA, size: 0x8, addend: 0x0, symName: __ZN5godot6ObjectD0Ev.cold.1, symObjAddr: 0x12DE8, symBinAddr: 0x1024F0, symSize: 0x1C }
  - { offset: 0x1A1DCF, size: 0x8, addend: 0x0, symName: __ZN5godot6ObjectD0Ev.cold.1, symObjAddr: 0x12DE8, symBinAddr: 0x1024F0, symSize: 0x1C }
  - { offset: 0x1A1DE6, size: 0x8, addend: 0x0, symName: __ZN5godot7WrappedD1Ev.cold.1, symObjAddr: 0x12E04, symBinAddr: 0x10250C, symSize: 0x1C }
  - { offset: 0x1A1E01, size: 0x8, addend: 0x0, symName: __ZN5godot7WrappedD1Ev.cold.1, symObjAddr: 0x12E04, symBinAddr: 0x10250C, symSize: 0x1C }
  - { offset: 0x1A1E15, size: 0x8, addend: 0x0, symName: __ZN5godot7WrappedD1Ev.cold.1, symObjAddr: 0x12E04, symBinAddr: 0x10250C, symSize: 0x1C }
  - { offset: 0x1A1E2A, size: 0x8, addend: 0x0, symName: __ZN5godot7WrappedD1Ev.cold.1, symObjAddr: 0x12E04, symBinAddr: 0x10250C, symSize: 0x1C }
  - { offset: 0x1A1E59, size: 0x8, addend: 0x0, symName: __ZN5godot7WrappedD0Ev.cold.1, symObjAddr: 0x12E20, symBinAddr: 0x102528, symSize: 0x1C }
  - { offset: 0x1A1E74, size: 0x8, addend: 0x0, symName: __ZN5godot7WrappedD0Ev.cold.1, symObjAddr: 0x12E20, symBinAddr: 0x102528, symSize: 0x1C }
  - { offset: 0x1A1E88, size: 0x8, addend: 0x0, symName: __ZN5godot7WrappedD0Ev.cold.1, symObjAddr: 0x12E20, symBinAddr: 0x102528, symSize: 0x1C }
  - { offset: 0x1A1E9C, size: 0x8, addend: 0x0, symName: __ZN5godot7WrappedD0Ev.cold.1, symObjAddr: 0x12E20, symBinAddr: 0x102528, symSize: 0x1C }
  - { offset: 0x1A1EB1, size: 0x8, addend: 0x0, symName: __ZN5godot7WrappedD0Ev.cold.1, symObjAddr: 0x12E20, symBinAddr: 0x102528, symSize: 0x1C }
  - { offset: 0x1A1EFF, size: 0x8, addend: 0x0, symName: __ZN5godot4ListINS_12PropertyInfoENS_16DefaultAllocatorEE5_Data5eraseEPNS3_7ElementE.cold.2, symObjAddr: 0x12E5C, symBinAddr: 0x102564, symSize: 0x20 }
  - { offset: 0x1A1F17, size: 0x8, addend: 0x0, symName: __ZN5godot4ListINS_12PropertyInfoENS_16DefaultAllocatorEE5_Data5eraseEPNS3_7ElementE.cold.1, symObjAddr: 0x12E3C, symBinAddr: 0x102544, symSize: 0x20 }
  - { offset: 0x1A1F36, size: 0x8, addend: 0x0, symName: __ZN5godot8internal23EngineClassRegistrationINS_6ObjectEE8callbackEv.cold.1, symObjAddr: 0x12E7C, symBinAddr: 0x102584, symSize: 0x5C }
  - { offset: 0x1A1F6B, size: 0x8, addend: 0x0, symName: __ZN5godot8internal23EngineClassRegistrationINS_16ClassDBSingletonEE8callbackEv.cold.1, symObjAddr: 0x12ED8, symBinAddr: 0x1025E0, symSize: 0x5C }
  - { offset: 0x1A1FA0, size: 0x8, addend: 0x0, symName: __ZN5godot8internal23EngineClassRegistrationINS_10RefCountedEE8callbackEv.cold.1, symObjAddr: 0x12F34, symBinAddr: 0x10263C, symSize: 0x5C }
  - { offset: 0x1A1FD5, size: 0x8, addend: 0x0, symName: __ZN5godot8internal23EngineClassRegistrationINS_6LoggerEE8callbackEv.cold.1, symObjAddr: 0x12F90, symBinAddr: 0x102698, symSize: 0x5C }
  - { offset: 0x1A20DA, size: 0x8, addend: 0x0, symName: __ZN5godot7CowDataINS_3RefIN6sentry16SentryAttachmentEEEE6resizeILb0EEENS_5ErrorEx, symObjAddr: 0xA1D8, symBinAddr: 0x346FC, symSize: 0x338 }
  - { offset: 0x1A2845, size: 0x8, addend: 0x0, symName: __ZN5godot7CowDataINS_3RefIN6sentry16SentryAttachmentEEEE14_copy_on_writeEv, symObjAddr: 0xA5BC, symBinAddr: 0x34AE0, symSize: 0x48 }
  - { offset: 0x1A298D, size: 0x8, addend: 0x0, symName: __ZN5godot6VectorINS_3RefIN6sentry16SentryAttachmentEEEE9push_backES4_.cold.2, symObjAddr: 0x1303C, symBinAddr: 0x102744, symSize: 0x20 }
  - { offset: 0x1A29A5, size: 0x8, addend: 0x0, symName: __ZN5godot6VectorINS_3RefIN6sentry16SentryAttachmentEEEE9push_backES4_.cold.1, symObjAddr: 0x12FEC, symBinAddr: 0x1026F4, symSize: 0x50 }
  - { offset: 0x1A2B77, size: 0x8, addend: 0x0, symName: __ZN5godot7CowDataINS_3RefIN6sentry16SentryAttachmentEEEE6resizeILb0EEENS_5ErrorEx.cold.4, symObjAddr: 0x130BC, symBinAddr: 0x1027C4, symSize: 0x20 }
  - { offset: 0x1A2B8F, size: 0x8, addend: 0x0, symName: __ZN5godot7CowDataINS_3RefIN6sentry16SentryAttachmentEEEE6resizeILb0EEENS_5ErrorEx.cold.5, symObjAddr: 0x130DC, symBinAddr: 0x1027E4, symSize: 0x20 }
  - { offset: 0x1A2BA7, size: 0x8, addend: 0x0, symName: __ZN5godot7CowDataINS_3RefIN6sentry16SentryAttachmentEEEE6resizeILb0EEENS_5ErrorEx.cold.2, symObjAddr: 0x1307C, symBinAddr: 0x102784, symSize: 0x20 }
  - { offset: 0x1A2BC3, size: 0x8, addend: 0x0, symName: __ZN5godot7CowDataINS_3RefIN6sentry16SentryAttachmentEEEE6resizeILb0EEENS_5ErrorEx.cold.2, symObjAddr: 0x1307C, symBinAddr: 0x102784, symSize: 0x20 }
  - { offset: 0x1A2BD6, size: 0x8, addend: 0x0, symName: __ZN5godot7CowDataINS_3RefIN6sentry16SentryAttachmentEEEE6resizeILb0EEENS_5ErrorEx.cold.1, symObjAddr: 0x1305C, symBinAddr: 0x102764, symSize: 0x20 }
  - { offset: 0x1A2BF2, size: 0x8, addend: 0x0, symName: __ZN5godot7CowDataINS_3RefIN6sentry16SentryAttachmentEEEE6resizeILb0EEENS_5ErrorEx.cold.1, symObjAddr: 0x1305C, symBinAddr: 0x102764, symSize: 0x20 }
  - { offset: 0x1A2C05, size: 0x8, addend: 0x0, symName: __ZN5godot7CowDataINS_3RefIN6sentry16SentryAttachmentEEEE6resizeILb0EEENS_5ErrorEx.cold.3, symObjAddr: 0x1309C, symBinAddr: 0x1027A4, symSize: 0x20 }
  - { offset: 0x1A2C1D, size: 0x8, addend: 0x0, symName: __ZN5godot7CowDataINS_3RefIN6sentry16SentryAttachmentEEEE6_unrefEv, symObjAddr: 0xA510, symBinAddr: 0x34A34, symSize: 0xAC }
  - { offset: 0x1A2DC1, size: 0x8, addend: 0x0, symName: __ZN5godot7CowDataINS_3RefIN6sentry16SentryAttachmentEEEE14_copy_on_writeEv.cold.1, symObjAddr: 0x130FC, symBinAddr: 0x102804, symSize: 0xA8 }
  - { offset: 0x1A2F45, size: 0x8, addend: 0x0, symName: __ZN5godot8internal23EngineClassRegistrationINS_15ScriptBacktraceEE8callbackEv.cold.1, symObjAddr: 0x131A4, symBinAddr: 0x1028AC, symSize: 0x5C }
  - { offset: 0x1A2F8F, size: 0x8, addend: 0x0, symName: __ZN5godot15ScriptBacktraceD1Ev.cold.1, symObjAddr: 0x13200, symBinAddr: 0x102908, symSize: 0x1C }
  - { offset: 0x1A2FAA, size: 0x8, addend: 0x0, symName: __ZN5godot15ScriptBacktraceD1Ev.cold.1, symObjAddr: 0x13200, symBinAddr: 0x102908, symSize: 0x1C }
  - { offset: 0x1A2FBE, size: 0x8, addend: 0x0, symName: __ZN5godot15ScriptBacktraceD1Ev.cold.1, symObjAddr: 0x13200, symBinAddr: 0x102908, symSize: 0x1C }
  - { offset: 0x1A2FD2, size: 0x8, addend: 0x0, symName: __ZN5godot15ScriptBacktraceD1Ev.cold.1, symObjAddr: 0x13200, symBinAddr: 0x102908, symSize: 0x1C }
  - { offset: 0x1A2FE6, size: 0x8, addend: 0x0, symName: __ZN5godot15ScriptBacktraceD1Ev.cold.1, symObjAddr: 0x13200, symBinAddr: 0x102908, symSize: 0x1C }
  - { offset: 0x1A2FFA, size: 0x8, addend: 0x0, symName: __ZN5godot15ScriptBacktraceD1Ev.cold.1, symObjAddr: 0x13200, symBinAddr: 0x102908, symSize: 0x1C }
  - { offset: 0x1A300F, size: 0x8, addend: 0x0, symName: __ZN5godot15ScriptBacktraceD1Ev.cold.1, symObjAddr: 0x13200, symBinAddr: 0x102908, symSize: 0x1C }
  - { offset: 0x1A3043, size: 0x8, addend: 0x0, symName: __ZN5godot15ScriptBacktraceD0Ev.cold.1, symObjAddr: 0x1321C, symBinAddr: 0x102924, symSize: 0x1C }
  - { offset: 0x1A305E, size: 0x8, addend: 0x0, symName: __ZN5godot15ScriptBacktraceD0Ev.cold.1, symObjAddr: 0x1321C, symBinAddr: 0x102924, symSize: 0x1C }
  - { offset: 0x1A3072, size: 0x8, addend: 0x0, symName: __ZN5godot15ScriptBacktraceD0Ev.cold.1, symObjAddr: 0x1321C, symBinAddr: 0x102924, symSize: 0x1C }
  - { offset: 0x1A3086, size: 0x8, addend: 0x0, symName: __ZN5godot15ScriptBacktraceD0Ev.cold.1, symObjAddr: 0x1321C, symBinAddr: 0x102924, symSize: 0x1C }
  - { offset: 0x1A309A, size: 0x8, addend: 0x0, symName: __ZN5godot15ScriptBacktraceD0Ev.cold.1, symObjAddr: 0x1321C, symBinAddr: 0x102924, symSize: 0x1C }
  - { offset: 0x1A30AE, size: 0x8, addend: 0x0, symName: __ZN5godot15ScriptBacktraceD0Ev.cold.1, symObjAddr: 0x1321C, symBinAddr: 0x102924, symSize: 0x1C }
  - { offset: 0x1A30C2, size: 0x8, addend: 0x0, symName: __ZN5godot15ScriptBacktraceD0Ev.cold.1, symObjAddr: 0x1321C, symBinAddr: 0x102924, symSize: 0x1C }
  - { offset: 0x1A30D7, size: 0x8, addend: 0x0, symName: __ZN5godot15ScriptBacktraceD0Ev.cold.1, symObjAddr: 0x1321C, symBinAddr: 0x102924, symSize: 0x1C }
  - { offset: 0x1A30F7, size: 0x8, addend: 0x0, symName: __ZN5godot8internal23EngineClassRegistrationINS_10ConfigFileEE8callbackEv.cold.1, symObjAddr: 0x13238, symBinAddr: 0x102940, symSize: 0x5C }
  - { offset: 0x1A3141, size: 0x8, addend: 0x0, symName: __ZN5godot10ConfigFileD1Ev.cold.1, symObjAddr: 0x13294, symBinAddr: 0x10299C, symSize: 0x1C }
  - { offset: 0x1A315C, size: 0x8, addend: 0x0, symName: __ZN5godot10ConfigFileD1Ev.cold.1, symObjAddr: 0x13294, symBinAddr: 0x10299C, symSize: 0x1C }
  - { offset: 0x1A3170, size: 0x8, addend: 0x0, symName: __ZN5godot10ConfigFileD1Ev.cold.1, symObjAddr: 0x13294, symBinAddr: 0x10299C, symSize: 0x1C }
  - { offset: 0x1A3184, size: 0x8, addend: 0x0, symName: __ZN5godot10ConfigFileD1Ev.cold.1, symObjAddr: 0x13294, symBinAddr: 0x10299C, symSize: 0x1C }
  - { offset: 0x1A3198, size: 0x8, addend: 0x0, symName: __ZN5godot10ConfigFileD1Ev.cold.1, symObjAddr: 0x13294, symBinAddr: 0x10299C, symSize: 0x1C }
  - { offset: 0x1A31AC, size: 0x8, addend: 0x0, symName: __ZN5godot10ConfigFileD1Ev.cold.1, symObjAddr: 0x13294, symBinAddr: 0x10299C, symSize: 0x1C }
  - { offset: 0x1A31C1, size: 0x8, addend: 0x0, symName: __ZN5godot10ConfigFileD1Ev.cold.1, symObjAddr: 0x13294, symBinAddr: 0x10299C, symSize: 0x1C }
  - { offset: 0x1A31F5, size: 0x8, addend: 0x0, symName: __ZN5godot10ConfigFileD0Ev.cold.1, symObjAddr: 0x132B0, symBinAddr: 0x1029B8, symSize: 0x1C }
  - { offset: 0x1A3210, size: 0x8, addend: 0x0, symName: __ZN5godot10ConfigFileD0Ev.cold.1, symObjAddr: 0x132B0, symBinAddr: 0x1029B8, symSize: 0x1C }
  - { offset: 0x1A3224, size: 0x8, addend: 0x0, symName: __ZN5godot10ConfigFileD0Ev.cold.1, symObjAddr: 0x132B0, symBinAddr: 0x1029B8, symSize: 0x1C }
  - { offset: 0x1A3238, size: 0x8, addend: 0x0, symName: __ZN5godot10ConfigFileD0Ev.cold.1, symObjAddr: 0x132B0, symBinAddr: 0x1029B8, symSize: 0x1C }
  - { offset: 0x1A324C, size: 0x8, addend: 0x0, symName: __ZN5godot10ConfigFileD0Ev.cold.1, symObjAddr: 0x132B0, symBinAddr: 0x1029B8, symSize: 0x1C }
  - { offset: 0x1A3260, size: 0x8, addend: 0x0, symName: __ZN5godot10ConfigFileD0Ev.cold.1, symObjAddr: 0x132B0, symBinAddr: 0x1029B8, symSize: 0x1C }
  - { offset: 0x1A3274, size: 0x8, addend: 0x0, symName: __ZN5godot10ConfigFileD0Ev.cold.1, symObjAddr: 0x132B0, symBinAddr: 0x1029B8, symSize: 0x1C }
  - { offset: 0x1A3289, size: 0x8, addend: 0x0, symName: __ZN5godot10ConfigFileD0Ev.cold.1, symObjAddr: 0x132B0, symBinAddr: 0x1029B8, symSize: 0x1C }
  - { offset: 0x1A32A9, size: 0x8, addend: 0x0, symName: __ZN5godot8internal23EngineClassRegistrationINS_5MutexEE8callbackEv.cold.1, symObjAddr: 0x132CC, symBinAddr: 0x1029D4, symSize: 0x5C }
  - { offset: 0x1A32F3, size: 0x8, addend: 0x0, symName: __ZN5godot5MutexD1Ev.cold.1, symObjAddr: 0x13328, symBinAddr: 0x102A30, symSize: 0x1C }
  - { offset: 0x1A330E, size: 0x8, addend: 0x0, symName: __ZN5godot5MutexD1Ev.cold.1, symObjAddr: 0x13328, symBinAddr: 0x102A30, symSize: 0x1C }
  - { offset: 0x1A3322, size: 0x8, addend: 0x0, symName: __ZN5godot5MutexD1Ev.cold.1, symObjAddr: 0x13328, symBinAddr: 0x102A30, symSize: 0x1C }
  - { offset: 0x1A3336, size: 0x8, addend: 0x0, symName: __ZN5godot5MutexD1Ev.cold.1, symObjAddr: 0x13328, symBinAddr: 0x102A30, symSize: 0x1C }
  - { offset: 0x1A334A, size: 0x8, addend: 0x0, symName: __ZN5godot5MutexD1Ev.cold.1, symObjAddr: 0x13328, symBinAddr: 0x102A30, symSize: 0x1C }
  - { offset: 0x1A335E, size: 0x8, addend: 0x0, symName: __ZN5godot5MutexD1Ev.cold.1, symObjAddr: 0x13328, symBinAddr: 0x102A30, symSize: 0x1C }
  - { offset: 0x1A3373, size: 0x8, addend: 0x0, symName: __ZN5godot5MutexD1Ev.cold.1, symObjAddr: 0x13328, symBinAddr: 0x102A30, symSize: 0x1C }
  - { offset: 0x1A33A7, size: 0x8, addend: 0x0, symName: __ZN5godot5MutexD0Ev.cold.1, symObjAddr: 0x13344, symBinAddr: 0x102A4C, symSize: 0x1C }
  - { offset: 0x1A33C2, size: 0x8, addend: 0x0, symName: __ZN5godot5MutexD0Ev.cold.1, symObjAddr: 0x13344, symBinAddr: 0x102A4C, symSize: 0x1C }
  - { offset: 0x1A33D6, size: 0x8, addend: 0x0, symName: __ZN5godot5MutexD0Ev.cold.1, symObjAddr: 0x13344, symBinAddr: 0x102A4C, symSize: 0x1C }
  - { offset: 0x1A33EA, size: 0x8, addend: 0x0, symName: __ZN5godot5MutexD0Ev.cold.1, symObjAddr: 0x13344, symBinAddr: 0x102A4C, symSize: 0x1C }
  - { offset: 0x1A33FE, size: 0x8, addend: 0x0, symName: __ZN5godot5MutexD0Ev.cold.1, symObjAddr: 0x13344, symBinAddr: 0x102A4C, symSize: 0x1C }
  - { offset: 0x1A3412, size: 0x8, addend: 0x0, symName: __ZN5godot5MutexD0Ev.cold.1, symObjAddr: 0x13344, symBinAddr: 0x102A4C, symSize: 0x1C }
